
;CodeVisionAVR C Compiler V3.12 Advanced
;(C) Copyright 1998-2014 Pavel Haiduc, HP InfoTech s.r.l.
;http://www.hpinfotech.com

;Build configuration    : Debug
;Chip type              : AT90USB1286
;Program type           : Application
;Clock frequency        : 16.000000 MHz
;Memory model           : Small
;Optimize for           : Size
;(s)printf features     : int, width
;(s)scanf features      : int, width
;External RAM size      : 0
;Data Stack size        : 2048 byte(s)
;Heap size              : 0 byte(s)
;Promote 'char' to 'int': Yes
;'char' is unsigned     : Yes
;8 bit enums            : Yes
;Global 'const' stored in FLASH: No
;Enhanced function parameter passing: Yes
;Enhanced core instructions: On
;Automatic register allocation for global variables: Off
;Smart register allocation: Off

	#define _MODEL_SMALL_

	#pragma AVRPART ADMIN PART_NAME AT90USB1286
	#pragma AVRPART MEMORY PROG_FLASH 131072
	#pragma AVRPART MEMORY EEPROM 4096
	#pragma AVRPART MEMORY INT_SRAM SIZE 8192
	#pragma AVRPART MEMORY INT_SRAM START_ADDR 0x100

	#define CALL_SUPPORTED 1

	.LISTMAC
	.EQU EERE=0x0
	.EQU EEWE=0x1
	.EQU EEMWE=0x2
	.EQU UDRE=0x5
	.EQU RXC=0x7
	.EQU EECR=0x1F
	.EQU EEDR=0x20
	.EQU EEARL=0x21
	.EQU EEARH=0x22
	.EQU SPSR=0x2D
	.EQU SPDR=0x2E
	.EQU SMCR=0x33
	.EQU MCUSR=0x34
	.EQU MCUCR=0x35
	.EQU RAMPZ=0x3B
	.EQU WDTCSR=0x60
	.EQU UCSR1A=0xC8
	.EQU UDR1=0xCE
	.EQU SPL=0x3D
	.EQU SPH=0x3E
	.EQU SREG=0x3F
	.EQU GPIOR0=0x1E

	.DEF R0X0=R0
	.DEF R0X1=R1
	.DEF R0X2=R2
	.DEF R0X3=R3
	.DEF R0X4=R4
	.DEF R0X5=R5
	.DEF R0X6=R6
	.DEF R0X7=R7
	.DEF R0X8=R8
	.DEF R0X9=R9
	.DEF R0XA=R10
	.DEF R0XB=R11
	.DEF R0XC=R12
	.DEF R0XD=R13
	.DEF R0XE=R14
	.DEF R0XF=R15
	.DEF R0X10=R16
	.DEF R0X11=R17
	.DEF R0X12=R18
	.DEF R0X13=R19
	.DEF R0X14=R20
	.DEF R0X15=R21
	.DEF R0X16=R22
	.DEF R0X17=R23
	.DEF R0X18=R24
	.DEF R0X19=R25
	.DEF R0X1A=R26
	.DEF R0X1B=R27
	.DEF R0X1C=R28
	.DEF R0X1D=R29
	.DEF R0X1E=R30
	.DEF R0X1F=R31

	.EQU __SRAM_START=0x0100
	.EQU __SRAM_END=0x20FF
	.EQU __DSTACK_SIZE=0x0800
	.EQU __HEAP_SIZE=0x0000
	.EQU __CLEAR_SRAM_SIZE=__SRAM_END-__SRAM_START+1

	.MACRO __CPD1N
	CPI  R30,LOW(@0)
	LDI  R26,HIGH(@0)
	CPC  R31,R26
	LDI  R26,BYTE3(@0)
	CPC  R22,R26
	LDI  R26,BYTE4(@0)
	CPC  R23,R26
	.ENDM

	.MACRO __CPD2N
	CPI  R26,LOW(@0)
	LDI  R30,HIGH(@0)
	CPC  R27,R30
	LDI  R30,BYTE3(@0)
	CPC  R24,R30
	LDI  R30,BYTE4(@0)
	CPC  R25,R30
	.ENDM

	.MACRO __CPWRR
	CP   R@0,R@2
	CPC  R@1,R@3
	.ENDM

	.MACRO __CPWRN
	CPI  R@0,LOW(@2)
	LDI  R30,HIGH(@2)
	CPC  R@1,R30
	.ENDM

	.MACRO __ADDB1MN
	SUBI R30,LOW(-@0-(@1))
	.ENDM

	.MACRO __ADDB2MN
	SUBI R26,LOW(-@0-(@1))
	.ENDM

	.MACRO __ADDW1MN
	SUBI R30,LOW(-@0-(@1))
	SBCI R31,HIGH(-@0-(@1))
	.ENDM

	.MACRO __ADDW2MN
	SUBI R26,LOW(-@0-(@1))
	SBCI R27,HIGH(-@0-(@1))
	.ENDM

	.MACRO __ADDW1FN
	SUBI R30,LOW(-2*@0-(@1))
	SBCI R31,HIGH(-2*@0-(@1))
	.ENDM

	.MACRO __ADDD1FN
	SUBI R30,LOW(-2*@0-(@1))
	SBCI R31,HIGH(-2*@0-(@1))
	SBCI R22,BYTE3(-2*@0-(@1))
	.ENDM

	.MACRO __ADDD1N
	SUBI R30,LOW(-@0)
	SBCI R31,HIGH(-@0)
	SBCI R22,BYTE3(-@0)
	SBCI R23,BYTE4(-@0)
	.ENDM

	.MACRO __ADDD2N
	SUBI R26,LOW(-@0)
	SBCI R27,HIGH(-@0)
	SBCI R24,BYTE3(-@0)
	SBCI R25,BYTE4(-@0)
	.ENDM

	.MACRO __SUBD1N
	SUBI R30,LOW(@0)
	SBCI R31,HIGH(@0)
	SBCI R22,BYTE3(@0)
	SBCI R23,BYTE4(@0)
	.ENDM

	.MACRO __SUBD2N
	SUBI R26,LOW(@0)
	SBCI R27,HIGH(@0)
	SBCI R24,BYTE3(@0)
	SBCI R25,BYTE4(@0)
	.ENDM

	.MACRO __ANDBMNN
	LDS  R30,@0+(@1)
	ANDI R30,LOW(@2)
	STS  @0+(@1),R30
	.ENDM

	.MACRO __ANDWMNN
	LDS  R30,@0+(@1)
	ANDI R30,LOW(@2)
	STS  @0+(@1),R30
	LDS  R30,@0+(@1)+1
	ANDI R30,HIGH(@2)
	STS  @0+(@1)+1,R30
	.ENDM

	.MACRO __ANDD1N
	ANDI R30,LOW(@0)
	ANDI R31,HIGH(@0)
	ANDI R22,BYTE3(@0)
	ANDI R23,BYTE4(@0)
	.ENDM

	.MACRO __ANDD2N
	ANDI R26,LOW(@0)
	ANDI R27,HIGH(@0)
	ANDI R24,BYTE3(@0)
	ANDI R25,BYTE4(@0)
	.ENDM

	.MACRO __ORBMNN
	LDS  R30,@0+(@1)
	ORI  R30,LOW(@2)
	STS  @0+(@1),R30
	.ENDM

	.MACRO __ORWMNN
	LDS  R30,@0+(@1)
	ORI  R30,LOW(@2)
	STS  @0+(@1),R30
	LDS  R30,@0+(@1)+1
	ORI  R30,HIGH(@2)
	STS  @0+(@1)+1,R30
	.ENDM

	.MACRO __ORD1N
	ORI  R30,LOW(@0)
	ORI  R31,HIGH(@0)
	ORI  R22,BYTE3(@0)
	ORI  R23,BYTE4(@0)
	.ENDM

	.MACRO __ORD2N
	ORI  R26,LOW(@0)
	ORI  R27,HIGH(@0)
	ORI  R24,BYTE3(@0)
	ORI  R25,BYTE4(@0)
	.ENDM

	.MACRO __DELAY_USB
	LDI  R24,LOW(@0)
__DELAY_USB_LOOP:
	DEC  R24
	BRNE __DELAY_USB_LOOP
	.ENDM

	.MACRO __DELAY_USW
	LDI  R24,LOW(@0)
	LDI  R25,HIGH(@0)
__DELAY_USW_LOOP:
	SBIW R24,1
	BRNE __DELAY_USW_LOOP
	.ENDM

	.MACRO __GETD1S
	LDD  R30,Y+@0
	LDD  R31,Y+@0+1
	LDD  R22,Y+@0+2
	LDD  R23,Y+@0+3
	.ENDM

	.MACRO __GETD2S
	LDD  R26,Y+@0
	LDD  R27,Y+@0+1
	LDD  R24,Y+@0+2
	LDD  R25,Y+@0+3
	.ENDM

	.MACRO __PUTD1S
	STD  Y+@0,R30
	STD  Y+@0+1,R31
	STD  Y+@0+2,R22
	STD  Y+@0+3,R23
	.ENDM

	.MACRO __PUTD2S
	STD  Y+@0,R26
	STD  Y+@0+1,R27
	STD  Y+@0+2,R24
	STD  Y+@0+3,R25
	.ENDM

	.MACRO __PUTDZ2
	STD  Z+@0,R26
	STD  Z+@0+1,R27
	STD  Z+@0+2,R24
	STD  Z+@0+3,R25
	.ENDM

	.MACRO __CLRD1S
	STD  Y+@0,R30
	STD  Y+@0+1,R30
	STD  Y+@0+2,R30
	STD  Y+@0+3,R30
	.ENDM

	.MACRO __POINTB1MN
	LDI  R30,LOW(@0+(@1))
	.ENDM

	.MACRO __POINTW1MN
	LDI  R30,LOW(@0+(@1))
	LDI  R31,HIGH(@0+(@1))
	.ENDM

	.MACRO __POINTD1M
	LDI  R30,LOW(@0)
	LDI  R31,HIGH(@0)
	LDI  R22,BYTE3(@0)
	LDI  R23,BYTE4(@0)
	.ENDM

	.MACRO __POINTW1FN
	LDI  R30,LOW(2*@0+(@1))
	LDI  R31,HIGH(2*@0+(@1))
	.ENDM

	.MACRO __POINTD1FN
	LDI  R30,LOW(2*@0+(@1))
	LDI  R31,HIGH(2*@0+(@1))
	LDI  R22,BYTE3(2*@0+(@1))
	LDI  R23,BYTE4(2*@0+(@1))
	.ENDM

	.MACRO __POINTB2MN
	LDI  R26,LOW(@0+(@1))
	.ENDM

	.MACRO __POINTW2MN
	LDI  R26,LOW(@0+(@1))
	LDI  R27,HIGH(@0+(@1))
	.ENDM

	.MACRO __POINTW2FN
	LDI  R26,LOW(2*@0+(@1))
	LDI  R27,HIGH(2*@0+(@1))
	.ENDM

	.MACRO __POINTD2FN
	LDI  R26,LOW(2*@0+(@1))
	LDI  R27,HIGH(2*@0+(@1))
	LDI  R24,BYTE3(2*@0+(@1))
	LDI  R25,BYTE4(2*@0+(@1))
	.ENDM

	.MACRO __POINTBRM
	LDI  R@0,LOW(@1)
	.ENDM

	.MACRO __POINTWRM
	LDI  R@0,LOW(@2)
	LDI  R@1,HIGH(@2)
	.ENDM

	.MACRO __POINTBRMN
	LDI  R@0,LOW(@1+(@2))
	.ENDM

	.MACRO __POINTWRMN
	LDI  R@0,LOW(@2+(@3))
	LDI  R@1,HIGH(@2+(@3))
	.ENDM

	.MACRO __POINTWRFN
	LDI  R@0,LOW(@2*2+(@3))
	LDI  R@1,HIGH(@2*2+(@3))
	.ENDM

	.MACRO __GETD1N
	LDI  R30,LOW(@0)
	LDI  R31,HIGH(@0)
	LDI  R22,BYTE3(@0)
	LDI  R23,BYTE4(@0)
	.ENDM

	.MACRO __GETD2N
	LDI  R26,LOW(@0)
	LDI  R27,HIGH(@0)
	LDI  R24,BYTE3(@0)
	LDI  R25,BYTE4(@0)
	.ENDM

	.MACRO __GETB1MN
	LDS  R30,@0+(@1)
	.ENDM

	.MACRO __GETB1HMN
	LDS  R31,@0+(@1)
	.ENDM

	.MACRO __GETW1MN
	LDS  R30,@0+(@1)
	LDS  R31,@0+(@1)+1
	.ENDM

	.MACRO __GETD1MN
	LDS  R30,@0+(@1)
	LDS  R31,@0+(@1)+1
	LDS  R22,@0+(@1)+2
	LDS  R23,@0+(@1)+3
	.ENDM

	.MACRO __GETBRMN
	LDS  R@0,@1+(@2)
	.ENDM

	.MACRO __GETWRMN
	LDS  R@0,@2+(@3)
	LDS  R@1,@2+(@3)+1
	.ENDM

	.MACRO __GETWRZ
	LDD  R@0,Z+@2
	LDD  R@1,Z+@2+1
	.ENDM

	.MACRO __GETD2Z
	LDD  R26,Z+@0
	LDD  R27,Z+@0+1
	LDD  R24,Z+@0+2
	LDD  R25,Z+@0+3
	.ENDM

	.MACRO __GETB2MN
	LDS  R26,@0+(@1)
	.ENDM

	.MACRO __GETW2MN
	LDS  R26,@0+(@1)
	LDS  R27,@0+(@1)+1
	.ENDM

	.MACRO __GETD2MN
	LDS  R26,@0+(@1)
	LDS  R27,@0+(@1)+1
	LDS  R24,@0+(@1)+2
	LDS  R25,@0+(@1)+3
	.ENDM

	.MACRO __PUTB1MN
	STS  @0+(@1),R30
	.ENDM

	.MACRO __PUTW1MN
	STS  @0+(@1),R30
	STS  @0+(@1)+1,R31
	.ENDM

	.MACRO __PUTD1MN
	STS  @0+(@1),R30
	STS  @0+(@1)+1,R31
	STS  @0+(@1)+2,R22
	STS  @0+(@1)+3,R23
	.ENDM

	.MACRO __PUTB1EN
	LDI  R26,LOW(@0+(@1))
	LDI  R27,HIGH(@0+(@1))
	CALL __EEPROMWRB
	.ENDM

	.MACRO __PUTW1EN
	LDI  R26,LOW(@0+(@1))
	LDI  R27,HIGH(@0+(@1))
	CALL __EEPROMWRW
	.ENDM

	.MACRO __PUTD1EN
	LDI  R26,LOW(@0+(@1))
	LDI  R27,HIGH(@0+(@1))
	CALL __EEPROMWRD
	.ENDM

	.MACRO __PUTBR0MN
	STS  @0+(@1),R0
	.ENDM

	.MACRO __PUTBMRN
	STS  @0+(@1),R@2
	.ENDM

	.MACRO __PUTWMRN
	STS  @0+(@1),R@2
	STS  @0+(@1)+1,R@3
	.ENDM

	.MACRO __PUTBZR
	STD  Z+@1,R@0
	.ENDM

	.MACRO __PUTWZR
	STD  Z+@2,R@0
	STD  Z+@2+1,R@1
	.ENDM

	.MACRO __GETW1R
	MOV  R30,R@0
	MOV  R31,R@1
	.ENDM

	.MACRO __GETW2R
	MOV  R26,R@0
	MOV  R27,R@1
	.ENDM

	.MACRO __GETWRN
	LDI  R@0,LOW(@2)
	LDI  R@1,HIGH(@2)
	.ENDM

	.MACRO __PUTW1R
	MOV  R@0,R30
	MOV  R@1,R31
	.ENDM

	.MACRO __PUTW2R
	MOV  R@0,R26
	MOV  R@1,R27
	.ENDM

	.MACRO __ADDWRN
	SUBI R@0,LOW(-@2)
	SBCI R@1,HIGH(-@2)
	.ENDM

	.MACRO __ADDWRR
	ADD  R@0,R@2
	ADC  R@1,R@3
	.ENDM

	.MACRO __SUBWRN
	SUBI R@0,LOW(@2)
	SBCI R@1,HIGH(@2)
	.ENDM

	.MACRO __SUBWRR
	SUB  R@0,R@2
	SBC  R@1,R@3
	.ENDM

	.MACRO __ANDWRN
	ANDI R@0,LOW(@2)
	ANDI R@1,HIGH(@2)
	.ENDM

	.MACRO __ANDWRR
	AND  R@0,R@2
	AND  R@1,R@3
	.ENDM

	.MACRO __ORWRN
	ORI  R@0,LOW(@2)
	ORI  R@1,HIGH(@2)
	.ENDM

	.MACRO __ORWRR
	OR   R@0,R@2
	OR   R@1,R@3
	.ENDM

	.MACRO __EORWRR
	EOR  R@0,R@2
	EOR  R@1,R@3
	.ENDM

	.MACRO __GETWRS
	LDD  R@0,Y+@2
	LDD  R@1,Y+@2+1
	.ENDM

	.MACRO __PUTBSR
	STD  Y+@1,R@0
	.ENDM

	.MACRO __PUTWSR
	STD  Y+@2,R@0
	STD  Y+@2+1,R@1
	.ENDM

	.MACRO __MOVEWRR
	MOV  R@0,R@2
	MOV  R@1,R@3
	.ENDM

	.MACRO __INWR
	IN   R@0,@2
	IN   R@1,@2+1
	.ENDM

	.MACRO __OUTWR
	OUT  @2+1,R@1
	OUT  @2,R@0
	.ENDM

	.MACRO __CALL1MN
	LDS  R30,@0+(@1)
	LDS  R31,@0+(@1)+1
	ICALL
	.ENDM

	.MACRO __CALL1FN
	LDI  R30,LOW(2*@0+(@1))
	LDI  R31,HIGH(2*@0+(@1))
	CALL __GETW1PF
	ICALL
	.ENDM

	.MACRO __CALL2EN
	PUSH R26
	PUSH R27
	LDI  R26,LOW(@0+(@1))
	LDI  R27,HIGH(@0+(@1))
	CALL __EEPROMRDW
	POP  R27
	POP  R26
	ICALL
	.ENDM

	.MACRO __CALL2EX
	SUBI R26,LOW(-@0)
	SBCI R27,HIGH(-@0)
	CALL __EEPROMRDD
	ICALL
	.ENDM

	.MACRO __GETW1STACK
	IN   R30,SPL
	IN   R31,SPH
	ADIW R30,@0+1
	LD   R0,Z+
	LD   R31,Z
	MOV  R30,R0
	.ENDM

	.MACRO __GETD1STACK
	IN   R30,SPL
	IN   R31,SPH
	ADIW R30,@0+1
	LD   R0,Z+
	LD   R1,Z+
	LD   R22,Z
	MOVW R30,R0
	.ENDM

	.MACRO __NBST
	BST  R@0,@1
	IN   R30,SREG
	LDI  R31,0x40
	EOR  R30,R31
	OUT  SREG,R30
	.ENDM


	.MACRO __PUTB1SN
	LDD  R26,Y+@0
	LDD  R27,Y+@0+1
	SUBI R26,LOW(-@1)
	SBCI R27,HIGH(-@1)
	ST   X,R30
	.ENDM

	.MACRO __PUTW1SN
	LDD  R26,Y+@0
	LDD  R27,Y+@0+1
	SUBI R26,LOW(-@1)
	SBCI R27,HIGH(-@1)
	ST   X+,R30
	ST   X,R31
	.ENDM

	.MACRO __PUTD1SN
	LDD  R26,Y+@0
	LDD  R27,Y+@0+1
	SUBI R26,LOW(-@1)
	SBCI R27,HIGH(-@1)
	CALL __PUTDP1
	.ENDM

	.MACRO __PUTB1SNS
	LDD  R26,Y+@0
	LDD  R27,Y+@0+1
	ADIW R26,@1
	ST   X,R30
	.ENDM

	.MACRO __PUTW1SNS
	LDD  R26,Y+@0
	LDD  R27,Y+@0+1
	ADIW R26,@1
	ST   X+,R30
	ST   X,R31
	.ENDM

	.MACRO __PUTD1SNS
	LDD  R26,Y+@0
	LDD  R27,Y+@0+1
	ADIW R26,@1
	CALL __PUTDP1
	.ENDM

	.MACRO __PUTB1PMN
	LDS  R26,@0
	LDS  R27,@0+1
	SUBI R26,LOW(-@1)
	SBCI R27,HIGH(-@1)
	ST   X,R30
	.ENDM

	.MACRO __PUTW1PMN
	LDS  R26,@0
	LDS  R27,@0+1
	SUBI R26,LOW(-@1)
	SBCI R27,HIGH(-@1)
	ST   X+,R30
	ST   X,R31
	.ENDM

	.MACRO __PUTD1PMN
	LDS  R26,@0
	LDS  R27,@0+1
	SUBI R26,LOW(-@1)
	SBCI R27,HIGH(-@1)
	CALL __PUTDP1
	.ENDM

	.MACRO __PUTB1PMNS
	LDS  R26,@0
	LDS  R27,@0+1
	ADIW R26,@1
	ST   X,R30
	.ENDM

	.MACRO __PUTW1PMNS
	LDS  R26,@0
	LDS  R27,@0+1
	ADIW R26,@1
	ST   X+,R30
	ST   X,R31
	.ENDM

	.MACRO __PUTD1PMNS
	LDS  R26,@0
	LDS  R27,@0+1
	ADIW R26,@1
	CALL __PUTDP1
	.ENDM

	.MACRO __PUTB1RN
	MOVW R26,R@0
	SUBI R26,LOW(-@1)
	SBCI R27,HIGH(-@1)
	ST   X,R30
	.ENDM

	.MACRO __PUTW1RN
	MOVW R26,R@0
	SUBI R26,LOW(-@1)
	SBCI R27,HIGH(-@1)
	ST   X+,R30
	ST   X,R31
	.ENDM

	.MACRO __PUTD1RN
	MOVW R26,R@0
	SUBI R26,LOW(-@1)
	SBCI R27,HIGH(-@1)
	CALL __PUTDP1
	.ENDM

	.MACRO __PUTB1RNS
	MOVW R26,R@0
	ADIW R26,@1
	ST   X,R30
	.ENDM

	.MACRO __PUTW1RNS
	MOVW R26,R@0
	ADIW R26,@1
	ST   X+,R30
	ST   X,R31
	.ENDM

	.MACRO __PUTD1RNS
	MOVW R26,R@0
	ADIW R26,@1
	CALL __PUTDP1
	.ENDM

	.MACRO __PUTB1RON
	MOV  R26,R@0
	MOV  R27,R@1
	SUBI R26,LOW(-@2)
	SBCI R27,HIGH(-@2)
	ST   X,R30
	.ENDM

	.MACRO __PUTW1RON
	MOV  R26,R@0
	MOV  R27,R@1
	SUBI R26,LOW(-@2)
	SBCI R27,HIGH(-@2)
	ST   X+,R30
	ST   X,R31
	.ENDM

	.MACRO __PUTD1RON
	MOV  R26,R@0
	MOV  R27,R@1
	SUBI R26,LOW(-@2)
	SBCI R27,HIGH(-@2)
	CALL __PUTDP1
	.ENDM

	.MACRO __PUTB1RONS
	MOV  R26,R@0
	MOV  R27,R@1
	ADIW R26,@2
	ST   X,R30
	.ENDM

	.MACRO __PUTW1RONS
	MOV  R26,R@0
	MOV  R27,R@1
	ADIW R26,@2
	ST   X+,R30
	ST   X,R31
	.ENDM

	.MACRO __PUTD1RONS
	MOV  R26,R@0
	MOV  R27,R@1
	ADIW R26,@2
	CALL __PUTDP1
	.ENDM


	.MACRO __GETB1SX
	MOVW R30,R28
	SUBI R30,LOW(-@0)
	SBCI R31,HIGH(-@0)
	LD   R30,Z
	.ENDM

	.MACRO __GETB1HSX
	MOVW R30,R28
	SUBI R30,LOW(-@0)
	SBCI R31,HIGH(-@0)
	LD   R31,Z
	.ENDM

	.MACRO __GETW1SX
	MOVW R30,R28
	SUBI R30,LOW(-@0)
	SBCI R31,HIGH(-@0)
	LD   R0,Z+
	LD   R31,Z
	MOV  R30,R0
	.ENDM

	.MACRO __GETD1SX
	MOVW R30,R28
	SUBI R30,LOW(-@0)
	SBCI R31,HIGH(-@0)
	LD   R0,Z+
	LD   R1,Z+
	LD   R22,Z+
	LD   R23,Z
	MOVW R30,R0
	.ENDM

	.MACRO __GETB2SX
	MOVW R26,R28
	SUBI R26,LOW(-@0)
	SBCI R27,HIGH(-@0)
	LD   R26,X
	.ENDM

	.MACRO __GETW2SX
	MOVW R26,R28
	SUBI R26,LOW(-@0)
	SBCI R27,HIGH(-@0)
	LD   R0,X+
	LD   R27,X
	MOV  R26,R0
	.ENDM

	.MACRO __GETD2SX
	MOVW R26,R28
	SUBI R26,LOW(-@0)
	SBCI R27,HIGH(-@0)
	LD   R0,X+
	LD   R1,X+
	LD   R24,X+
	LD   R25,X
	MOVW R26,R0
	.ENDM

	.MACRO __GETBRSX
	MOVW R30,R28
	SUBI R30,LOW(-@1)
	SBCI R31,HIGH(-@1)
	LD   R@0,Z
	.ENDM

	.MACRO __GETWRSX
	MOVW R30,R28
	SUBI R30,LOW(-@2)
	SBCI R31,HIGH(-@2)
	LD   R@0,Z+
	LD   R@1,Z
	.ENDM

	.MACRO __GETBRSX2
	MOVW R26,R28
	SUBI R26,LOW(-@1)
	SBCI R27,HIGH(-@1)
	LD   R@0,X
	.ENDM

	.MACRO __GETWRSX2
	MOVW R26,R28
	SUBI R26,LOW(-@2)
	SBCI R27,HIGH(-@2)
	LD   R@0,X+
	LD   R@1,X
	.ENDM

	.MACRO __LSLW8SX
	MOVW R30,R28
	SUBI R30,LOW(-@0)
	SBCI R31,HIGH(-@0)
	LD   R31,Z
	CLR  R30
	.ENDM

	.MACRO __PUTB1SX
	MOVW R26,R28
	SUBI R26,LOW(-@0)
	SBCI R27,HIGH(-@0)
	ST   X,R30
	.ENDM

	.MACRO __PUTW1SX
	MOVW R26,R28
	SUBI R26,LOW(-@0)
	SBCI R27,HIGH(-@0)
	ST   X+,R30
	ST   X,R31
	.ENDM

	.MACRO __PUTD1SX
	MOVW R26,R28
	SUBI R26,LOW(-@0)
	SBCI R27,HIGH(-@0)
	ST   X+,R30
	ST   X+,R31
	ST   X+,R22
	ST   X,R23
	.ENDM

	.MACRO __CLRW1SX
	MOVW R26,R28
	SUBI R26,LOW(-@0)
	SBCI R27,HIGH(-@0)
	ST   X+,R30
	ST   X,R30
	.ENDM

	.MACRO __CLRD1SX
	MOVW R26,R28
	SUBI R26,LOW(-@0)
	SBCI R27,HIGH(-@0)
	ST   X+,R30
	ST   X+,R30
	ST   X+,R30
	ST   X,R30
	.ENDM

	.MACRO __PUTB2SX
	MOVW R30,R28
	SUBI R30,LOW(-@0)
	SBCI R31,HIGH(-@0)
	ST   Z,R26
	.ENDM

	.MACRO __PUTW2SX
	MOVW R30,R28
	SUBI R30,LOW(-@0)
	SBCI R31,HIGH(-@0)
	ST   Z+,R26
	ST   Z,R27
	.ENDM

	.MACRO __PUTD2SX
	MOVW R30,R28
	SUBI R30,LOW(-@0)
	SBCI R31,HIGH(-@0)
	ST   Z+,R26
	ST   Z+,R27
	ST   Z+,R24
	ST   Z,R25
	.ENDM

	.MACRO __PUTBSRX
	MOVW R30,R28
	SUBI R30,LOW(-@1)
	SBCI R31,HIGH(-@1)
	ST   Z,R@0
	.ENDM

	.MACRO __PUTWSRX
	MOVW R30,R28
	SUBI R30,LOW(-@2)
	SBCI R31,HIGH(-@2)
	ST   Z+,R@0
	ST   Z,R@1
	.ENDM

	.MACRO __PUTB1SNX
	MOVW R26,R28
	SUBI R26,LOW(-@0)
	SBCI R27,HIGH(-@0)
	LD   R0,X+
	LD   R27,X
	MOV  R26,R0
	SUBI R26,LOW(-@1)
	SBCI R27,HIGH(-@1)
	ST   X,R30
	.ENDM

	.MACRO __PUTW1SNX
	MOVW R26,R28
	SUBI R26,LOW(-@0)
	SBCI R27,HIGH(-@0)
	LD   R0,X+
	LD   R27,X
	MOV  R26,R0
	SUBI R26,LOW(-@1)
	SBCI R27,HIGH(-@1)
	ST   X+,R30
	ST   X,R31
	.ENDM

	.MACRO __PUTD1SNX
	MOVW R26,R28
	SUBI R26,LOW(-@0)
	SBCI R27,HIGH(-@0)
	LD   R0,X+
	LD   R27,X
	MOV  R26,R0
	SUBI R26,LOW(-@1)
	SBCI R27,HIGH(-@1)
	ST   X+,R30
	ST   X+,R31
	ST   X+,R22
	ST   X,R23
	.ENDM

	.MACRO __MULBRR
	MULS R@0,R@1
	MOVW R30,R0
	.ENDM

	.MACRO __MULBRRU
	MUL  R@0,R@1
	MOVW R30,R0
	.ENDM

	.MACRO __MULBRR0
	MULS R@0,R@1
	.ENDM

	.MACRO __MULBRRU0
	MUL  R@0,R@1
	.ENDM

	.MACRO __MULBNWRU
	LDI  R26,@2
	MUL  R26,R@0
	MOVW R30,R0
	MUL  R26,R@1
	ADD  R31,R0
	.ENDM

;GPIOR0 INITIALIZATION VALUE
	.EQU __GPIOR0_INIT=0x00

	.CSEG
	.ORG 0x00

;START OF CODE MARKER
__START_OF_CODE:

;INTERRUPT VECTORS
	JMP  __RESET
	JMP  0x00
	JMP  0x00
	JMP  0x00
	JMP  0x00
	JMP  0x00
	JMP  0x00
	JMP  0x00
	JMP  0x00
	JMP  0x00
	JMP  0x00
	JMP  0x00
	JMP  0x00
	JMP  _timer2_compa_isr
	JMP  0x00
	JMP  0x00
	JMP  0x00
	JMP  _timer1_compa_isr
	JMP  0x00
	JMP  0x00
	JMP  0x00
	JMP  _timer0_compa_isr
	JMP  0x00
	JMP  0x00
	JMP  0x00
	JMP  0x00
	JMP  0x00
	JMP  0x00
	JMP  0x00
	JMP  0x00
	JMP  0x00
	JMP  0x00
	JMP  0x00
	JMP  0x00
	JMP  0x00
	JMP  0x00
	JMP  0x00
	JMP  0x00

_sbox:
	.DB  0x63,0x7C,0x77,0x7B,0xF2,0x6B,0x6F,0xC5
	.DB  0x30,0x1,0x67,0x2B,0xFE,0xD7,0xAB,0x76
	.DB  0xCA,0x82,0xC9,0x7D,0xFA,0x59,0x47,0xF0
	.DB  0xAD,0xD4,0xA2,0xAF,0x9C,0xA4,0x72,0xC0
	.DB  0xB7,0xFD,0x93,0x26,0x36,0x3F,0xF7,0xCC
	.DB  0x34,0xA5,0xE5,0xF1,0x71,0xD8,0x31,0x15
	.DB  0x4,0xC7,0x23,0xC3,0x18,0x96,0x5,0x9A
	.DB  0x7,0x12,0x80,0xE2,0xEB,0x27,0xB2,0x75
	.DB  0x9,0x83,0x2C,0x1A,0x1B,0x6E,0x5A,0xA0
	.DB  0x52,0x3B,0xD6,0xB3,0x29,0xE3,0x2F,0x84
	.DB  0x53,0xD1,0x0,0xED,0x20,0xFC,0xB1,0x5B
	.DB  0x6A,0xCB,0xBE,0x39,0x4A,0x4C,0x58,0xCF
	.DB  0xD0,0xEF,0xAA,0xFB,0x43,0x4D,0x33,0x85
	.DB  0x45,0xF9,0x2,0x7F,0x50,0x3C,0x9F,0xA8
	.DB  0x51,0xA3,0x40,0x8F,0x92,0x9D,0x38,0xF5
	.DB  0xBC,0xB6,0xDA,0x21,0x10,0xFF,0xF3,0xD2
	.DB  0xCD,0xC,0x13,0xEC,0x5F,0x97,0x44,0x17
	.DB  0xC4,0xA7,0x7E,0x3D,0x64,0x5D,0x19,0x73
	.DB  0x60,0x81,0x4F,0xDC,0x22,0x2A,0x90,0x88
	.DB  0x46,0xEE,0xB8,0x14,0xDE,0x5E,0xB,0xDB
	.DB  0xE0,0x32,0x3A,0xA,0x49,0x6,0x24,0x5C
	.DB  0xC2,0xD3,0xAC,0x62,0x91,0x95,0xE4,0x79
	.DB  0xE7,0xC8,0x37,0x6D,0x8D,0xD5,0x4E,0xA9
	.DB  0x6C,0x56,0xF4,0xEA,0x65,0x7A,0xAE,0x8
	.DB  0xBA,0x78,0x25,0x2E,0x1C,0xA6,0xB4,0xC6
	.DB  0xE8,0xDD,0x74,0x1F,0x4B,0xBD,0x8B,0x8A
	.DB  0x70,0x3E,0xB5,0x66,0x48,0x3,0xF6,0xE
	.DB  0x61,0x35,0x57,0xB9,0x86,0xC1,0x1D,0x9E
	.DB  0xE1,0xF8,0x98,0x11,0x69,0xD9,0x8E,0x94
	.DB  0x9B,0x1E,0x87,0xE9,0xCE,0x55,0x28,0xDF
	.DB  0x8C,0xA1,0x89,0xD,0xBF,0xE6,0x42,0x68
	.DB  0x41,0x99,0x2D,0xF,0xB0,0x54,0xBB,0x16
_rsbox:
	.DB  0x52,0x9,0x6A,0xD5,0x30,0x36,0xA5,0x38
	.DB  0xBF,0x40,0xA3,0x9E,0x81,0xF3,0xD7,0xFB
	.DB  0x7C,0xE3,0x39,0x82,0x9B,0x2F,0xFF,0x87
	.DB  0x34,0x8E,0x43,0x44,0xC4,0xDE,0xE9,0xCB
	.DB  0x54,0x7B,0x94,0x32,0xA6,0xC2,0x23,0x3D
	.DB  0xEE,0x4C,0x95,0xB,0x42,0xFA,0xC3,0x4E
	.DB  0x8,0x2E,0xA1,0x66,0x28,0xD9,0x24,0xB2
	.DB  0x76,0x5B,0xA2,0x49,0x6D,0x8B,0xD1,0x25
	.DB  0x72,0xF8,0xF6,0x64,0x86,0x68,0x98,0x16
	.DB  0xD4,0xA4,0x5C,0xCC,0x5D,0x65,0xB6,0x92
	.DB  0x6C,0x70,0x48,0x50,0xFD,0xED,0xB9,0xDA
	.DB  0x5E,0x15,0x46,0x57,0xA7,0x8D,0x9D,0x84
	.DB  0x90,0xD8,0xAB,0x0,0x8C,0xBC,0xD3,0xA
	.DB  0xF7,0xE4,0x58,0x5,0xB8,0xB3,0x45,0x6
	.DB  0xD0,0x2C,0x1E,0x8F,0xCA,0x3F,0xF,0x2
	.DB  0xC1,0xAF,0xBD,0x3,0x1,0x13,0x8A,0x6B
	.DB  0x3A,0x91,0x11,0x41,0x4F,0x67,0xDC,0xEA
	.DB  0x97,0xF2,0xCF,0xCE,0xF0,0xB4,0xE6,0x73
	.DB  0x96,0xAC,0x74,0x22,0xE7,0xAD,0x35,0x85
	.DB  0xE2,0xF9,0x37,0xE8,0x1C,0x75,0xDF,0x6E
	.DB  0x47,0xF1,0x1A,0x71,0x1D,0x29,0xC5,0x89
	.DB  0x6F,0xB7,0x62,0xE,0xAA,0x18,0xBE,0x1B
	.DB  0xFC,0x56,0x3E,0x4B,0xC6,0xD2,0x79,0x20
	.DB  0x9A,0xDB,0xC0,0xFE,0x78,0xCD,0x5A,0xF4
	.DB  0x1F,0xDD,0xA8,0x33,0x88,0x7,0xC7,0x31
	.DB  0xB1,0x12,0x10,0x59,0x27,0x80,0xEC,0x5F
	.DB  0x60,0x51,0x7F,0xA9,0x19,0xB5,0x4A,0xD
	.DB  0x2D,0xE5,0x7A,0x9F,0x93,0xC9,0x9C,0xEF
	.DB  0xA0,0xE0,0x3B,0x4D,0xAE,0x2A,0xF5,0xB0
	.DB  0xC8,0xEB,0xBB,0x3C,0x83,0x53,0x99,0x61
	.DB  0x17,0x2B,0x4,0x7E,0xBA,0x77,0xD6,0x26
	.DB  0xE1,0x69,0x14,0x63,0x55,0x21,0xC,0x7D
_rcon:
	.DB  0x8D,0x1,0x2,0x4,0x8,0x10,0x20,0x40
	.DB  0x80,0x1B,0x36
_x2:
	.DB  0x0,0x2,0x4,0x6,0x8,0xA,0xC,0xE
	.DB  0x10,0x12,0x14,0x16,0x18,0x1A,0x1C,0x1E
	.DB  0x20,0x22,0x24,0x26,0x28,0x2A,0x2C,0x2E
	.DB  0x30,0x32,0x34,0x36,0x38,0x3A,0x3C,0x3E
	.DB  0x40,0x42,0x44,0x46,0x48,0x4A,0x4C,0x4E
	.DB  0x50,0x52,0x54,0x56,0x58,0x5A,0x5C,0x5E
	.DB  0x60,0x62,0x64,0x66,0x68,0x6A,0x6C,0x6E
	.DB  0x70,0x72,0x74,0x76,0x78,0x7A,0x7C,0x7E
	.DB  0x80,0x82,0x84,0x86,0x88,0x8A,0x8C,0x8E
	.DB  0x90,0x92,0x94,0x96,0x98,0x9A,0x9C,0x9E
	.DB  0xA0,0xA2,0xA4,0xA6,0xA8,0xAA,0xAC,0xAE
	.DB  0xB0,0xB2,0xB4,0xB6,0xB8,0xBA,0xBC,0xBE
	.DB  0xC0,0xC2,0xC4,0xC6,0xC8,0xCA,0xCC,0xCE
	.DB  0xD0,0xD2,0xD4,0xD6,0xD8,0xDA,0xDC,0xDE
	.DB  0xE0,0xE2,0xE4,0xE6,0xE8,0xEA,0xEC,0xEE
	.DB  0xF0,0xF2,0xF4,0xF6,0xF8,0xFA,0xFC,0xFE
	.DB  0x1B,0x19,0x1F,0x1D,0x13,0x11,0x17,0x15
	.DB  0xB,0x9,0xF,0xD,0x3,0x1,0x7,0x5
	.DB  0x3B,0x39,0x3F,0x3D,0x33,0x31,0x37,0x35
	.DB  0x2B,0x29,0x2F,0x2D,0x23,0x21,0x27,0x25
	.DB  0x5B,0x59,0x5F,0x5D,0x53,0x51,0x57,0x55
	.DB  0x4B,0x49,0x4F,0x4D,0x43,0x41,0x47,0x45
	.DB  0x7B,0x79,0x7F,0x7D,0x73,0x71,0x77,0x75
	.DB  0x6B,0x69,0x6F,0x6D,0x63,0x61,0x67,0x65
	.DB  0x9B,0x99,0x9F,0x9D,0x93,0x91,0x97,0x95
	.DB  0x8B,0x89,0x8F,0x8D,0x83,0x81,0x87,0x85
	.DB  0xBB,0xB9,0xBF,0xBD,0xB3,0xB1,0xB7,0xB5
	.DB  0xAB,0xA9,0xAF,0xAD,0xA3,0xA1,0xA7,0xA5
	.DB  0xDB,0xD9,0xDF,0xDD,0xD3,0xD1,0xD7,0xD5
	.DB  0xCB,0xC9,0xCF,0xCD,0xC3,0xC1,0xC7,0xC5
	.DB  0xFB,0xF9,0xFF,0xFD,0xF3,0xF1,0xF7,0xF5
	.DB  0xEB,0xE9,0xEF,0xED,0xE3,0xE1,0xE7,0xE5
_x3:
	.DB  0x0,0x3,0x6,0x5,0xC,0xF,0xA,0x9
	.DB  0x18,0x1B,0x1E,0x1D,0x14,0x17,0x12,0x11
	.DB  0x30,0x33,0x36,0x35,0x3C,0x3F,0x3A,0x39
	.DB  0x28,0x2B,0x2E,0x2D,0x24,0x27,0x22,0x21
	.DB  0x60,0x63,0x66,0x65,0x6C,0x6F,0x6A,0x69
	.DB  0x78,0x7B,0x7E,0x7D,0x74,0x77,0x72,0x71
	.DB  0x50,0x53,0x56,0x55,0x5C,0x5F,0x5A,0x59
	.DB  0x48,0x4B,0x4E,0x4D,0x44,0x47,0x42,0x41
	.DB  0xC0,0xC3,0xC6,0xC5,0xCC,0xCF,0xCA,0xC9
	.DB  0xD8,0xDB,0xDE,0xDD,0xD4,0xD7,0xD2,0xD1
	.DB  0xF0,0xF3,0xF6,0xF5,0xFC,0xFF,0xFA,0xF9
	.DB  0xE8,0xEB,0xEE,0xED,0xE4,0xE7,0xE2,0xE1
	.DB  0xA0,0xA3,0xA6,0xA5,0xAC,0xAF,0xAA,0xA9
	.DB  0xB8,0xBB,0xBE,0xBD,0xB4,0xB7,0xB2,0xB1
	.DB  0x90,0x93,0x96,0x95,0x9C,0x9F,0x9A,0x99
	.DB  0x88,0x8B,0x8E,0x8D,0x84,0x87,0x82,0x81
	.DB  0x9B,0x98,0x9D,0x9E,0x97,0x94,0x91,0x92
	.DB  0x83,0x80,0x85,0x86,0x8F,0x8C,0x89,0x8A
	.DB  0xAB,0xA8,0xAD,0xAE,0xA7,0xA4,0xA1,0xA2
	.DB  0xB3,0xB0,0xB5,0xB6,0xBF,0xBC,0xB9,0xBA
	.DB  0xFB,0xF8,0xFD,0xFE,0xF7,0xF4,0xF1,0xF2
	.DB  0xE3,0xE0,0xE5,0xE6,0xEF,0xEC,0xE9,0xEA
	.DB  0xCB,0xC8,0xCD,0xCE,0xC7,0xC4,0xC1,0xC2
	.DB  0xD3,0xD0,0xD5,0xD6,0xDF,0xDC,0xD9,0xDA
	.DB  0x5B,0x58,0x5D,0x5E,0x57,0x54,0x51,0x52
	.DB  0x43,0x40,0x45,0x46,0x4F,0x4C,0x49,0x4A
	.DB  0x6B,0x68,0x6D,0x6E,0x67,0x64,0x61,0x62
	.DB  0x73,0x70,0x75,0x76,0x7F,0x7C,0x79,0x7A
	.DB  0x3B,0x38,0x3D,0x3E,0x37,0x34,0x31,0x32
	.DB  0x23,0x20,0x25,0x26,0x2F,0x2C,0x29,0x2A
	.DB  0xB,0x8,0xD,0xE,0x7,0x4,0x1,0x2
	.DB  0x13,0x10,0x15,0x16,0x1F,0x1C,0x19,0x1A
_x9:
	.DB  0x0,0x9,0x12,0x1B,0x24,0x2D,0x36,0x3F
	.DB  0x48,0x41,0x5A,0x53,0x6C,0x65,0x7E,0x77
	.DB  0x90,0x99,0x82,0x8B,0xB4,0xBD,0xA6,0xAF
	.DB  0xD8,0xD1,0xCA,0xC3,0xFC,0xF5,0xEE,0xE7
	.DB  0x3B,0x32,0x29,0x20,0x1F,0x16,0xD,0x4
	.DB  0x73,0x7A,0x61,0x68,0x57,0x5E,0x45,0x4C
	.DB  0xAB,0xA2,0xB9,0xB0,0x8F,0x86,0x9D,0x94
	.DB  0xE3,0xEA,0xF1,0xF8,0xC7,0xCE,0xD5,0xDC
	.DB  0x76,0x7F,0x64,0x6D,0x52,0x5B,0x40,0x49
	.DB  0x3E,0x37,0x2C,0x25,0x1A,0x13,0x8,0x1
	.DB  0xE6,0xEF,0xF4,0xFD,0xC2,0xCB,0xD0,0xD9
	.DB  0xAE,0xA7,0xBC,0xB5,0x8A,0x83,0x98,0x91
	.DB  0x4D,0x44,0x5F,0x56,0x69,0x60,0x7B,0x72
	.DB  0x5,0xC,0x17,0x1E,0x21,0x28,0x33,0x3A
	.DB  0xDD,0xD4,0xCF,0xC6,0xF9,0xF0,0xEB,0xE2
	.DB  0x95,0x9C,0x87,0x8E,0xB1,0xB8,0xA3,0xAA
	.DB  0xEC,0xE5,0xFE,0xF7,0xC8,0xC1,0xDA,0xD3
	.DB  0xA4,0xAD,0xB6,0xBF,0x80,0x89,0x92,0x9B
	.DB  0x7C,0x75,0x6E,0x67,0x58,0x51,0x4A,0x43
	.DB  0x34,0x3D,0x26,0x2F,0x10,0x19,0x2,0xB
	.DB  0xD7,0xDE,0xC5,0xCC,0xF3,0xFA,0xE1,0xE8
	.DB  0x9F,0x96,0x8D,0x84,0xBB,0xB2,0xA9,0xA0
	.DB  0x47,0x4E,0x55,0x5C,0x63,0x6A,0x71,0x78
	.DB  0xF,0x6,0x1D,0x14,0x2B,0x22,0x39,0x30
	.DB  0x9A,0x93,0x88,0x81,0xBE,0xB7,0xAC,0xA5
	.DB  0xD2,0xDB,0xC0,0xC9,0xF6,0xFF,0xE4,0xED
	.DB  0xA,0x3,0x18,0x11,0x2E,0x27,0x3C,0x35
	.DB  0x42,0x4B,0x50,0x59,0x66,0x6F,0x74,0x7D
	.DB  0xA1,0xA8,0xB3,0xBA,0x85,0x8C,0x97,0x9E
	.DB  0xE9,0xE0,0xFB,0xF2,0xCD,0xC4,0xDF,0xD6
	.DB  0x31,0x38,0x23,0x2A,0x15,0x1C,0x7,0xE
	.DB  0x79,0x70,0x6B,0x62,0x5D,0x54,0x4F,0x46
_x11:
	.DB  0x0,0xB,0x16,0x1D,0x2C,0x27,0x3A,0x31
	.DB  0x58,0x53,0x4E,0x45,0x74,0x7F,0x62,0x69
	.DB  0xB0,0xBB,0xA6,0xAD,0x9C,0x97,0x8A,0x81
	.DB  0xE8,0xE3,0xFE,0xF5,0xC4,0xCF,0xD2,0xD9
	.DB  0x7B,0x70,0x6D,0x66,0x57,0x5C,0x41,0x4A
	.DB  0x23,0x28,0x35,0x3E,0xF,0x4,0x19,0x12
	.DB  0xCB,0xC0,0xDD,0xD6,0xE7,0xEC,0xF1,0xFA
	.DB  0x93,0x98,0x85,0x8E,0xBF,0xB4,0xA9,0xA2
	.DB  0xF6,0xFD,0xE0,0xEB,0xDA,0xD1,0xCC,0xC7
	.DB  0xAE,0xA5,0xB8,0xB3,0x82,0x89,0x94,0x9F
	.DB  0x46,0x4D,0x50,0x5B,0x6A,0x61,0x7C,0x77
	.DB  0x1E,0x15,0x8,0x3,0x32,0x39,0x24,0x2F
	.DB  0x8D,0x86,0x9B,0x90,0xA1,0xAA,0xB7,0xBC
	.DB  0xD5,0xDE,0xC3,0xC8,0xF9,0xF2,0xEF,0xE4
	.DB  0x3D,0x36,0x2B,0x20,0x11,0x1A,0x7,0xC
	.DB  0x65,0x6E,0x73,0x78,0x49,0x42,0x5F,0x54
	.DB  0xF7,0xFC,0xE1,0xEA,0xDB,0xD0,0xCD,0xC6
	.DB  0xAF,0xA4,0xB9,0xB2,0x83,0x88,0x95,0x9E
	.DB  0x47,0x4C,0x51,0x5A,0x6B,0x60,0x7D,0x76
	.DB  0x1F,0x14,0x9,0x2,0x33,0x38,0x25,0x2E
	.DB  0x8C,0x87,0x9A,0x91,0xA0,0xAB,0xB6,0xBD
	.DB  0xD4,0xDF,0xC2,0xC9,0xF8,0xF3,0xEE,0xE5
	.DB  0x3C,0x37,0x2A,0x21,0x10,0x1B,0x6,0xD
	.DB  0x64,0x6F,0x72,0x79,0x48,0x43,0x5E,0x55
	.DB  0x1,0xA,0x17,0x1C,0x2D,0x26,0x3B,0x30
	.DB  0x59,0x52,0x4F,0x44,0x75,0x7E,0x63,0x68
	.DB  0xB1,0xBA,0xA7,0xAC,0x9D,0x96,0x8B,0x80
	.DB  0xE9,0xE2,0xFF,0xF4,0xC5,0xCE,0xD3,0xD8
	.DB  0x7A,0x71,0x6C,0x67,0x56,0x5D,0x40,0x4B
	.DB  0x22,0x29,0x34,0x3F,0xE,0x5,0x18,0x13
	.DB  0xCA,0xC1,0xDC,0xD7,0xE6,0xED,0xF0,0xFB
	.DB  0x92,0x99,0x84,0x8F,0xBE,0xB5,0xA8,0xA3
_x13:
	.DB  0x0,0xD,0x1A,0x17,0x34,0x39,0x2E,0x23
	.DB  0x68,0x65,0x72,0x7F,0x5C,0x51,0x46,0x4B
	.DB  0xD0,0xDD,0xCA,0xC7,0xE4,0xE9,0xFE,0xF3
	.DB  0xB8,0xB5,0xA2,0xAF,0x8C,0x81,0x96,0x9B
	.DB  0xBB,0xB6,0xA1,0xAC,0x8F,0x82,0x95,0x98
	.DB  0xD3,0xDE,0xC9,0xC4,0xE7,0xEA,0xFD,0xF0
	.DB  0x6B,0x66,0x71,0x7C,0x5F,0x52,0x45,0x48
	.DB  0x3,0xE,0x19,0x14,0x37,0x3A,0x2D,0x20
	.DB  0x6D,0x60,0x77,0x7A,0x59,0x54,0x43,0x4E
	.DB  0x5,0x8,0x1F,0x12,0x31,0x3C,0x2B,0x26
	.DB  0xBD,0xB0,0xA7,0xAA,0x89,0x84,0x93,0x9E
	.DB  0xD5,0xD8,0xCF,0xC2,0xE1,0xEC,0xFB,0xF6
	.DB  0xD6,0xDB,0xCC,0xC1,0xE2,0xEF,0xF8,0xF5
	.DB  0xBE,0xB3,0xA4,0xA9,0x8A,0x87,0x90,0x9D
	.DB  0x6,0xB,0x1C,0x11,0x32,0x3F,0x28,0x25
	.DB  0x6E,0x63,0x74,0x79,0x5A,0x57,0x40,0x4D
	.DB  0xDA,0xD7,0xC0,0xCD,0xEE,0xE3,0xF4,0xF9
	.DB  0xB2,0xBF,0xA8,0xA5,0x86,0x8B,0x9C,0x91
	.DB  0xA,0x7,0x10,0x1D,0x3E,0x33,0x24,0x29
	.DB  0x62,0x6F,0x78,0x75,0x56,0x5B,0x4C,0x41
	.DB  0x61,0x6C,0x7B,0x76,0x55,0x58,0x4F,0x42
	.DB  0x9,0x4,0x13,0x1E,0x3D,0x30,0x27,0x2A
	.DB  0xB1,0xBC,0xAB,0xA6,0x85,0x88,0x9F,0x92
	.DB  0xD9,0xD4,0xC3,0xCE,0xED,0xE0,0xF7,0xFA
	.DB  0xB7,0xBA,0xAD,0xA0,0x83,0x8E,0x99,0x94
	.DB  0xDF,0xD2,0xC5,0xC8,0xEB,0xE6,0xF1,0xFC
	.DB  0x67,0x6A,0x7D,0x70,0x53,0x5E,0x49,0x44
	.DB  0xF,0x2,0x15,0x18,0x3B,0x36,0x21,0x2C
	.DB  0xC,0x1,0x16,0x1B,0x38,0x35,0x22,0x2F
	.DB  0x64,0x69,0x7E,0x73,0x50,0x5D,0x4A,0x47
	.DB  0xDC,0xD1,0xC6,0xCB,0xE8,0xE5,0xF2,0xFF
	.DB  0xB4,0xB9,0xAE,0xA3,0x80,0x8D,0x9A,0x97
_x14:
	.DB  0x0,0xE,0x1C,0x12,0x38,0x36,0x24,0x2A
	.DB  0x70,0x7E,0x6C,0x62,0x48,0x46,0x54,0x5A
	.DB  0xE0,0xEE,0xFC,0xF2,0xD8,0xD6,0xC4,0xCA
	.DB  0x90,0x9E,0x8C,0x82,0xA8,0xA6,0xB4,0xBA
	.DB  0xDB,0xD5,0xC7,0xC9,0xE3,0xED,0xFF,0xF1
	.DB  0xAB,0xA5,0xB7,0xB9,0x93,0x9D,0x8F,0x81
	.DB  0x3B,0x35,0x27,0x29,0x3,0xD,0x1F,0x11
	.DB  0x4B,0x45,0x57,0x59,0x73,0x7D,0x6F,0x61
	.DB  0xAD,0xA3,0xB1,0xBF,0x95,0x9B,0x89,0x87
	.DB  0xDD,0xD3,0xC1,0xCF,0xE5,0xEB,0xF9,0xF7
	.DB  0x4D,0x43,0x51,0x5F,0x75,0x7B,0x69,0x67
	.DB  0x3D,0x33,0x21,0x2F,0x5,0xB,0x19,0x17
	.DB  0x76,0x78,0x6A,0x64,0x4E,0x40,0x52,0x5C
	.DB  0x6,0x8,0x1A,0x14,0x3E,0x30,0x22,0x2C
	.DB  0x96,0x98,0x8A,0x84,0xAE,0xA0,0xB2,0xBC
	.DB  0xE6,0xE8,0xFA,0xF4,0xDE,0xD0,0xC2,0xCC
	.DB  0x41,0x4F,0x5D,0x53,0x79,0x77,0x65,0x6B
	.DB  0x31,0x3F,0x2D,0x23,0x9,0x7,0x15,0x1B
	.DB  0xA1,0xAF,0xBD,0xB3,0x99,0x97,0x85,0x8B
	.DB  0xD1,0xDF,0xCD,0xC3,0xE9,0xE7,0xF5,0xFB
	.DB  0x9A,0x94,0x86,0x88,0xA2,0xAC,0xBE,0xB0
	.DB  0xEA,0xE4,0xF6,0xF8,0xD2,0xDC,0xCE,0xC0
	.DB  0x7A,0x74,0x66,0x68,0x42,0x4C,0x5E,0x50
	.DB  0xA,0x4,0x16,0x18,0x32,0x3C,0x2E,0x20
	.DB  0xEC,0xE2,0xF0,0xFE,0xD4,0xDA,0xC8,0xC6
	.DB  0x9C,0x92,0x80,0x8E,0xA4,0xAA,0xB8,0xB6
	.DB  0xC,0x2,0x10,0x1E,0x34,0x3A,0x28,0x26
	.DB  0x7C,0x72,0x60,0x6E,0x44,0x4A,0x58,0x56
	.DB  0x37,0x39,0x2B,0x25,0xF,0x1,0x13,0x1D
	.DB  0x47,0x49,0x5B,0x55,0x7F,0x71,0x63,0x6D
	.DB  0xD7,0xD9,0xCB,0xC5,0xEF,0xE1,0xF3,0xFD
	.DB  0xA7,0xA9,0xBB,0xB5,0x9F,0x91,0x83,0x8D
_k1:
	.DB  0x20,0x22,0x2A,0x2B,0x2C,0x5B,0x3D,0x5D
	.DB  0x7C,0x7F,0x0
_vst_G101:
	.DB  0x0,0x4,0x0,0x2,0x0,0x1,0x80,0x0
	.DB  0x40,0x0,0x20,0x0,0x10,0x0,0x8,0x0
	.DB  0x4,0x0,0x2,0x0,0x0,0x0
_cst_G101:
	.DB  0x0,0x80,0x0,0x40,0x0,0x20,0x0,0x10
	.DB  0x0,0x8,0x0,0x40,0x0,0x20,0x0,0x10
	.DB  0x0,0x8,0x0,0x4,0x0,0x2
_tbl10_G102:
	.DB  0x10,0x27,0xE8,0x3,0x64,0x0,0xA,0x0
	.DB  0x1,0x0
_tbl16_G102:
	.DB  0x0,0x10,0x0,0x1,0x10,0x0,0x1,0x0

_0x3:
	.DB  0x3,0x3,0x3,0x2,0x2,0xC,0x0,0x8
	.DB  0x0,0x1,0x0,0x6
_0x0:
	.DB  0x42,0x59,0x54,0x45,0x53,0x2F,0x42,0x49
	.DB  0x54,0x53,0x20,0x50,0x4F,0x52,0x20,0x44
	.DB  0x45,0x43,0x49,0x46,0x52,0x41,0x52,0x3A
	.DB  0x20,0x25,0x69,0x2F,0x25,0x69,0xA,0x0
	.DB  0x4E,0x55,0x4D,0x45,0x52,0x4F,0x20,0x44
	.DB  0x45,0x20,0x42,0x4C,0x4F,0x51,0x55,0x45
	.DB  0x53,0x3A,0x20,0x25,0x69,0xA,0x0,0x42
	.DB  0x4C,0x4F,0x43,0x4B,0x20,0x25,0x69,0x2F
	.DB  0x25,0x75,0x0,0x4D,0x4F,0x55,0x4E,0x54
	.DB  0x49,0x4E,0x47,0x0,0x44,0x52,0x49,0x56
	.DB  0x45,0x20,0x46,0x4F,0x55,0x4E,0x44,0x21
	.DB  0x0,0x57,0x45,0x4C,0x43,0x4F,0x4D,0x45
	.DB  0x21,0xA,0x43,0x48,0x4F,0x4F,0x53,0x45
	.DB  0x20,0x41,0x4E,0x20,0x4F,0x50,0x54,0x49
	.DB  0x4F,0x4E,0x20,0x46,0x52,0x4F,0x4D,0x20
	.DB  0x4F,0x55,0x52,0x20,0x4D,0x45,0x4E,0x55
	.DB  0xA,0xA,0x0,0x31,0x2E,0x20,0x43,0x49
	.DB  0x50,0x48,0x45,0x52,0xA,0x0,0x32,0x2E
	.DB  0x20,0x44,0x45,0x43,0x49,0x50,0x48,0x45
	.DB  0x52,0xA,0x0,0x33,0x2E,0x20,0x43,0x48
	.DB  0x41,0x4E,0x47,0x45,0x20,0x4B,0x45,0x59
	.DB  0xA,0x0,0xA,0xA,0x54,0x59,0x50,0x45
	.DB  0x20,0x4E,0x41,0x4D,0x45,0x20,0x4F,0x46
	.DB  0x20,0x46,0x49,0x4C,0x45,0x20,0x28,0x57
	.DB  0x49,0x54,0x48,0x20,0x45,0x58,0x54,0x45
	.DB  0x4E,0x53,0x49,0x4F,0x4E,0x29,0x3A,0x0
	.DB  0xA,0xA,0x54,0x59,0x50,0x45,0x20,0x4E
	.DB  0x41,0x4D,0x45,0x20,0x4F,0x46,0x20,0x4F
	.DB  0x55,0x54,0x50,0x55,0x54,0x20,0x46,0x49
	.DB  0x4C,0x45,0x20,0x28,0x57,0x49,0x54,0x48
	.DB  0x4F,0x55,0x54,0x20,0x45,0x58,0x54,0x45
	.DB  0x4E,0x53,0x49,0x4F,0x4E,0x29,0x3A,0x0
	.DB  0x2E,0x61,0x65,0x73,0x0,0x52,0x45,0x41
	.DB  0x44,0x49,0x4E,0x47,0x2E,0x2E,0x2E,0x0
	.DB  0x50,0x52,0x4F,0x43,0x45,0x53,0x53,0x49
	.DB  0x4E,0x47,0x2E,0x2E,0x2E,0x0,0x42,0x4C
	.DB  0x4F,0x43,0x4B,0x20,0x25,0x69,0x0,0x42
	.DB  0x59,0x54,0x45,0x53,0x2F,0x42,0x49,0x54
	.DB  0x53,0x20,0x43,0x59,0x50,0x48,0x45,0x52
	.DB  0x45,0x44,0x3A,0x20,0x25,0x69,0x2F,0x25
	.DB  0x69,0xA,0x0,0x4E,0x55,0x4D,0x42,0x45
	.DB  0x52,0x20,0x4F,0x46,0x20,0x42,0x4C,0x4F
	.DB  0x43,0x4B,0x53,0x3A,0x20,0x25,0x69,0xA
	.DB  0x0,0x54,0x4F,0x54,0x41,0x4C,0x20,0x54
	.DB  0x49,0x4D,0x45,0x3A,0x20,0x25,0x66,0xA
	.DB  0x0,0x43,0x59,0x50,0x48,0x45,0x52,0x20
	.DB  0x54,0x49,0x4D,0x45,0x3A,0x20,0x25,0x66
	.DB  0xA,0x0,0x46,0x49,0x4C,0x45,0x20,0x53
	.DB  0x41,0x56,0x45,0x44,0x0,0x46,0x49,0x4C
	.DB  0x45,0x20,0x4E,0x4F,0x54,0x20,0x46,0x4F
	.DB  0x55,0x4E,0x44,0x0,0xA,0xA,0x54,0x59
	.DB  0x50,0x45,0x20,0x4E,0x41,0x4D,0x45,0x20
	.DB  0x4F,0x46,0x20,0x46,0x49,0x4C,0x45,0x20
	.DB  0x28,0x57,0x49,0x54,0x48,0x4F,0x55,0x54
	.DB  0x20,0x45,0x58,0x54,0x45,0x4E,0x53,0x49
	.DB  0x4F,0x4E,0x29,0x0,0x57,0x52,0x4F,0x4E
	.DB  0x47,0x20,0x49,0x4E,0x50,0x55,0x54,0x0
	.DB  0x57,0x45,0x4C,0x43,0x4F,0x4D,0x45,0x21
	.DB  0xA,0x20,0x50,0x4C,0x45,0x41,0x53,0x45
	.DB  0x20,0x45,0x4E,0x54,0x45,0x52,0x20,0x54
	.DB  0x48,0x45,0x20,0x4E,0x41,0x4D,0x45,0x20
	.DB  0x4F,0x46,0x20,0x54,0x48,0x45,0x20,0x46
	.DB  0x49,0x4C,0x45,0x20,0x57,0x49,0x54,0x48
	.DB  0x20,0x54,0x48,0x45,0x20,0x4B,0x45,0x59
	.DB  0x20,0x28,0x2E,0x74,0x78,0x74,0x20,0x4E
	.DB  0x4F,0x20,0x45,0x58,0x54,0x45,0x4E,0x53
	.DB  0x49,0x4F,0x4E,0x29,0xA,0xA,0x0,0x2E
	.DB  0x74,0x78,0x74,0x0,0x46,0x49,0x4C,0x45
	.DB  0x20,0x46,0x4F,0x55,0x4E,0x44,0x0,0x52
	.DB  0x45,0x41,0x44,0x49,0x4E,0x47,0x20,0x20
	.DB  0x2E,0x2E,0x2E,0x0,0x4B,0x45,0x59,0x20
	.DB  0x52,0x45,0x41,0x44,0x0,0x44,0x52,0x49
	.DB  0x56,0x45,0x20,0x4E,0x4F,0x54,0x20,0x46
	.DB  0x4F,0x55,0x4E,0x44,0x0
_0x2000003:
	.DB  0x1
_0x20000FE:
	.DB  0x4
_0x2020000:
	.DB  0xEB,0xFE,0x90,0x4D,0x53,0x44,0x4F,0x53
	.DB  0x35,0x2E,0x30,0x0,0x4E,0x4F,0x20,0x4E
	.DB  0x41,0x4D,0x45,0x20,0x20,0x20,0x20,0x46
	.DB  0x41,0x54,0x33,0x32,0x20,0x20,0x20,0x0
	.DB  0x4E,0x4F,0x20,0x4E,0x41,0x4D,0x45,0x20
	.DB  0x20,0x20,0x20,0x46,0x41,0x54,0x20,0x20
	.DB  0x20,0x20,0x20,0x0

__GLOBAL_INI_TBL:
	.DW  0x2A
	.DW  _0x8A
	.DW  _0x0*2+89

	.DW  0x0B
	.DW  _0x8A+42
	.DW  _0x0*2+131

	.DW  0x0D
	.DW  _0x8A+53
	.DW  _0x0*2+142

	.DW  0x0F
	.DW  _0x8A+66
	.DW  _0x0*2+155

	.DW  0x26
	.DW  _0x8A+81
	.DW  _0x0*2+170

	.DW  0x30
	.DW  _0x8A+119
	.DW  _0x0*2+208

	.DW  0x05
	.DW  _0x8A+167
	.DW  _0x0*2+256

	.DW  0x28
	.DW  _0x8A+172
	.DW  _0x0*2+404

	.DW  0x0C
	.DW  _0x8A+212
	.DW  _0x0*2+444

	.DW  0x4F
	.DW  _0x8A+224
	.DW  _0x0*2+456

	.DW  0x05
	.DW  _0x8A+303
	.DW  _0x0*2+535

	.DW  0x01
	.DW  _status_G100
	.DW  _0x2000003*2

	.DW  0x01
	.DW  _flags_S100000C000
	.DW  _0x20000FE*2

_0xFFFFFFFF:
	.DW  0

#define __GLOBAL_INI_TBL_PRESENT 1

__RESET:
	CLI
	CLR  R30
	OUT  EECR,R30

;INTERRUPT VECTORS ARE PLACED
;AT THE START OF FLASH
	LDI  R31,1
	OUT  MCUCR,R31
	OUT  MCUCR,R30

;CLEAR R2-R14
	LDI  R24,(14-2)+1
	LDI  R26,2
	CLR  R27
__CLEAR_REG:
	ST   X+,R30
	DEC  R24
	BRNE __CLEAR_REG

;CLEAR SRAM
	LDI  R24,LOW(__CLEAR_SRAM_SIZE)
	LDI  R25,HIGH(__CLEAR_SRAM_SIZE)
	LDI  R26,LOW(__SRAM_START)
	LDI  R27,HIGH(__SRAM_START)
__CLEAR_SRAM:
	ST   X+,R30
	SBIW R24,1
	BRNE __CLEAR_SRAM

;GLOBAL VARIABLES INITIALIZATION
	LDI  R30,LOW(__GLOBAL_INI_TBL*2)
	LDI  R31,HIGH(__GLOBAL_INI_TBL*2)
__GLOBAL_INI_NEXT:
	LPM  R24,Z+
	LPM  R25,Z+
	SBIW R24,0
	BREQ __GLOBAL_INI_END
	LPM  R26,Z+
	LPM  R27,Z+
	LPM  R0,Z+
	LPM  R1,Z+
	MOVW R22,R30
	MOVW R30,R0
__GLOBAL_INI_LOOP:
	LPM  R0,Z+
	ST   X+,R0
	SBIW R24,1
	BRNE __GLOBAL_INI_LOOP
	MOVW R30,R22
	RJMP __GLOBAL_INI_NEXT
__GLOBAL_INI_END:

	OUT  RAMPZ,R24

;GPIOR0 INITIALIZATION
	LDI  R30,__GPIOR0_INIT
	OUT  GPIOR0,R30

;HARDWARE STACK POINTER INITIALIZATION
	LDI  R30,LOW(__SRAM_END-__HEAP_SIZE)
	OUT  SPL,R30
	LDI  R30,HIGH(__SRAM_END-__HEAP_SIZE)
	OUT  SPH,R30

;DATA STACK POINTER INITIALIZATION
	LDI  R28,LOW(__SRAM_START+__DSTACK_SIZE)
	LDI  R29,HIGH(__SRAM_START+__DSTACK_SIZE)

	JMP  _main

	.ESEG
	.ORG 0

	.DSEG
	.ORG 0x900

	.CSEG
;/*
; * AES_128.c
; *
; * Created: 12/3/2017 6:33:24 PM
; * Author: Juanpi
; */
;
;#include <io.h>
	#ifndef __SLEEP_DEFINED__
	#define __SLEEP_DEFINED__
	.EQU __se_bit=0x01
	.EQU __sm_mask=0x0E
	.EQU __sm_powerdown=0x04
	.EQU __sm_powersave=0x06
	.EQU __sm_standby=0x0C
	.EQU __sm_ext_standby=0x0E
	.EQU __sm_adc_noise_red=0x02
	.SET power_ctrl_reg=smcr
	#endif
;#include <stdio.h>
;#include <string.h>
;#include <delay.h>
;#include <ff.h>
;#include "display.h"

	.CSEG
_SetupLCD:
; .FSTART _SetupLCD
	SBIW R28,12
	LDI  R24,12
	LDI  R26,LOW(0)
	LDI  R27,HIGH(0)
	LDI  R30,LOW(_0x3*2)
	LDI  R31,HIGH(_0x3*2)
	CALL __INITLOCB
	ST   -Y,R16
;	TableSetup -> Y+1
;	i -> R16
; 0000 000D     SBI __lcd_port-1,__lcd_EN
    SBI __lcd_port-1,__lcd_EN
    SBI __lcd_port-1,__lcd_RS
    SBI __lcd_port-1,__lcd_D4
    SBI __lcd_port-1,__lcd_D5
    SBI __lcd_port-1,__lcd_D6
    SBI __lcd_port-1,__lcd_D7
	LDI  R26,LOW(50)
	LDI  R27,0
	CALL _delay_ms
	LDI  R16,LOW(0)
_0x5:
	CPI  R16,12
	BRSH _0x6
	CALL SUBOPT_0x0
	MOV  R30,R16
	LDI  R31,0
	CALL SUBOPT_0x1
	LD   R26,X
	CALL SUBOPT_0x2
	SUBI R16,-1
	RJMP _0x5
_0x6:
	LDI  R30,LOW(12)
	STS  _cursor,R30
	LDS  R26,_cursor
	RCALL _WriteComandLCD
	LDD  R16,Y+0
	ADIW R28,13
	RET
; .FEND
_PulseEn:
; .FSTART _PulseEn
    SBI __lcd_port,__lcd_EN  // EN=1;
    CBI __lcd_port,__lcd_EN // EN=0;
	RET
; .FEND
_SendDataBitsLCD:
; .FSTART _SendDataBitsLCD
	ST   -Y,R26
;	dato -> Y+0
	LD   R30,Y
	ANDI R30,LOW(0x8)
	BREQ _0x7
	SBI __lcd_port,__lcd_D7
	RJMP _0x8
_0x7:
	CBI __lcd_port,__lcd_D7
_0x8:
	LD   R30,Y
	ANDI R30,LOW(0x4)
	BREQ _0x9
	SBI __lcd_port,__lcd_D6
	RJMP _0xA
_0x9:
	CBI __lcd_port,__lcd_D6
_0xA:
	LD   R30,Y
	ANDI R30,LOW(0x2)
	BREQ _0xB
	SBI __lcd_port,__lcd_D5
	RJMP _0xC
_0xB:
	CBI __lcd_port,__lcd_D5
_0xC:
	LD   R30,Y
	ANDI R30,LOW(0x1)
	BREQ _0xD
	SBI __lcd_port,__lcd_D4
	RJMP _0xE
_0xD:
	CBI __lcd_port,__lcd_D4
_0xE:
	ADIW R28,1
	RET
; .FEND
_WriteComandLCD:
; .FSTART _WriteComandLCD
	ST   -Y,R26
	ST   -Y,R16
;	Comando -> Y+1
;	tempComando -> R16
	CBI __lcd_port,__lcd_RS
	CALL SUBOPT_0x0
	CALL SUBOPT_0x3
	CALL SUBOPT_0x4
	RCALL _PulseEn
	LDD  R16,Y+0
	RJMP _0x20A001F
; .FEND
_CharLCD:
; .FSTART _CharLCD
	ST   -Y,R26
	ST   -Y,R16
;	dato -> Y+1
;	tempdato -> R16
	SBI __lcd_port,__lcd_RS
	CALL SUBOPT_0x0
	CALL SUBOPT_0x3
	CALL SUBOPT_0x4
	RCALL _PulseEn
	LDD  R16,Y+0
	RJMP _0x20A001F
; .FEND
_StringLCD:
; .FSTART _StringLCD
	CALL SUBOPT_0x5
;	i -> R16
_0x10:
	MOV  R30,R16
	SUBI R16,-1
	CALL SUBOPT_0x6
	LPM  R26,Z
	RCALL _CharLCD
	MOV  R30,R16
	CALL SUBOPT_0x6
	LPM  R30,Z
	CPI  R30,0
	BRNE _0x10
	RJMP _0x20A001D
; .FEND
;	tiempo -> Y+1
;	i -> R16
_StringLCDVar:
; .FSTART _StringLCDVar
	CALL SUBOPT_0x5
;	Mensaje -> Y+1
;	i -> R16
_0x16:
	MOV  R30,R16
	SUBI R16,-1
	LDD  R26,Y+1
	LDD  R27,Y+1+1
	LDI  R31,0
	ADD  R26,R30
	ADC  R27,R31
	LD   R26,X
	RCALL _CharLCD
	CALL SUBOPT_0x7
	CPI  R30,0
	BRNE _0x16
	RJMP _0x20A001D
; .FEND
_EraseLCD:
; .FSTART _EraseLCD
	LDI  R26,LOW(1)
	RCALL _WriteComandLCD
	RET
; .FEND
_MoveCursor:
; .FSTART _MoveCursor
	ST   -Y,R26
;	x -> Y+1
;	y -> Y+0
	LD   R30,Y
	LDI  R31,0
	SBIW R30,0
	BRNE _0x1B
	LDD  R26,Y+1
	SUBI R26,-LOW(128)
	RJMP _0xA5
_0x1B:
	CPI  R30,LOW(0x1)
	LDI  R26,HIGH(0x1)
	CPC  R31,R26
	BRNE _0x1C
	LDD  R26,Y+1
	SUBI R26,-LOW(192)
	RJMP _0xA5
_0x1C:
	CPI  R30,LOW(0x2)
	LDI  R26,HIGH(0x2)
	CPC  R31,R26
	BRNE _0x1D
	LDD  R26,Y+1
	SUBI R26,-LOW(148)
	RJMP _0xA5
_0x1D:
	CPI  R30,LOW(0x3)
	LDI  R26,HIGH(0x3)
	CPC  R31,R26
	BRNE _0x1A
	LDD  R26,Y+1
	SUBI R26,-LOW(212)
_0xA5:
	RCALL _WriteComandLCD
_0x1A:
_0x20A001F:
	ADIW R28,2
	RET
; .FEND
;	NoCaracter -> Y+3
;	datos -> Y+1
;	i -> R16
;#include "AES.h"
__sub_array:
; .FSTART __sub_array
	ST   -Y,R26
	ST   -Y,R16
;	array -> Y+5
;	*word -> Y+3
;	start -> Y+2
;	end -> Y+1
;	i -> R16
	LDD  R16,Y+2
_0x23:
	LDD  R30,Y+1
	CP   R16,R30
	BRSH _0x24
	MOV  R26,R16
	CLR  R27
	LDD  R30,Y+2
	LDI  R31,0
	CALL SUBOPT_0x8
	LDD  R26,Y+3
	LDD  R27,Y+3+1
	ADD  R30,R26
	ADC  R31,R27
	MOVW R0,R30
	LDD  R26,Y+5
	LDD  R27,Y+5+1
	CALL SUBOPT_0x9
	MOVW R26,R0
	ST   X,R30
	SUBI R16,-1
	RJMP _0x23
_0x24:
	LDD  R16,Y+0
	ADIW R28,7
	RET
; .FEND
__rotate:
; .FSTART __rotate
	CALL SUBOPT_0xA
;	word -> Y+2
;	a -> R16
;	c -> R17
	LDD  R26,Y+2
	LDD  R27,Y+2+1
	LD   R16,X
	LDI  R17,LOW(0)
_0x26:
	CPI  R17,3
	BRSH _0x27
	MOV  R30,R17
	CALL SUBOPT_0xB
	MOV  R30,R17
	LDI  R31,0
	ADIW R30,1
	LDD  R26,Y+2
	LDD  R27,Y+2+1
	CALL SUBOPT_0xC
	ST   X,R30
	SUBI R17,-1
	RJMP _0x26
_0x27:
	LDD  R30,Y+2
	LDD  R31,Y+2+1
	__PUTBZR 16,3
	LDD  R17,Y+1
	RJMP _0x20A001E
; .FEND
__schedule_core:
; .FSTART __schedule_core
	ST   -Y,R26
	ST   -Y,R16
;	*word -> Y+2
;	i -> Y+1
;	a -> R16
	LDD  R26,Y+2
	LDD  R27,Y+2+1
	RCALL __rotate
	LDI  R16,LOW(0)
_0x29:
	CPI  R16,4
	BRSH _0x2A
	MOV  R30,R16
	CALL SUBOPT_0xB
	LDD  R26,Y+2
	LDD  R27,Y+2+1
	CALL SUBOPT_0x9
	CALL SUBOPT_0xD
	SUBI R16,-1
	RJMP _0x29
_0x2A:
	LDD  R26,Y+2
	LDD  R27,Y+2+1
	MOV  R0,R26
	LD   R26,X
	LDD  R30,Y+1
	LDI  R31,0
	SUBI R30,LOW(-_rcon*2)
	SBCI R31,HIGH(-_rcon*2)
	LPM  R30,Z
	EOR  R30,R26
	MOV  R26,R0
	ST   X,R30
_0x20A001E:
	LDD  R16,Y+0
	ADIW R28,4
	RET
; .FEND
_expand_key:
; .FSTART _expand_key
	ST   -Y,R27
	ST   -Y,R26
	SBIW R28,4
	CALL __SAVELOCR3
;	key -> Y+9
;	expanded_key -> Y+7
;	t -> Y+3
;	c -> R16
;	i -> R17
;	a -> R18
	LDI  R16,16
	LDI  R17,1
	LDI  R18,LOW(0)
_0x2C:
	CPI  R18,16
	BRSH _0x2D
	MOV  R30,R18
	LDD  R26,Y+7
	LDD  R27,Y+7+1
	CALL SUBOPT_0xE
	LDD  R26,Y+9
	LDD  R27,Y+9+1
	CLR  R30
	ADD  R26,R18
	ADC  R27,R30
	LD   R30,X
	MOVW R26,R0
	ST   X,R30
	SUBI R18,-1
	RJMP _0x2C
_0x2D:
_0x2E:
	CPI  R16,176
	BRLO PC+2
	RJMP _0x30
	LDI  R18,LOW(0)
_0x32:
	CPI  R18,4
	BRSH _0x33
	MOV  R30,R18
	LDI  R31,0
	MOVW R26,R28
	ADIW R26,3
	ADD  R30,R26
	ADC  R31,R27
	MOVW R22,R30
	MOV  R26,R18
	CLR  R27
	CLR  R30
	ADD  R26,R16
	ADC  R27,R30
	LDI  R30,LOW(4)
	LDI  R31,HIGH(4)
	CALL SUBOPT_0x8
	LDD  R26,Y+7
	LDD  R27,Y+7+1
	ADD  R26,R30
	ADC  R27,R31
	LD   R30,X
	MOVW R26,R22
	ST   X,R30
	SUBI R18,-1
	RJMP _0x32
_0x33:
	MOV  R26,R16
	CLR  R27
	LDI  R30,LOW(16)
	LDI  R31,HIGH(16)
	CALL __MODW21
	SBIW R30,0
	BRNE _0x34
	CALL SUBOPT_0xF
	MOV  R26,R17
	RCALL __schedule_core
	SUBI R17,-1
_0x34:
	LDI  R18,LOW(0)
_0x36:
	CPI  R18,4
	BRSH _0x37
	MOV  R30,R16
	LDD  R26,Y+7
	LDD  R27,Y+7+1
	LDI  R31,0
	ADD  R30,R26
	ADC  R31,R27
	MOVW R22,R30
	MOV  R30,R16
	LDI  R31,0
	SBIW R30,16
	ADD  R26,R30
	ADC  R27,R31
	LD   R0,X
	MOV  R30,R18
	LDI  R31,0
	MOVW R26,R28
	ADIW R26,3
	ADD  R26,R30
	ADC  R27,R31
	CALL SUBOPT_0x10
	SUBI R16,-1
	SUBI R18,-1
	RJMP _0x36
_0x37:
	RJMP _0x2E
_0x30:
	CALL __LOADLOCR3
	ADIW R28,11
	RET
; .FEND
__rotate_key:
; .FSTART __rotate_key
	CALL SUBOPT_0x11
;	round -> Y+18
;	aux -> Y+2
;	i -> R16
;	j -> R17
_0x39:
	CPI  R16,16
	BRSH _0x3A
	CALL SUBOPT_0x12
	MOVW R26,R0
	ST   X,R30
	SUBI R16,-1
	RJMP _0x39
_0x3A:
	LDI  R16,LOW(0)
_0x3C:
	CPI  R16,4
	BRSH _0x3D
	LDI  R17,LOW(0)
_0x3F:
	CPI  R17,4
	BRSH _0x40
	LDI  R30,LOW(4)
	MUL  R30,R16
	MOVW R30,R0
	MOVW R26,R30
	MOV  R30,R17
	LDI  R31,0
	ADD  R30,R26
	ADC  R31,R27
	LDD  R26,Y+18
	LDD  R27,Y+18+1
	ADD  R30,R26
	ADC  R31,R27
	MOVW R22,R30
	MOV  R26,R16
	CLR  R27
	LDI  R30,LOW(4)
	MUL  R30,R17
	MOVW R30,R0
	ADD  R30,R26
	ADC  R31,R27
	MOVW R26,R28
	ADIW R26,2
	ADD  R26,R30
	ADC  R27,R31
	LD   R30,X
	MOVW R26,R22
	ST   X,R30
	SUBI R17,-1
	RJMP _0x3F
_0x40:
	SUBI R16,-1
	RJMP _0x3C
_0x3D:
	RJMP _0x20A001C
; .FEND
__sub_bytes:
; .FSTART __sub_bytes
	CALL SUBOPT_0x5
;	state -> Y+1
;	i -> R16
_0x42:
	CPI  R16,16
	BRSH _0x43
	MOV  R30,R16
	CALL SUBOPT_0x6
	MOVW R0,R30
	CALL SUBOPT_0x7
	CALL SUBOPT_0xD
	SUBI R16,-1
	RJMP _0x42
_0x43:
_0x20A001D:
	LDD  R16,Y+0
	ADIW R28,3
	RET
; .FEND
;	state -> Y+1
;	i -> R16
__shift_rows:
; .FSTART __shift_rows
	CALL SUBOPT_0x11
;	state -> Y+18
;	aux -> Y+2
;	i -> R16
;	j -> R17
_0x48:
	CPI  R16,16
	BRSH _0x49
	CALL SUBOPT_0x12
	MOVW R26,R0
	ST   X,R30
	SUBI R16,-1
	RJMP _0x48
_0x49:
	LDI  R17,LOW(1)
_0x4B:
	CPI  R17,4
	BRLO PC+2
	RJMP _0x4C
	MOV  R30,R17
	LSL  R30
	LSL  R30
	MOV  R16,R30
_0x4E:
	LDI  R30,LOW(4)
	MUL  R30,R17
	MOVW R30,R0
	ADIW R30,4
	MOV  R26,R16
	LDI  R27,0
	CP   R26,R30
	CPC  R27,R31
	BRGE _0x4F
	MOV  R26,R16
	CLR  R27
	LDI  R30,LOW(4)
	MUL  R30,R17
	MOVW R30,R0
	SUB  R26,R30
	SBC  R27,R31
	MOVW R22,R26
	CALL SUBOPT_0x13
	CP   R22,R30
	CPC  R23,R31
	BRGE _0x50
	MOV  R30,R16
	LDD  R26,Y+18
	LDD  R27,Y+18+1
	CALL SUBOPT_0xE
	MOV  R26,R16
	CLR  R27
	MOV  R30,R17
	LDI  R31,0
	ADD  R30,R26
	ADC  R31,R27
	MOVW R26,R28
	ADIW R26,2
	CALL SUBOPT_0xC
	RJMP _0xA6
_0x50:
	MOV  R30,R16
	LDD  R26,Y+18
	LDD  R27,Y+18+1
	LDI  R31,0
	ADD  R30,R26
	ADC  R31,R27
	MOVW R24,R30
	MOV  R22,R16
	CLR  R23
	CALL SUBOPT_0x13
	MOVW R26,R30
	MOVW R30,R22
	SUB  R30,R26
	SBC  R31,R27
	MOVW R26,R28
	ADIW R26,2
	ADD  R26,R30
	ADC  R27,R31
	LD   R30,X
	MOVW R26,R24
_0xA6:
	ST   X,R30
	SUBI R16,-1
	RJMP _0x4E
_0x4F:
	SUBI R17,-1
	RJMP _0x4B
_0x4C:
_0x20A001C:
	LDD  R17,Y+1
	LDD  R16,Y+0
	ADIW R28,20
	RET
; .FEND
;	state -> Y+18
;	aux -> Y+2
;	i -> R16
;	j -> R17
__mix_columns:
; .FSTART __mix_columns
	ST   -Y,R27
	ST   -Y,R26
	SBIW R28,16
	ST   -Y,R16
;	state -> Y+17
;	aux -> Y+1
;	col -> R16
	LDI  R16,LOW(0)
_0x5E:
	CPI  R16,16
	BRSH _0x5F
	MOV  R30,R16
	LDI  R31,0
	MOVW R26,R28
	ADIW R26,1
	ADD  R30,R26
	ADC  R31,R27
	MOVW R0,R30
	LDD  R26,Y+17
	LDD  R27,Y+17+1
	CALL SUBOPT_0x9
	MOVW R26,R0
	ST   X,R30
	SUBI R16,-1
	RJMP _0x5E
_0x5F:
	LDI  R16,LOW(0)
_0x61:
	CPI  R16,4
	BRLO PC+2
	RJMP _0x62
	MOV  R30,R16
	LDI  R31,0
	ADIW R30,0
	CALL SUBOPT_0x14
	CALL SUBOPT_0x15
	ADIW R30,4
	CALL SUBOPT_0x1
	CALL SUBOPT_0x16
	ADIW R30,8
	CALL SUBOPT_0x1
	CALL SUBOPT_0x17
	ADIW R30,12
	CALL SUBOPT_0x1
	CALL SUBOPT_0x10
	MOV  R30,R16
	LDI  R31,0
	ADIW R30,4
	CALL SUBOPT_0x14
	CALL SUBOPT_0x15
	ADIW R30,8
	CALL SUBOPT_0x1
	CALL SUBOPT_0x16
	ADIW R30,12
	CALL SUBOPT_0x1
	CALL SUBOPT_0x17
	ADIW R30,0
	CALL SUBOPT_0x1
	CALL SUBOPT_0x10
	MOV  R30,R16
	LDI  R31,0
	ADIW R30,8
	CALL SUBOPT_0x14
	CALL SUBOPT_0x15
	ADIW R30,12
	CALL SUBOPT_0x1
	CALL SUBOPT_0x16
	ADIW R30,0
	CALL SUBOPT_0x1
	CALL SUBOPT_0x17
	ADIW R30,4
	CALL SUBOPT_0x1
	CALL SUBOPT_0x10
	MOV  R30,R16
	LDI  R31,0
	ADIW R30,12
	CALL SUBOPT_0x14
	CALL SUBOPT_0x15
	ADIW R30,0
	CALL SUBOPT_0x1
	CALL SUBOPT_0x16
	ADIW R30,4
	CALL SUBOPT_0x1
	CALL SUBOPT_0x17
	ADIW R30,8
	CALL SUBOPT_0x1
	CALL SUBOPT_0x10
	SUBI R16,-1
	RJMP _0x61
_0x62:
	LDD  R16,Y+0
	ADIW R28,19
	RET
; .FEND
;	state -> Y+17
;	aux -> Y+1
;	col -> R16
__add_round_key:
; .FSTART __add_round_key
	CALL SUBOPT_0x5
;	state -> Y+3
;	round_key -> Y+1
;	i -> R16
_0x6A:
	CPI  R16,16
	BRSH _0x6B
	MOV  R30,R16
	LDD  R26,Y+3
	LDD  R27,Y+3+1
	LDI  R31,0
	ADD  R30,R26
	ADC  R31,R27
	MOVW R22,R30
	CLR  R30
	ADD  R26,R16
	ADC  R27,R30
	LD   R0,X
	CALL SUBOPT_0x7
	EOR  R30,R0
	MOVW R26,R22
	ST   X,R30
	SUBI R16,-1
	RJMP _0x6A
_0x6B:
	LDD  R16,Y+0
	ADIW R28,5
	RET
; .FEND
__block_cipher:
; .FSTART __block_cipher
	ST   -Y,R27
	ST   -Y,R26
	SBIW R28,16
	ST   -Y,R16
;	state -> Y+19
;	expanded_key -> Y+17
;	i -> R16
;	round -> Y+1
	CALL SUBOPT_0x18
	LDI  R30,LOW(0)
	ST   -Y,R30
	LDI  R26,LOW(16)
	CALL SUBOPT_0x19
	LDI  R16,LOW(1)
_0x6D:
	CPI  R16,10
	BRSH _0x6E
	CALL SUBOPT_0x1A
	LDD  R26,Y+19
	LDD  R27,Y+19+1
	RCALL __mix_columns
	CALL SUBOPT_0x18
	LDI  R26,LOW(16)
	MULS R16,R26
	ST   -Y,R0
	MULS R16,R26
	MOVW R30,R0
	SUBI R30,-LOW(16)
	MOV  R26,R30
	CALL SUBOPT_0x19
	SUBI R16,-1
	RJMP _0x6D
_0x6E:
	CALL SUBOPT_0x1A
	CALL SUBOPT_0x18
	LDI  R30,LOW(160)
	ST   -Y,R30
	LDI  R26,LOW(176)
	CALL SUBOPT_0x19
	LDD  R16,Y+0
	ADIW R28,21
	RET
; .FEND
;	state -> Y+19
;	expanded_key -> Y+17
;	i -> R16
;	round -> Y+1
_cipher:
; .FSTART _cipher
	ST   -Y,R27
	ST   -Y,R26
	SBIW R28,36
	CALL __SAVELOCR3
;	*text -> Y+45
;	count -> Y+43
;	expanded_key -> Y+41
;	*ciph -> Y+39
;	i -> R16,R17
;	j -> R18
;	block -> Y+23
;	aux -> Y+3
	__GETWRS 16,17,43
_0x73:
	CALL SUBOPT_0x1B
	LDD  R26,Y+43
	LDD  R27,Y+43+1
	ADD  R30,R26
	ADC  R31,R27
	CP   R16,R30
	CPC  R17,R31
	BRSH _0x74
	MOVW R30,R16
	LDD  R26,Y+39
	LDD  R27,Y+39+1
	ADD  R26,R30
	ADC  R27,R31
	LDI  R30,LOW(0)
	ST   X,R30
	__ADDWRN 16,17,1
	RJMP _0x73
_0x74:
	__GETWRN 16,17,0
_0x76:
	LDD  R30,Y+43
	LDD  R31,Y+43+1
	CP   R16,R30
	CPC  R17,R31
	BRSH _0x77
	LDD  R30,Y+45
	LDD  R31,Y+45+1
	ST   -Y,R31
	ST   -Y,R30
	MOVW R30,R28
	ADIW R30,25
	ST   -Y,R31
	ST   -Y,R30
	ST   -Y,R16
	MOV  R26,R16
	SUBI R26,-LOW(16)
	RCALL __sub_array
	MOVW R30,R28
	ADIW R30,23
	ST   -Y,R31
	ST   -Y,R30
	LDD  R26,Y+43
	LDD  R27,Y+43+1
	RCALL __block_cipher
	MOV  R18,R16
_0x79:
	MOVW R30,R16
	ADIW R30,16
	MOV  R26,R18
	LDI  R27,0
	CP   R26,R30
	CPC  R27,R31
	BRSH _0x7A
	MOV  R30,R18
	LDD  R26,Y+39
	LDD  R27,Y+39+1
	CALL SUBOPT_0xE
	MOV  R30,R18
	LDI  R31,0
	SUB  R30,R16
	SBC  R31,R17
	MOVW R26,R28
	ADIW R26,23
	CALL SUBOPT_0xC
	ST   X,R30
	SUBI R18,-1
	RJMP _0x79
_0x7A:
	__ADDWRN 16,17,16
	RJMP _0x76
_0x77:
	CALL SUBOPT_0x1B
	LDD  R26,Y+43
	LDD  R27,Y+43+1
	ADD  R30,R26
	ADC  R31,R27
	CALL __LOADLOCR3
	ADIW R28,47
	RET
; .FEND
;	*ciph -> Y+45
;	count -> Y+43
;	expanded_key -> Y+41
;	*text -> Y+39
;	i -> R16,R17
;	j -> R18
;	block -> Y+23
;	aux -> Y+3
;
;#asm
    .equ __lcd_port=0x11
    .equ __lcd_EN=4
    .equ __lcd_RS=5
    .equ __lcd_D4=0
    .equ __lcd_D5=1
    .equ __lcd_D6=2
    .equ __lcd_D7=3
; 0000 0018 #endasm
;
;unsigned int time_count_all;
;unsigned int time_count_ciph;
;unsigned int br, n;
;unsigned char i;
;unsigned char option, key_set = 0;
;unsigned char file_name[50];
;unsigned char key[16], expanded_key[176];
;unsigned char aux[20];
;
;// TO READ AND WRITE 16 BLOCKS AT ONCE
;unsigned char buffer_in[512];
;unsigned char buffer_out[512];
;
;// Timer 0 output compare A interrupt service routine
;interrupt [TIM0_COMPA] void timer0_compa_isr(void) {
; 0000 0028 interrupt [22] void timer0_compa_isr(void) {
_timer0_compa_isr:
; .FSTART _timer0_compa_isr
	CALL SUBOPT_0x1C
; 0000 0029     // ONE COUNT = 1 ms
; 0000 002A     time_count_ciph++;
	LDI  R26,LOW(_time_count_ciph)
	LDI  R27,HIGH(_time_count_ciph)
	RJMP _0xA9
; 0000 002B }
; .FEND
;
;// Timer1 output compare A interrupt service routine
;interrupt [TIM1_COMPA] void timer1_compa_isr(void) {
; 0000 002E interrupt [18] void timer1_compa_isr(void) {
_timer1_compa_isr:
; .FSTART _timer1_compa_isr
	ST   -Y,R0
	ST   -Y,R1
	ST   -Y,R15
	ST   -Y,R22
	ST   -Y,R23
	ST   -Y,R24
	ST   -Y,R25
	ST   -Y,R26
	ST   -Y,R27
	ST   -Y,R30
	ST   -Y,R31
	IN   R30,SREG
	ST   -Y,R30
; 0000 002F     disk_timerproc();
	CALL _disk_timerproc
; 0000 0030     /* MMC/SD/SD HC card access low level timing function */
; 0000 0031 }
	LD   R30,Y+
	OUT  SREG,R30
	LD   R31,Y+
	LD   R30,Y+
	LD   R27,Y+
	LD   R26,Y+
	LD   R25,Y+
	LD   R24,Y+
	LD   R23,Y+
	LD   R22,Y+
	LD   R15,Y+
	LD   R1,Y+
	LD   R0,Y+
	RETI
; .FEND
;
;// Timer2 output compare interrupt service routine
;interrupt [TIM2_COMPA] void timer2_compa_isr(void){
; 0000 0034 interrupt [14] void timer2_compa_isr(void){
_timer2_compa_isr:
; .FSTART _timer2_compa_isr
	CALL SUBOPT_0x1C
; 0000 0035     time_count_all++;
	LDI  R26,LOW(_time_count_all)
	LDI  R27,HIGH(_time_count_all)
_0xA9:
	LD   R30,X+
	LD   R31,X+
	ADIW R30,1
	ST   -X,R31
	ST   -X,R30
; 0000 0036 }
	LD   R30,Y+
	OUT  SREG,R30
	LD   R31,Y+
	LD   R30,Y+
	LD   R27,Y+
	LD   R26,Y+
	RETI
; .FEND
;
;void start_timer_all() {
; 0000 0038 void start_timer_all() {
_start_timer_all:
; .FSTART _start_timer_all
; 0000 0039     TCCR2B=(0<<WGM22) | (0<<CS22) | (1<<CS21) | (1<<CS20);
	LDI  R30,LOW(3)
	RJMP _0x20A001B
; 0000 003A }
; .FEND
;
;void reset_timer_all() {
; 0000 003C void reset_timer_all() {
_reset_timer_all:
; .FSTART _reset_timer_all
; 0000 003D     time_count_all = 0;
	LDI  R30,LOW(0)
	STS  _time_count_all,R30
	STS  _time_count_all+1,R30
; 0000 003E     TCNT2 = 0x00;
	STS  178,R30
; 0000 003F }
	RET
; .FEND
;
;void stop_timer_all() {
; 0000 0041 void stop_timer_all() {
_stop_timer_all:
; .FSTART _stop_timer_all
; 0000 0042     TCCR2B = 0x00;
	LDI  R30,LOW(0)
_0x20A001B:
	STS  177,R30
; 0000 0043 }
	RET
; .FEND
;
;void start_timer_ciph() {
; 0000 0045 void start_timer_ciph() {
_start_timer_ciph:
; .FSTART _start_timer_ciph
; 0000 0046     TCCR0B = (0<<WGM02) | (0<<CS02) | (1<<CS01) | (1<<CS00);
	LDI  R30,LOW(3)
	RJMP _0x20A001A
; 0000 0047 }
; .FEND
;
;void reset_timer_ciph() {
; 0000 0049 void reset_timer_ciph() {
_reset_timer_ciph:
; .FSTART _reset_timer_ciph
; 0000 004A     time_count_ciph = 0;
	LDI  R30,LOW(0)
	STS  _time_count_ciph,R30
	STS  _time_count_ciph+1,R30
; 0000 004B     TCNT0 = 0;
	OUT  0x26,R30
; 0000 004C }
	RET
; .FEND
;
;void stop_timer_ciph() {
; 0000 004E void stop_timer_ciph() {
_stop_timer_ciph:
; .FSTART _stop_timer_ciph
; 0000 004F     TCCR0B = 0x00;
	LDI  R30,LOW(0)
_0x20A001A:
	OUT  0x25,R30
; 0000 0050 }
	RET
; .FEND
;
;void main(void) {
; 0000 0052 void main(void) {
_main:
; .FSTART _main
; 0000 0053     /* FAT function result */
; 0000 0054     FRESULT res;
; 0000 0055 
; 0000 0056     /* will hold the information for logical drive 0: */
; 0000 0057     FATFS drive;
; 0000 0058     FIL file_in; // file objects
; 0000 0059     FIL file_out;
; 0000 005A 
; 0000 005B     CLKPR=0x80;
	SBIW R28,63
	SBIW R28,51
	SUBI R29,6
;	res -> R16
;	drive -> Y+1088
;	file_in -> Y+544
;	file_out -> Y+0
	LDI  R30,LOW(128)
	STS  97,R30
; 0000 005C     CLKPR=0;    //Micro Trabajar a 16MHz
	LDI  R30,LOW(0)
	STS  97,R30
; 0000 005D 
; 0000 005E     /*Configurar el PORTB I/O*/
; 0000 005F     DDRB=0b11101101;
	LDI  R30,LOW(237)
	OUT  0x4,R30
; 0000 0060 
; 0000 0061     // Timer/Counter 0 initialization
; 0000 0062     // Clock source: System Clock
; 0000 0063     // Clock value: 125.000 kHz
; 0000 0064     // Mode: CTC top=OCR0A
; 0000 0065     // OC0A output: Disconnected
; 0000 0066     // OC0B output: Disconnected
; 0000 0067     // Timer Period: 1 ms
; 0000 0068     TCCR0A=(0<<COM0A1) | (0<<COM0A0) | (0<<COM0B1) | (0<<COM0B0) | (1<<WGM01) | (0<<WGM00);
	LDI  R30,LOW(2)
	OUT  0x24,R30
; 0000 0069     TCCR0B=(0<<WGM02) | (0<<CS02) | (1<<CS01) | (1<<CS00);
	LDI  R30,LOW(3)
	OUT  0x25,R30
; 0000 006A     TCNT0=0x00;
	LDI  R30,LOW(0)
	OUT  0x26,R30
; 0000 006B     OCR0A=0x7C;
	LDI  R30,LOW(124)
	OUT  0x27,R30
; 0000 006C     OCR0B=0x00;
	LDI  R30,LOW(0)
	OUT  0x28,R30
; 0000 006D 
; 0000 006E     // Timer/Counter 0 Interrupt(s) initialization
; 0000 006F     TIMSK0=(0<<OCIE0B) | (1<<OCIE0A) | (0<<TOIE0);
	LDI  R30,LOW(2)
	STS  110,R30
; 0000 0070 
; 0000 0071 
; 0000 0072     // Cdigo para hacer una interrupcin peridica cada 10ms
; 0000 0073     // Timer/Counter 1 initialization
; 0000 0074     // Clock source: System Clock
; 0000 0075     // Clock value: 1000.000 kHz
; 0000 0076     // Mode: CTC top=OCR1A
; 0000 0077     // Compare A Match Interrupt: On
; 0000 0078     TCCR1B=0x09;
	LDI  R30,LOW(9)
	STS  129,R30
; 0000 0079     OCR1AH=0x27;
	LDI  R30,LOW(39)
	STS  137,R30
; 0000 007A     OCR1AL=0x10;
	LDI  R30,LOW(16)
	STS  136,R30
; 0000 007B     TIMSK1=0x02;
	LDI  R30,LOW(2)
	STS  111,R30
; 0000 007C 
; 0000 007D     // Timer/Counter 2 initialization
; 0000 007E     // Clock source: System Clock
; 0000 007F     // Clock value: 250.000 kHz
; 0000 0080     // Mode: CTC top=OCR2A
; 0000 0081     // OC2A output: Disconnected
; 0000 0082     // OC2B output: Disconnected
; 0000 0083     // Timer Period: 1 ms
; 0000 0084     ASSR=(0<<EXCLK) | (0<<AS2);
	LDI  R30,LOW(0)
	STS  182,R30
; 0000 0085     TCCR2A=(0<<COM2A1) | (0<<COM2A0) | (0<<COM2B1) | (0<<COM2B0) | (1<<WGM21) | (0<<WGM20);
	LDI  R30,LOW(2)
	STS  176,R30
; 0000 0086     TCCR2B=(0<<WGM22) | (0<<CS22) | (1<<CS21) | (1<<CS20);
	LDI  R30,LOW(3)
	STS  177,R30
; 0000 0087     TCNT2=0x00;
	LDI  R30,LOW(0)
	STS  178,R30
; 0000 0088     OCR2A=0xF9;
	LDI  R30,LOW(249)
	STS  179,R30
; 0000 0089     OCR2B=0x00;
	LDI  R30,LOW(0)
	STS  180,R30
; 0000 008A 
; 0000 008B     // Timer/Counter 2 Interrupt(s) initialization
; 0000 008C     TIMSK2=(0<<OCIE2B) | (1<<OCIE2A) | (0<<TOIE2);
	LDI  R30,LOW(2)
	STS  112,R30
; 0000 008D 
; 0000 008E 
; 0000 008F     stop_timer_all();
	CALL SUBOPT_0x1D
; 0000 0090     stop_timer_ciph();
; 0000 0091     reset_timer_all();
; 0000 0092     reset_timer_ciph();
; 0000 0093 
; 0000 0094     SetupLCD();
	CALL _SetupLCD
; 0000 0095 
; 0000 0096     // USART1 initialization
; 0000 0097     // Communication Parameters: 8 Data, 1 Stop, No Parity
; 0000 0098     // USART1 Receiver: On
; 0000 0099     // USART1 Transmitter: On
; 0000 009A     // USART1 Mode: Asynchronous
; 0000 009B     // USART1 Baud Rate: 9600 (Double Speed Mode)
; 0000 009C     UCSR1A=(0<<RXC1) | (0<<TXC1) | (0<<UDRE1) | (0<<FE1) | (0<<DOR1) | (0<<UPE1) | (1<<U2X1) | (0<<MPCM1);
	LDI  R30,LOW(2)
	STS  200,R30
; 0000 009D     UCSR1B=(0<<RXCIE1) | (0<<TXCIE1) | (0<<UDRIE1) | (1<<RXEN1) | (1<<TXEN1) | (0<<UCSZ12) | (0<<RXB81) | (0<<TXB81);
	LDI  R30,LOW(24)
	STS  201,R30
; 0000 009E     UCSR1C=(0<<UMSEL11) | (0<<UMSEL10) | (0<<UPM11) | (0<<UPM10) | (0<<USBS1) | (1<<UCSZ11) | (1<<UCSZ10) | (0<<UCPOL1);
	LDI  R30,LOW(6)
	STS  202,R30
; 0000 009F     UBRR1H=0x00;
	LDI  R30,LOW(0)
	STS  205,R30
; 0000 00A0     UBRR1L=0x67;
	LDI  R30,LOW(103)
	STS  204,R30
; 0000 00A1 
; 0000 00A2     // Global enable interrupts
; 0000 00A3     #asm("sei")
	sei
; 0000 00A4 
; 0000 00A5     MoveCursor(0,0);
	CALL SUBOPT_0x1E
; 0000 00A6     StringLCD("MOUNTING");
	__POINTW2FN _0x0,67
	RCALL _StringLCD
; 0000 00A7 
; 0000 00A8     /* Inicia el puerto SPI para la SD */
; 0000 00A9     disk_initialize(0);
	LDI  R26,LOW(0)
	RCALL _disk_initialize
; 0000 00AA     delay_ms(200);
	LDI  R26,LOW(200)
	LDI  R27,0
	CALL _delay_ms
; 0000 00AB 
; 0000 00AC     /* mount logical drive 0: */
; 0000 00AD     if ((res=f_mount(0,&drive))==FR_OK){
	LDI  R30,LOW(0)
	ST   -Y,R30
	MOVW R26,R28
	SUBI R26,LOW(-(1089))
	SBCI R27,HIGH(-(1089))
	CALL _f_mount
	MOV  R16,R30
	CPI  R30,0
	BREQ PC+2
	RJMP _0x85
; 0000 00AE         MoveCursor(0,0);
	CALL SUBOPT_0x1E
; 0000 00AF         StringLCD("DRIVE FOUND!");
	__POINTW2FN _0x0,76
	CALL SUBOPT_0x1F
; 0000 00B0         delay_ms(1500);
; 0000 00B1 
; 0000 00B2 
; 0000 00B3         while (1) {
_0x86:
; 0000 00B4             if (key_set == 1) {
	LDS  R26,_key_set
	CPI  R26,LOW(0x1)
	BREQ PC+2
	RJMP _0x89
; 0000 00B5                 puts("WELCOME!\nCHOOSE AN OPTION FROM OUR MENU\n\n");
	__POINTW2MN _0x8A,0
	CALL _puts
; 0000 00B6                 puts("1. CIPHER\n");
	__POINTW2MN _0x8A,42
	CALL _puts
; 0000 00B7                 puts("2. DECIPHER\n");
	__POINTW2MN _0x8A,53
	CALL _puts
; 0000 00B8                 puts("3. CHANGE KEY\n");
	__POINTW2MN _0x8A,66
	CALL _puts
; 0000 00B9 
; 0000 00BA                 option = getchar();
	CALL _getchar
	STS  _option,R30
; 0000 00BB                 switch (option) {
	LDI  R31,0
; 0000 00BC                     case '1':
	CPI  R30,LOW(0x31)
	LDI  R26,HIGH(0x31)
	CPC  R31,R26
	BREQ PC+2
	RJMP _0x8E
; 0000 00BD                         stop_timer_all();
	CALL SUBOPT_0x1D
; 0000 00BE                         stop_timer_ciph();
; 0000 00BF                         reset_timer_all();
; 0000 00C0                         reset_timer_ciph();
; 0000 00C1 
; 0000 00C2                         puts("\n\nTYPE NAME OF FILE (WITH EXTENSION):");
	__POINTW2MN _0x8A,81
	CALL SUBOPT_0x20
; 0000 00C3                         gets(file_name, 100);
; 0000 00C4 
; 0000 00C5                         /*Lectura de Archivo*/
; 0000 00C6                         res = f_open(&file_in, file_name, FA_OPEN_ALWAYS | FA_WRITE | FA_READ);
	CALL SUBOPT_0x21
	CALL SUBOPT_0x22
	CALL SUBOPT_0x23
; 0000 00C7 
; 0000 00C8                         if (res==FR_OK) {
	BREQ PC+2
	RJMP _0x8F
; 0000 00C9                             MoveCursor(0,0);
	CALL SUBOPT_0x1E
; 0000 00CA                             StringLCDVar(file_name);
	LDI  R26,LOW(_file_name)
	LDI  R27,HIGH(_file_name)
	RCALL _StringLCDVar
; 0000 00CB                             delay_ms(1500);
	LDI  R26,LOW(1500)
	LDI  R27,HIGH(1500)
	CALL _delay_ms
; 0000 00CC 
; 0000 00CD                             puts("\n\nTYPE NAME OF OUTPUT FILE (WITHOUT EXTENSION):");
	__POINTW2MN _0x8A,119
	CALL SUBOPT_0x20
; 0000 00CE                             gets(file_name, 100);
; 0000 00CF                             strcat(file_name, ".aes");
	CALL SUBOPT_0x22
	__POINTW2MN _0x8A,167
	CALL _strcat
; 0000 00D0                             res = f_open(&file_out, file_name, FA_OPEN_ALWAYS | FA_WRITE | FA_READ);
	MOVW R30,R28
	ST   -Y,R31
	ST   -Y,R30
	CALL SUBOPT_0x22
	CALL SUBOPT_0x23
; 0000 00D1 
; 0000 00D2                             if (res==FR_OK) {
	BREQ PC+2
	RJMP _0x90
; 0000 00D3                                 MoveCursor(0,0);
	CALL SUBOPT_0x1E
; 0000 00D4                                 StringLCDVar(file_name);
	LDI  R26,LOW(_file_name)
	LDI  R27,HIGH(_file_name)
	RCALL _StringLCDVar
; 0000 00D5                                 puts(file_name);
	LDI  R26,LOW(_file_name)
	LDI  R27,HIGH(_file_name)
	CALL _puts
; 0000 00D6                                 delay_ms(1500);
	LDI  R26,LOW(1500)
	LDI  R27,HIGH(1500)
	CALL _delay_ms
; 0000 00D7 
; 0000 00D8                                 EraseLCD();
	RCALL _EraseLCD
; 0000 00D9                                 MoveCursor(0,0);
	CALL SUBOPT_0x1E
; 0000 00DA                                 StringLCD("READING...");
	__POINTW2FN _0x0,261
	CALL SUBOPT_0x1F
; 0000 00DB                                 delay_ms(1500);
; 0000 00DC 
; 0000 00DD                                 EraseLCD();
	RCALL _EraseLCD
; 0000 00DE                                 MoveCursor(0,0);
	CALL SUBOPT_0x1E
; 0000 00DF                                 StringLCD("PROCESSING...");
	__POINTW2FN _0x0,272
	CALL SUBOPT_0x1F
; 0000 00E0                                 delay_ms(1500);
; 0000 00E1 
; 0000 00E2 
; 0000 00E3                                 expand_key(key, expanded_key);
	LDI  R30,LOW(_key)
	LDI  R31,HIGH(_key)
	ST   -Y,R31
	ST   -Y,R30
	LDI  R26,LOW(_expanded_key)
	LDI  R27,HIGH(_expanded_key)
	RCALL _expand_key
; 0000 00E4                                 start_timer_all();
	RCALL _start_timer_all
; 0000 00E5                                 f_read(&file_in, buffer_in, 256,&br); //leer archivo
	CALL SUBOPT_0x21
	CALL SUBOPT_0x24
	CALL SUBOPT_0x25
; 0000 00E6                                 n = 0;
	LDI  R30,LOW(0)
	STS  _n,R30
	STS  _n+1,R30
; 0000 00E7                                 while (br == 256) {
_0x91:
	LDS  R26,_br
	LDS  R27,_br+1
	CPI  R26,LOW(0x100)
	LDI  R30,HIGH(0x100)
	CPC  R27,R30
	BREQ PC+2
	RJMP _0x93
; 0000 00E8                                     n++;
	LDI  R26,LOW(_n)
	LDI  R27,HIGH(_n)
	CALL SUBOPT_0x26
; 0000 00E9                                     start_timer_ciph();
	RCALL _start_timer_ciph
; 0000 00EA                                     cipher(buffer_in, br, expanded_key, buffer_out);
	CALL SUBOPT_0x24
	LDS  R30,_br
	LDS  R31,_br+1
	ST   -Y,R31
	ST   -Y,R30
	LDI  R30,LOW(_expanded_key)
	LDI  R31,HIGH(_expanded_key)
	ST   -Y,R31
	ST   -Y,R30
	LDI  R26,LOW(_buffer_out)
	LDI  R27,HIGH(_buffer_out)
	RCALL _cipher
; 0000 00EB                                     stop_timer_ciph();
	RCALL _stop_timer_ciph
; 0000 00EC                                     i = br;
	LDS  R30,_br
	STS  _i,R30
; 0000 00ED                                     f_write(&file_out, buffer_out, i, &br);
	MOVW R30,R28
	ST   -Y,R31
	ST   -Y,R30
	LDI  R30,LOW(_buffer_out)
	LDI  R31,HIGH(_buffer_out)
	ST   -Y,R31
	ST   -Y,R30
	LDS  R30,_i
	LDI  R31,0
	ST   -Y,R31
	ST   -Y,R30
	LDI  R26,LOW(_br)
	LDI  R27,HIGH(_br)
	CALL _f_write
; 0000 00EE                                     f_read(&file_in, buffer_in, 256,&br); //leer archivo
	CALL SUBOPT_0x21
	CALL SUBOPT_0x24
	CALL SUBOPT_0x25
; 0000 00EF                                     sprintf(aux, "BLOCK %i", n*16);
	LDI  R30,LOW(_aux)
	LDI  R31,HIGH(_aux)
	ST   -Y,R31
	ST   -Y,R30
	__POINTW1FN _0x0,286
	CALL SUBOPT_0x27
	LDI  R24,4
	CALL _sprintf
	ADIW R28,8
; 0000 00F0                                     MoveCursor(0,1);
	CALL SUBOPT_0x28
; 0000 00F1                                     StringLCDVar(aux);
	LDI  R26,LOW(_aux)
	LDI  R27,HIGH(_aux)
	RCALL _StringLCDVar
; 0000 00F2                                 }
	RJMP _0x91
_0x93:
; 0000 00F3                                 stop_timer_all();
	RCALL _stop_timer_all
; 0000 00F4 
; 0000 00F5                                 // ANTES DE LLAMAR LA FUNCION IMPRIMIR EL NOMBRE DEL ARCHIVO
; 0000 00F6                                 printf("BYTES/BITS CYPHERED: %i/%i\n", n*16, n*16*8);
	__POINTW1FN _0x0,295
	CALL SUBOPT_0x27
	LDS  R26,_n
	LDS  R27,_n+1
	LDI  R30,LOW(16)
	CALL __MULB1W2U
	CALL __LSLW3
	CLR  R22
	CLR  R23
	CALL __PUTPARD1
	LDI  R24,8
	CALL _printf
	ADIW R28,10
; 0000 00F7                                 printf("NUMBER OF BLOCKS: %i\n", n*16);
	__POINTW1FN _0x0,323
	CALL SUBOPT_0x27
	CALL SUBOPT_0x29
; 0000 00F8                                 printf("TOTAL TIME: %f\n", time_count_all/0.001);
	__POINTW1FN _0x0,345
	ST   -Y,R31
	ST   -Y,R30
	LDS  R30,_time_count_all
	LDS  R31,_time_count_all+1
	CALL SUBOPT_0x2A
; 0000 00F9                                 printf("CYPHER TIME: %f\n", time_count_ciph/0.001);
	__POINTW1FN _0x0,361
	ST   -Y,R31
	ST   -Y,R30
	LDS  R30,_time_count_ciph
	LDS  R31,_time_count_ciph+1
	CALL SUBOPT_0x2A
; 0000 00FA 
; 0000 00FB                                 EraseLCD();
	CALL SUBOPT_0x2B
; 0000 00FC                                 MoveCursor(0,1);
; 0000 00FD                                 StringLCD("FILE SAVED");
	__POINTW2FN _0x0,378
	CALL SUBOPT_0x1F
; 0000 00FE                                 delay_ms(1500);
; 0000 00FF 
; 0000 0100                                 f_close(&file_out);
	MOVW R26,R28
	CALL SUBOPT_0x2C
; 0000 0101                                 delay_ms(500);
; 0000 0102                             } else
	RJMP _0x94
_0x90:
; 0000 0103                                 StringLCD("FILE NOT FOUND");
	CALL SUBOPT_0x2D
; 0000 0104                             f_close(&file_in);
_0x94:
	MOVW R26,R28
	SUBI R26,LOW(-(544))
	SBCI R27,HIGH(-(544))
	CALL _f_close
; 0000 0105                         } else
	RJMP _0x95
_0x8F:
; 0000 0106                             StringLCD("FILE NOT FOUND");
	CALL SUBOPT_0x2D
; 0000 0107                         break;
_0x95:
	RJMP _0x8D
; 0000 0108                     case '2':
_0x8E:
	CPI  R30,LOW(0x32)
	LDI  R26,HIGH(0x32)
	CPC  R31,R26
	BRNE _0x96
; 0000 0109                         puts("\n\nTYPE NAME OF FILE (WITHOUT EXTENSION)");
	__POINTW2MN _0x8A,172
	RJMP _0xA8
; 0000 010A                         break;
; 0000 010B                     case '3':
_0x96:
	CPI  R30,LOW(0x33)
	LDI  R26,HIGH(0x33)
	CPC  R31,R26
	BRNE _0x98
; 0000 010C                         key_set = 0;
	LDI  R30,LOW(0)
	STS  _key_set,R30
; 0000 010D                         break;
	RJMP _0x8D
; 0000 010E                     default:
_0x98:
; 0000 010F                         puts("WRONG INPUT");
	__POINTW2MN _0x8A,212
_0xA8:
	CALL _puts
; 0000 0110                 }
_0x8D:
; 0000 0111             } else {
	RJMP _0x99
_0x89:
; 0000 0112                 puts("WELCOME!\n PLEASE ENTER THE NAME OF THE FILE WITH THE KEY (.txt NO EXTENSION)\n\n");
	__POINTW2MN _0x8A,224
	CALL SUBOPT_0x20
; 0000 0113                 gets(file_name,100);
; 0000 0114                 strcat(file_name, ".txt");
	CALL SUBOPT_0x22
	__POINTW2MN _0x8A,303
	CALL _strcat
; 0000 0115                 /*Lectura de Archivo*/
; 0000 0116                 res = f_open(&file_in, file_name, FA_OPEN_ALWAYS | FA_WRITE | FA_READ);
	CALL SUBOPT_0x21
	CALL SUBOPT_0x22
	CALL SUBOPT_0x23
; 0000 0117                 if (res==FR_OK){
	BREQ PC+2
	RJMP _0x9A
; 0000 0118                     MoveCursor(0,1);
	CALL SUBOPT_0x28
; 0000 0119                     StringLCD("FILE FOUND");
	__POINTW2FN _0x0,540
	CALL SUBOPT_0x1F
; 0000 011A                     delay_ms(1500);
; 0000 011B 
; 0000 011C                     EraseLCD();
	CALL SUBOPT_0x2B
; 0000 011D                     MoveCursor(0,1);
; 0000 011E                     StringLCD("READING  ...");
	__POINTW2FN _0x0,551
	CALL SUBOPT_0x1F
; 0000 011F                     delay_ms(1500);
; 0000 0120 
; 0000 0121                     f_read(&file_in, buffer_in, 16,&br); //leer archivo
	CALL SUBOPT_0x21
	CALL SUBOPT_0x24
	LDI  R30,LOW(16)
	LDI  R31,HIGH(16)
	ST   -Y,R31
	ST   -Y,R30
	LDI  R26,LOW(_br)
	LDI  R27,HIGH(_br)
	CALL _f_read
; 0000 0122 
; 0000 0123                     if (br == 16) {
	LDS  R26,_br
	LDS  R27,_br+1
	SBIW R26,16
	BRNE _0x9B
; 0000 0124                         for (i = 0; i < 16; i++) {
	LDI  R30,LOW(0)
	STS  _i,R30
_0x9D:
	LDS  R26,_i
	CPI  R26,LOW(0x10)
	BRSH _0x9E
; 0000 0125                             key[i] = buffer_in[i];
	LDI  R27,0
	SUBI R26,LOW(-_key)
	SBCI R27,HIGH(-_key)
	LDS  R30,_i
	LDI  R31,0
	SUBI R30,LOW(-_buffer_in)
	SBCI R31,HIGH(-_buffer_in)
	LD   R30,Z
	ST   X,R30
; 0000 0126                         }
	LDS  R30,_i
	SUBI R30,-LOW(1)
	STS  _i,R30
	RJMP _0x9D
_0x9E:
; 0000 0127                         key_set = 1;
	LDI  R30,LOW(1)
	STS  _key_set,R30
; 0000 0128                         EraseLCD();
	CALL SUBOPT_0x2B
; 0000 0129                         MoveCursor(0,1);
; 0000 012A                         StringLCD("KEY READ");
	__POINTW2FN _0x0,564
	CALL SUBOPT_0x1F
; 0000 012B                         delay_ms(1500);
; 0000 012C                     }
; 0000 012D 
; 0000 012E                     f_close(&file_in);
_0x9B:
	MOVW R26,R28
	SUBI R26,LOW(-(544))
	SBCI R27,HIGH(-(544))
	CALL SUBOPT_0x2C
; 0000 012F                     delay_ms(500);
; 0000 0130                 } else
	RJMP _0x9F
_0x9A:
; 0000 0131                     StringLCD("FILE NOT FOUND");
	CALL SUBOPT_0x2D
; 0000 0132             }
_0x9F:
_0x99:
; 0000 0133         }
	RJMP _0x86
; 0000 0134     } else {
_0x85:
; 0000 0135         StringLCD("DRIVE NOT FOUND");
	__POINTW2FN _0x0,573
	CALL _StringLCD
; 0000 0136     }
; 0000 0137     f_mount(0, 0); //Cerrar drive de SD
	LDI  R30,LOW(0)
	ST   -Y,R30
	LDI  R26,LOW(0)
	LDI  R27,0
	CALL _f_mount
; 0000 0138     while(1);
_0xA1:
	RJMP _0xA1
; 0000 0139 }
_0xA4:
	RJMP _0xA4
; .FEND

	.DSEG
_0x8A:
	.BYTE 0x134
	#ifndef __SLEEP_DEFINED__
	#define __SLEEP_DEFINED__
	.EQU __se_bit=0x01
	.EQU __sm_mask=0x0E
	.EQU __sm_powerdown=0x04
	.EQU __sm_powersave=0x06
	.EQU __sm_standby=0x0C
	.EQU __sm_ext_standby=0x0E
	.EQU __sm_adc_noise_red=0x02
	.SET power_ctrl_reg=smcr
	#endif

	.DSEG

	.CSEG
_crc7_G100:
; .FSTART _crc7_G100
	ST   -Y,R26
	CALL __SAVELOCR4
	LDI  R19,LOW(0)
	LDD  R17,Y+4
_0x2000005:
	LDD  R26,Y+5
	LDD  R27,Y+5+1
	LD   R18,X+
	STD  Y+5,R26
	STD  Y+5+1,R27
	LDI  R16,LOW(8)
_0x2000008:
	LSL  R19
	MOV  R30,R19
	EOR  R30,R18
	ANDI R30,LOW(0x80)
	BREQ _0x200000A
	LDI  R30,LOW(9)
	EOR  R19,R30
_0x200000A:
	LSL  R18
	SUBI R16,LOW(1)
	BRNE _0x2000008
	SUBI R17,LOW(1)
	BRNE _0x2000005
	MOV  R30,R19
	LSL  R30
	ORI  R30,1
	CALL __LOADLOCR4
	RJMP _0x20A0015
; .FEND
_wait_ready_G100:
; .FSTART _wait_ready_G100
	ST   -Y,R16
	LDI  R30,LOW(50)
	STS  _timer2_G100,R30
	LDI  R30,LOW(255)
	OUT  0x2E,R30
_0x200000B:
	IN   R30,0x2D
	SBRS R30,7
	RJMP _0x200000B
_0x200000F:
	LDI  R30,LOW(255)
	OUT  0x2E,R30
_0x2000011:
	IN   R30,0x2D
	SBRS R30,7
	RJMP _0x2000011
	IN   R16,46
	CPI  R16,255
	BREQ _0x2000014
	LDS  R30,_timer2_G100
	CPI  R30,0
	BRNE _0x2000015
_0x2000014:
	RJMP _0x2000010
_0x2000015:
	RJMP _0x200000F
_0x2000010:
	MOV  R30,R16
	RJMP _0x20A0016
; .FEND
_deselect_card_G100:
; .FSTART _deselect_card_G100
	SBI  0x5,0
	LDI  R30,LOW(255)
	OUT  0x2E,R30
_0x2000016:
	IN   R30,0x2D
	SBRS R30,7
	RJMP _0x2000016
	RET
; .FEND
_rx_datablock_G100:
; .FSTART _rx_datablock_G100
	ST   -Y,R27
	ST   -Y,R26
	CALL __SAVELOCR3
	LDI  R30,LOW(20)
	STS  _timer1_G100,R30
_0x200001A:
	LDI  R30,LOW(255)
	OUT  0x2E,R30
_0x200001C:
	IN   R30,0x2D
	SBRS R30,7
	RJMP _0x200001C
	IN   R16,46
	CPI  R16,255
	BRNE _0x200001F
	LDS  R30,_timer1_G100
	CPI  R30,0
	BRNE _0x2000020
_0x200001F:
	RJMP _0x200001B
_0x2000020:
	RJMP _0x200001A
_0x200001B:
	CPI  R16,254
	BREQ _0x2000021
	LDI  R30,LOW(0)
	CALL __LOADLOCR3
	RJMP _0x20A0015
_0x2000021:
	__GETWRS 17,18,5
_0x2000023:
	LDI  R30,LOW(255)
	OUT  0x2E,R30
_0x2000025:
	IN   R30,0x2D
	SBRS R30,7
	RJMP _0x2000025
	PUSH R18
	PUSH R17
	__ADDWRN 17,18,1
	IN   R30,0x2E
	POP  R26
	POP  R27
	ST   X,R30
	LDI  R30,LOW(255)
	OUT  0x2E,R30
_0x2000028:
	IN   R30,0x2D
	SBRS R30,7
	RJMP _0x2000028
	PUSH R18
	PUSH R17
	__ADDWRN 17,18,1
	IN   R30,0x2E
	POP  R26
	POP  R27
	ST   X,R30
	LDI  R30,LOW(255)
	OUT  0x2E,R30
_0x200002B:
	IN   R30,0x2D
	SBRS R30,7
	RJMP _0x200002B
	PUSH R18
	PUSH R17
	__ADDWRN 17,18,1
	IN   R30,0x2E
	POP  R26
	POP  R27
	ST   X,R30
	LDI  R30,LOW(255)
	OUT  0x2E,R30
_0x200002E:
	IN   R30,0x2D
	SBRS R30,7
	RJMP _0x200002E
	PUSH R18
	PUSH R17
	__ADDWRN 17,18,1
	IN   R30,0x2E
	POP  R26
	POP  R27
	ST   X,R30
	LDD  R30,Y+3
	LDD  R31,Y+3+1
	SBIW R30,4
	STD  Y+3,R30
	STD  Y+3+1,R31
	BRNE _0x2000023
	LDI  R30,LOW(255)
	OUT  0x2E,R30
_0x2000031:
	IN   R30,0x2D
	SBRS R30,7
	RJMP _0x2000031
	LDI  R30,LOW(255)
	OUT  0x2E,R30
_0x2000034:
	IN   R30,0x2D
	SBRS R30,7
	RJMP _0x2000034
	LDI  R30,LOW(1)
	CALL __LOADLOCR3
	RJMP _0x20A0015
; .FEND
_tx_datablock_G100:
; .FSTART _tx_datablock_G100
	ST   -Y,R26
	CALL __SAVELOCR4
	RCALL _wait_ready_G100
	CPI  R30,LOW(0xFF)
	BREQ _0x2000037
	LDI  R30,LOW(0)
	CALL __LOADLOCR4
	RJMP _0x20A0015
_0x2000037:
	LDD  R30,Y+4
	OUT  0x2E,R30
_0x2000038:
	IN   R30,0x2D
	SBRS R30,7
	RJMP _0x2000038
	LDD  R26,Y+4
	CPI  R26,LOW(0xFD)
	BREQ _0x200003B
	LDI  R17,LOW(0)
	__GETWRS 18,19,5
_0x200003D:
	MOVW R26,R18
	__ADDWRN 18,19,1
	LD   R30,X
	OUT  0x2E,R30
_0x200003F:
	IN   R30,0x2D
	SBRS R30,7
	RJMP _0x200003F
	MOVW R26,R18
	__ADDWRN 18,19,1
	LD   R30,X
	OUT  0x2E,R30
_0x2000042:
	IN   R30,0x2D
	SBRS R30,7
	RJMP _0x2000042
	SUBI R17,LOW(1)
	BRNE _0x200003D
	LDI  R30,LOW(255)
	OUT  0x2E,R30
_0x2000045:
	IN   R30,0x2D
	SBRS R30,7
	RJMP _0x2000045
	LDI  R30,LOW(255)
	OUT  0x2E,R30
_0x2000048:
	IN   R30,0x2D
	SBRS R30,7
	RJMP _0x2000048
	LDI  R30,LOW(255)
	OUT  0x2E,R30
_0x200004B:
	IN   R30,0x2D
	SBRS R30,7
	RJMP _0x200004B
	IN   R16,46
	MOV  R30,R16
	ANDI R30,LOW(0x1F)
	CPI  R30,LOW(0x5)
	BREQ _0x200004E
	LDI  R30,LOW(0)
	CALL __LOADLOCR4
	RJMP _0x20A0015
_0x200004E:
_0x200003B:
	LDI  R30,LOW(1)
	CALL __LOADLOCR4
	RJMP _0x20A0015
; .FEND
_send_cmd_G100:
; .FSTART _send_cmd_G100
	CALL __PUTPARD2
	ST   -Y,R17
	ST   -Y,R16
	LDD  R30,Y+6
	ANDI R30,LOW(0x80)
	BREQ _0x200004F
	LDD  R30,Y+6
	ANDI R30,0x7F
	STD  Y+6,R30
	LDI  R30,LOW(119)
	ST   -Y,R30
	__GETD2N 0x0
	RCALL _send_cmd_G100
	MOV  R17,R30
	CPI  R17,2
	BRLO _0x2000050
	LDD  R17,Y+1
	LDD  R16,Y+0
	RJMP _0x20A0015
_0x2000050:
_0x200004F:
	LDD  R26,Y+6
	CPI  R26,LOW(0x4C)
	BREQ _0x2000051
	RCALL _deselect_card_G100
	CBI  0x5,0
	RCALL _wait_ready_G100
	CPI  R30,LOW(0xFF)
	BREQ _0x2000052
	LDI  R30,LOW(255)
	LDD  R17,Y+1
	LDD  R16,Y+0
	RJMP _0x20A0015
_0x2000052:
_0x2000051:
	LDD  R30,Y+6
	OUT  0x2E,R30
_0x2000053:
	IN   R30,0x2D
	SBRS R30,7
	RJMP _0x2000053
	LDD  R30,Y+5
	OUT  0x2E,R30
_0x2000056:
	IN   R30,0x2D
	SBRS R30,7
	RJMP _0x2000056
	LDD  R30,Y+4
	OUT  0x2E,R30
_0x2000059:
	IN   R30,0x2D
	SBRS R30,7
	RJMP _0x2000059
	LDD  R30,Y+3
	OUT  0x2E,R30
_0x200005C:
	IN   R30,0x2D
	SBRS R30,7
	RJMP _0x200005C
	LDD  R30,Y+2
	OUT  0x2E,R30
_0x200005F:
	IN   R30,0x2D
	SBRS R30,7
	RJMP _0x200005F
	LDI  R16,LOW(1)
	LDD  R26,Y+6
	CPI  R26,LOW(0x40)
	BRNE _0x2000062
	LDI  R16,LOW(149)
	RJMP _0x2000063
_0x2000062:
	LDD  R26,Y+6
	CPI  R26,LOW(0x48)
	BRNE _0x2000064
	LDI  R16,LOW(135)
_0x2000064:
_0x2000063:
	OUT  0x2E,R16
_0x2000065:
	IN   R30,0x2D
	SBRS R30,7
	RJMP _0x2000065
	LDD  R26,Y+6
	CPI  R26,LOW(0x4C)
	BRNE _0x2000068
	LDI  R30,LOW(255)
	OUT  0x2E,R30
_0x2000069:
	IN   R30,0x2D
	SBRS R30,7
	RJMP _0x2000069
_0x2000068:
	LDI  R16,LOW(255)
_0x200006D:
	LDI  R30,LOW(255)
	OUT  0x2E,R30
_0x200006F:
	IN   R30,0x2D
	SBRS R30,7
	RJMP _0x200006F
	IN   R17,46
	SBRS R17,7
	RJMP _0x2000072
	SUBI R16,LOW(1)
	BRNE _0x2000073
_0x2000072:
	RJMP _0x200006E
_0x2000073:
	RJMP _0x200006D
_0x200006E:
	MOV  R30,R17
	LDD  R17,Y+1
	LDD  R16,Y+0
	RJMP _0x20A0015
; .FEND
_rx_spi4_G100:
; .FSTART _rx_spi4_G100
	ST   -Y,R27
	ST   -Y,R26
	ST   -Y,R16
	LDI  R16,4
_0x2000075:
	LDI  R30,LOW(255)
	OUT  0x2E,R30
_0x2000077:
	IN   R30,0x2D
	SBRS R30,7
	RJMP _0x2000077
	LDD  R26,Y+1
	LDD  R27,Y+1+1
	ADIW R26,1
	STD  Y+1,R26
	STD  Y+1+1,R27
	SBIW R26,1
	IN   R30,0x2E
	ST   X,R30
	SUBI R16,LOW(1)
	BRNE _0x2000075
	RJMP _0x20A0014
; .FEND
_disk_initialize:
; .FSTART _disk_initialize
	ST   -Y,R26
	SBIW R28,4
	CALL __SAVELOCR3
	LDD  R30,Y+7
	CPI  R30,0
	BREQ _0x200007A
	LDI  R30,LOW(1)
	CALL __LOADLOCR3
	RJMP _0x20A0018
_0x200007A:
	CBI  0x4,4
	CBI  0x4,5
	LDI  R30,LOW(10)
	STS  _timer1_G100,R30
_0x200007B:
	LDS  R30,_timer1_G100
	CPI  R30,0
	BRNE _0x200007B
	LDS  R30,_status_G100
	ANDI R30,LOW(0x2)
	BREQ _0x200007E
	LDS  R30,_status_G100
	CALL __LOADLOCR3
	RJMP _0x20A0018
_0x200007E:
	SBI  0x4,0
	SBI  0x5,0
	IN   R30,0x5
	ANDI R30,LOW(0xF9)
	OUT  0x5,R30
	SBI  0x5,3
	CBI  0x4,3
	IN   R30,0x4
	ORI  R30,LOW(0x7)
	OUT  0x4,R30
	LDI  R30,LOW(83)
	OUT  0x2C,R30
	LDI  R30,LOW(0)
	OUT  0x2D,R30
	LDI  R18,LOW(255)
_0x2000080:
	LDI  R16,LOW(10)
_0x2000083:
	LDI  R30,LOW(255)
	OUT  0x2E,R30
_0x2000085:
	IN   R30,0x2D
	SBRS R30,7
	RJMP _0x2000085
	SUBI R16,LOW(1)
	BRNE _0x2000083
	LDI  R30,LOW(64)
	ST   -Y,R30
	__GETD2N 0x0
	RCALL _send_cmd_G100
	MOV  R17,R30
	SUBI R18,LOW(1)
	CPI  R17,1
	BREQ _0x2000088
	CPI  R18,0
	BRNE _0x2000089
_0x2000088:
	RJMP _0x2000081
_0x2000089:
	RJMP _0x2000080
_0x2000081:
	LDI  R18,LOW(0)
	CPI  R17,1
	BREQ PC+2
	RJMP _0x200008A
	LDI  R30,LOW(100)
	STS  _timer1_G100,R30
	LDI  R30,LOW(72)
	ST   -Y,R30
	__GETD2N 0x1AA
	RCALL _send_cmd_G100
	CPI  R30,LOW(0x1)
	BRNE _0x200008B
	MOVW R26,R28
	ADIW R26,3
	RCALL _rx_spi4_G100
	LDD  R26,Y+5
	CPI  R26,LOW(0x1)
	BRNE _0x200008D
	LDD  R26,Y+6
	CPI  R26,LOW(0xAA)
	BREQ _0x200008E
_0x200008D:
	RJMP _0x200008C
_0x200008E:
_0x200008F:
	LDS  R30,_timer1_G100
	CPI  R30,0
	BREQ _0x2000092
	LDI  R30,LOW(233)
	ST   -Y,R30
	__GETD2N 0x40000000
	RCALL _send_cmd_G100
	CPI  R30,0
	BRNE _0x2000093
_0x2000092:
	RJMP _0x2000091
_0x2000093:
	RJMP _0x200008F
_0x2000091:
	LDS  R30,_timer1_G100
	CPI  R30,0
	BREQ _0x2000095
	LDI  R30,LOW(122)
	ST   -Y,R30
	__GETD2N 0x0
	RCALL _send_cmd_G100
	CPI  R30,0
	BREQ _0x2000096
_0x2000095:
	RJMP _0x2000094
_0x2000096:
	MOVW R26,R28
	ADIW R26,3
	RCALL _rx_spi4_G100
	LDD  R30,Y+3
	ANDI R30,LOW(0x40)
	BREQ _0x2000097
	LDI  R30,LOW(12)
	RJMP _0x2000098
_0x2000097:
	LDI  R30,LOW(4)
_0x2000098:
	MOV  R18,R30
_0x2000094:
_0x200008C:
	RJMP _0x200009A
_0x200008B:
	LDI  R30,LOW(233)
	ST   -Y,R30
	__GETD2N 0x0
	RCALL _send_cmd_G100
	CPI  R30,LOW(0x2)
	BRSH _0x200009B
	LDI  R18,LOW(2)
	LDI  R17,LOW(233)
	RJMP _0x200009C
_0x200009B:
	LDI  R18,LOW(1)
	LDI  R17,LOW(65)
_0x200009C:
_0x200009D:
	LDS  R30,_timer1_G100
	CPI  R30,0
	BREQ _0x20000A0
	ST   -Y,R17
	__GETD2N 0x0
	RCALL _send_cmd_G100
	CPI  R30,0
	BRNE _0x20000A1
_0x20000A0:
	RJMP _0x200009F
_0x20000A1:
	RJMP _0x200009D
_0x200009F:
	LDS  R30,_timer1_G100
	CPI  R30,0
	BREQ _0x20000A3
	LDI  R30,LOW(80)
	ST   -Y,R30
	__GETD2N 0x200
	RCALL _send_cmd_G100
	CPI  R30,0
	BREQ _0x20000A2
_0x20000A3:
	LDI  R18,LOW(0)
_0x20000A2:
_0x200009A:
_0x200008A:
	STS  _card_type_G100,R18
	RCALL _deselect_card_G100
	CPI  R18,0
	BREQ _0x20000A5
	LDS  R30,_status_G100
	ANDI R30,0xFE
	STS  _status_G100,R30
	LDI  R30,LOW(80)
	OUT  0x2C,R30
	RJMP _0x20000A6
_0x20000A5:
	CBI  0x5,0
	RCALL _wait_ready_G100
	RCALL _deselect_card_G100
	LDI  R30,LOW(0)
	OUT  0x2C,R30
	IN   R30,0x4
	ANDI R30,LOW(0xF0)
	OUT  0x4,R30
	IN   R30,0x5
	ANDI R30,LOW(0xF0)
	OUT  0x5,R30
	CBI  0x4,0
	LDS  R30,_status_G100
	ORI  R30,1
	STS  _status_G100,R30
_0x20000A6:
	LDS  R30,_status_G100
	CALL __LOADLOCR3
	RJMP _0x20A0018
; .FEND
_disk_status:
; .FSTART _disk_status
	ST   -Y,R26
	LD   R30,Y
	CPI  R30,0
	BREQ _0x20000A7
	LDI  R30,LOW(1)
	RJMP _0x20A0019
_0x20000A7:
	LDS  R30,_status_G100
_0x20A0019:
	ADIW R28,1
	RET
; .FEND
_disk_read:
; .FSTART _disk_read
	ST   -Y,R26
	LDD  R30,Y+7
	CPI  R30,0
	BRNE _0x20000A9
	LD   R30,Y
	CPI  R30,0
	BRNE _0x20000A8
_0x20000A9:
	LDI  R30,LOW(4)
	RJMP _0x20A0018
_0x20000A8:
	LDS  R30,_status_G100
	ANDI R30,LOW(0x1)
	BREQ _0x20000AB
	LDI  R30,LOW(3)
	RJMP _0x20A0018
_0x20000AB:
	LDS  R30,_card_type_G100
	ANDI R30,LOW(0x8)
	BRNE _0x20000AC
	__GETD1S 1
	__GETD2N 0x200
	CALL __MULD12U
	__PUTD1S 1
_0x20000AC:
	LD   R26,Y
	CPI  R26,LOW(0x1)
	BRNE _0x20000AD
	LDI  R30,LOW(81)
	ST   -Y,R30
	__GETD2S 2
	RCALL _send_cmd_G100
	CPI  R30,0
	BRNE _0x20000AE
	LDD  R30,Y+5
	LDD  R31,Y+5+1
	ST   -Y,R31
	ST   -Y,R30
	LDI  R26,LOW(512)
	LDI  R27,HIGH(512)
	RCALL _rx_datablock_G100
	CPI  R30,0
	BREQ _0x20000AF
	LDI  R30,LOW(0)
	ST   Y,R30
_0x20000AF:
_0x20000AE:
	RJMP _0x20000B0
_0x20000AD:
	LDI  R30,LOW(82)
	ST   -Y,R30
	__GETD2S 2
	RCALL _send_cmd_G100
	CPI  R30,0
	BRNE _0x20000B1
_0x20000B3:
	LDD  R30,Y+5
	LDD  R31,Y+5+1
	ST   -Y,R31
	ST   -Y,R30
	LDI  R26,LOW(512)
	LDI  R27,HIGH(512)
	RCALL _rx_datablock_G100
	CPI  R30,0
	BREQ _0x20000B4
	LDD  R30,Y+5
	LDD  R31,Y+5+1
	SUBI R30,LOW(-512)
	SBCI R31,HIGH(-512)
	STD  Y+5,R30
	STD  Y+5+1,R31
	LD   R30,Y
	SUBI R30,LOW(1)
	ST   Y,R30
	BRNE _0x20000B3
_0x20000B4:
	LDI  R30,LOW(76)
	ST   -Y,R30
	__GETD2N 0x0
	RCALL _send_cmd_G100
_0x20000B1:
_0x20000B0:
	RCALL _deselect_card_G100
	LD   R30,Y
	CPI  R30,0
	BREQ _0x20000B6
	LDI  R30,LOW(1)
	RJMP _0x20000B7
_0x20000B6:
	LDI  R30,LOW(0)
_0x20000B7:
	RJMP _0x20A0018
; .FEND
_disk_write:
; .FSTART _disk_write
	ST   -Y,R26
	LDD  R30,Y+7
	CPI  R30,0
	BRNE _0x20000BA
	LD   R30,Y
	CPI  R30,0
	BRNE _0x20000B9
_0x20000BA:
	LDI  R30,LOW(4)
	RJMP _0x20A0018
_0x20000B9:
	LDS  R30,_status_G100
	ANDI R30,LOW(0x1)
	BREQ _0x20000BC
	LDI  R30,LOW(3)
	RJMP _0x20A0018
_0x20000BC:
	LDS  R30,_status_G100
	ANDI R30,LOW(0x4)
	BREQ _0x20000BD
	LDI  R30,LOW(2)
	RJMP _0x20A0018
_0x20000BD:
	LDS  R30,_card_type_G100
	ANDI R30,LOW(0x8)
	BRNE _0x20000BE
	__GETD1S 1
	__GETD2N 0x200
	CALL __MULD12U
	__PUTD1S 1
_0x20000BE:
	LD   R26,Y
	CPI  R26,LOW(0x1)
	BRNE _0x20000BF
	LDI  R30,LOW(88)
	ST   -Y,R30
	__GETD2S 2
	RCALL _send_cmd_G100
	CPI  R30,0
	BRNE _0x20000C0
	LDD  R30,Y+5
	LDD  R31,Y+5+1
	ST   -Y,R31
	ST   -Y,R30
	LDI  R26,LOW(254)
	RCALL _tx_datablock_G100
	CPI  R30,0
	BREQ _0x20000C1
	LDI  R30,LOW(0)
	ST   Y,R30
_0x20000C1:
_0x20000C0:
	RJMP _0x20000C2
_0x20000BF:
	LDS  R30,_card_type_G100
	ANDI R30,LOW(0x6)
	BREQ _0x20000C3
	LDI  R30,LOW(215)
	ST   -Y,R30
	LDD  R26,Y+1
	CLR  R27
	CLR  R24
	CLR  R25
	RCALL _send_cmd_G100
_0x20000C3:
	LDI  R30,LOW(89)
	ST   -Y,R30
	__GETD2S 2
	RCALL _send_cmd_G100
	CPI  R30,0
	BRNE _0x20000C4
_0x20000C6:
	LDD  R30,Y+5
	LDD  R31,Y+5+1
	ST   -Y,R31
	ST   -Y,R30
	LDI  R26,LOW(252)
	RCALL _tx_datablock_G100
	CPI  R30,0
	BREQ _0x20000C7
	LDD  R30,Y+5
	LDD  R31,Y+5+1
	SUBI R30,LOW(-512)
	SBCI R31,HIGH(-512)
	STD  Y+5,R30
	STD  Y+5+1,R31
	LD   R30,Y
	SUBI R30,LOW(1)
	ST   Y,R30
	BRNE _0x20000C6
_0x20000C7:
	LDI  R30,LOW(0)
	LDI  R31,HIGH(0)
	ST   -Y,R31
	ST   -Y,R30
	LDI  R26,LOW(253)
	RCALL _tx_datablock_G100
	CPI  R30,0
	BRNE _0x20000C9
	LDI  R30,LOW(1)
	ST   Y,R30
_0x20000C9:
_0x20000C4:
_0x20000C2:
	RCALL _deselect_card_G100
	LD   R30,Y
	CPI  R30,0
	BREQ _0x20000CA
	LDI  R30,LOW(1)
	RJMP _0x20000CB
_0x20000CA:
	LDI  R30,LOW(0)
_0x20000CB:
_0x20A0018:
	ADIW R28,8
	RET
; .FEND
_disk_ioctl:
; .FSTART _disk_ioctl
	ST   -Y,R27
	ST   -Y,R26
	SBIW R28,16
	CALL __SAVELOCR4
	LDD  R30,Y+23
	CPI  R30,0
	BREQ _0x20000CD
	LDI  R30,LOW(4)
	RJMP _0x20A0017
_0x20000CD:
	LDS  R30,_status_G100
	ANDI R30,LOW(0x1)
	BREQ _0x20000CE
	LDI  R30,LOW(3)
	RJMP _0x20A0017
_0x20000CE:
	LDI  R16,LOW(1)
	LDD  R30,Y+22
	CPI  R30,0
	BRNE _0x20000D2
	CBI  0x5,0
	RCALL _wait_ready_G100
	CPI  R30,LOW(0xFF)
	BRNE _0x20000D3
	LDI  R16,LOW(0)
_0x20000D3:
	RJMP _0x20000D1
_0x20000D2:
	CPI  R30,LOW(0x1)
	BREQ PC+2
	RJMP _0x20000D4
	LDI  R30,LOW(73)
	ST   -Y,R30
	__GETD2N 0x0
	RCALL _send_cmd_G100
	CPI  R30,0
	BRNE _0x20000D6
	MOVW R30,R28
	ADIW R30,4
	ST   -Y,R31
	ST   -Y,R30
	LDI  R26,LOW(16)
	LDI  R27,0
	RCALL _rx_datablock_G100
	CPI  R30,0
	BRNE _0x20000D7
_0x20000D6:
	RJMP _0x20000D5
_0x20000D7:
	LDD  R30,Y+4
	SWAP R30
	ANDI R30,0xF
	LSR  R30
	LSR  R30
	CPI  R30,LOW(0x1)
	BRNE _0x20000D8
	LDI  R30,0
	LDD  R31,Y+12
	LDD  R26,Y+13
	LDI  R27,0
	ADD  R30,R26
	ADC  R31,R27
	ADIW R30,1
	__PUTW1R 17,18
	__GETW2R 17,18
	CLR  R24
	CLR  R25
	LDI  R30,LOW(10)
	RJMP _0x2000109
_0x20000D8:
	LDD  R30,Y+9
	ANDI R30,LOW(0xF)
	MOV  R26,R30
	LDD  R30,Y+14
	ANDI R30,LOW(0x80)
	ROL  R30
	LDI  R30,0
	ROL  R30
	ADD  R26,R30
	LDD  R30,Y+13
	ANDI R30,LOW(0x3)
	LSL  R30
	ADD  R30,R26
	SUBI R30,-LOW(2)
	MOV  R19,R30
	LDD  R30,Y+12
	SWAP R30
	ANDI R30,0xF
	LSR  R30
	LSR  R30
	MOV  R26,R30
	LDD  R30,Y+11
	LDI  R31,0
	CALL __LSLW2
	LDI  R27,0
	ADD  R26,R30
	ADC  R27,R31
	LDD  R30,Y+10
	ANDI R30,LOW(0x3)
	LDI  R31,0
	CALL __LSLW2
	MOV  R31,R30
	LDI  R30,0
	ADD  R30,R26
	ADC  R31,R27
	ADIW R30,1
	__PUTW1R 17,18
	__GETW2R 17,18
	CLR  R24
	CLR  R25
	MOV  R30,R19
	SUBI R30,LOW(9)
_0x2000109:
	CALL __LSLD12
	LDD  R26,Y+20
	LDD  R27,Y+20+1
	CALL __PUTDP1
	LDI  R16,LOW(0)
_0x20000D5:
	RJMP _0x20000D1
_0x20000D4:
	CPI  R30,LOW(0x2)
	BRNE _0x20000DA
	LDD  R26,Y+20
	LDD  R27,Y+20+1
	LDI  R30,LOW(512)
	LDI  R31,HIGH(512)
	ST   X+,R30
	ST   X,R31
	LDI  R16,LOW(0)
	RJMP _0x20000D1
_0x20000DA:
	CPI  R30,LOW(0x3)
	BREQ PC+2
	RJMP _0x20000DB
	LDS  R30,_card_type_G100
	ANDI R30,LOW(0x4)
	BREQ _0x20000DC
	LDI  R30,LOW(205)
	ST   -Y,R30
	__GETD2N 0x0
	RCALL _send_cmd_G100
	CPI  R30,0
	BRNE _0x20000DD
	LDI  R30,LOW(255)
	OUT  0x2E,R30
_0x20000DE:
	IN   R30,0x2D
	SBRS R30,7
	RJMP _0x20000DE
	MOVW R30,R28
	ADIW R30,4
	ST   -Y,R31
	ST   -Y,R30
	LDI  R26,LOW(16)
	LDI  R27,0
	RCALL _rx_datablock_G100
	CPI  R30,0
	BREQ _0x20000E1
	LDI  R19,LOW(48)
_0x20000E3:
	CPI  R19,0
	BREQ _0x20000E4
	LDI  R30,LOW(255)
	OUT  0x2E,R30
_0x20000E5:
	IN   R30,0x2D
	SBRS R30,7
	RJMP _0x20000E5
	SUBI R19,1
	RJMP _0x20000E3
_0x20000E4:
	LDD  R30,Y+14
	SWAP R30
	ANDI R30,0xF
	__GETD2N 0x10
	CALL __LSLD12
	LDD  R26,Y+20
	LDD  R27,Y+20+1
	CALL __PUTDP1
	LDI  R16,LOW(0)
_0x20000E1:
_0x20000DD:
	RJMP _0x20000E8
_0x20000DC:
	LDI  R30,LOW(73)
	ST   -Y,R30
	__GETD2N 0x0
	RCALL _send_cmd_G100
	CPI  R30,0
	BREQ PC+2
	RJMP _0x20000E9
	MOVW R30,R28
	ADIW R30,4
	ST   -Y,R31
	ST   -Y,R30
	LDI  R26,LOW(16)
	LDI  R27,0
	RCALL _rx_datablock_G100
	CPI  R30,0
	BRNE PC+2
	RJMP _0x20000EA
	LDS  R30,_card_type_G100
	ANDI R30,LOW(0x2)
	BREQ _0x20000EB
	LDD  R30,Y+14
	ANDI R30,LOW(0x3F)
	CLR  R31
	CLR  R22
	CLR  R23
	CALL __LSLD1
	PUSH R23
	PUSH R22
	PUSH R31
	PUSH R30
	LDD  R30,Y+15
	ANDI R30,LOW(0x80)
	CLR  R31
	CLR  R22
	CLR  R23
	MOVW R26,R30
	MOVW R24,R22
	LDI  R30,LOW(7)
	CALL __LSRD12
	POP  R26
	POP  R27
	POP  R24
	POP  R25
	CALL __ADDD12
	__ADDD1N 1
	MOVW R26,R30
	MOVW R24,R22
	LDD  R30,Y+17
	SWAP R30
	ANDI R30,0xF
	LSR  R30
	LSR  R30
	SUBI R30,LOW(1)
	CALL __LSLD12
	RJMP _0x200010A
_0x20000EB:
	LDD  R30,Y+14
	ANDI R30,LOW(0x7C)
	LSR  R30
	LSR  R30
	CLR  R31
	CLR  R22
	CLR  R23
	__ADDD1N 1
	PUSH R23
	PUSH R22
	PUSH R31
	PUSH R30
	LDD  R30,Y+15
	ANDI R30,LOW(0x3)
	CLR  R31
	CLR  R22
	CLR  R23
	MOVW R26,R30
	MOVW R24,R22
	LDI  R30,LOW(3)
	CALL __LSLD12
	MOVW R26,R30
	MOVW R24,R22
	LDD  R30,Y+15
	ANDI R30,LOW(0xE0)
	SWAP R30
	ANDI R30,0xF
	LSR  R30
	CLR  R31
	CLR  R22
	CLR  R23
	CALL __ADDD12
	__ADDD1N 1
	POP  R26
	POP  R27
	POP  R24
	POP  R25
	CALL __MULD12U
_0x200010A:
	LDD  R26,Y+20
	LDD  R27,Y+20+1
	CALL __PUTDP1
	LDI  R16,LOW(0)
_0x20000EA:
_0x20000E9:
_0x20000E8:
	RJMP _0x20000D1
_0x20000DB:
	CPI  R30,LOW(0xA)
	BRNE _0x20000ED
	LDS  R30,_card_type_G100
	LDD  R26,Y+20
	LDD  R27,Y+20+1
	ST   X,R30
	LDI  R16,LOW(0)
	RJMP _0x20000D1
_0x20000ED:
	CPI  R30,LOW(0xB)
	BRNE _0x20000EE
	LDI  R19,LOW(73)
	RJMP _0x20000EF
_0x20000EE:
	CPI  R30,LOW(0xC)
	BRNE _0x20000F1
	LDI  R19,LOW(74)
_0x20000EF:
	ST   -Y,R19
	__GETD2N 0x0
	RCALL _send_cmd_G100
	CPI  R30,0
	BRNE _0x20000F2
	LDD  R30,Y+20
	LDD  R31,Y+20+1
	ST   -Y,R31
	ST   -Y,R30
	LDI  R26,LOW(16)
	LDI  R27,0
	RCALL _rx_datablock_G100
	CPI  R30,0
	BREQ _0x20000F3
	LDD  R30,Y+20
	LDD  R31,Y+20+1
	ST   -Y,R31
	ST   -Y,R30
	LDI  R26,LOW(15)
	RCALL _crc7_G100
	MOV  R26,R30
	LDD  R30,Y+20
	LDD  R31,Y+20+1
	LDD  R30,Z+15
	CP   R30,R26
	BRNE _0x20000F4
	LDI  R16,LOW(0)
_0x20000F4:
_0x20000F3:
_0x20000F2:
	RJMP _0x20000D1
_0x20000F1:
	CPI  R30,LOW(0xD)
	BRNE _0x20000F5
	LDI  R30,LOW(122)
	ST   -Y,R30
	__GETD2N 0x0
	RCALL _send_cmd_G100
	CPI  R30,0
	BRNE _0x20000F6
	LDD  R26,Y+20
	LDD  R27,Y+20+1
	RCALL _rx_spi4_G100
	LDI  R16,LOW(0)
_0x20000F6:
	RJMP _0x20000D1
_0x20000F5:
	CPI  R30,LOW(0xE)
	BRNE _0x20000FD
	LDI  R30,LOW(205)
	ST   -Y,R30
	__GETD2N 0x0
	RCALL _send_cmd_G100
	CPI  R30,0
	BRNE _0x20000F8
	LDI  R30,LOW(255)
	OUT  0x2E,R30
_0x20000F9:
	IN   R30,0x2D
	SBRS R30,7
	RJMP _0x20000F9
	LDD  R30,Y+20
	LDD  R31,Y+20+1
	ST   -Y,R31
	ST   -Y,R30
	LDI  R26,LOW(64)
	LDI  R27,0
	RCALL _rx_datablock_G100
	CPI  R30,0
	BREQ _0x20000FC
	LDI  R16,LOW(0)
_0x20000FC:
_0x20000F8:
	RJMP _0x20000D1
_0x20000FD:
	LDI  R16,LOW(4)
_0x20000D1:
	RCALL _deselect_card_G100
	MOV  R30,R16
_0x20A0017:
	CALL __LOADLOCR4
	ADIW R28,24
	RET
; .FEND
_disk_timerproc:
; .FSTART _disk_timerproc

	.DSEG

	.CSEG
	ST   -Y,R16
	LDS  R16,_timer1_G100
	CPI  R16,0
	BREQ _0x20000FF
	SUBI R16,LOW(1)
	STS  _timer1_G100,R16
_0x20000FF:
	LDS  R16,_timer2_G100
	CPI  R16,0
	BREQ _0x2000100
	SUBI R16,LOW(1)
	STS  _timer2_G100,R16
_0x2000100:
	LDS  R16,_flags_S100000C000
	LDI  R30,LOW(0)
	STS  _flags_S100000C000,R30
	SBIC 0x3,4
	RJMP _0x2000101
	LDI  R30,LOW(1)
	STS  _flags_S100000C000,R30
_0x2000101:
	SBIS 0x3,5
	RJMP _0x2000102
	LDS  R30,_flags_S100000C000
	ORI  R30,2
	STS  _flags_S100000C000,R30
_0x2000102:
	LDS  R30,_flags_S100000C000
	CP   R30,R16
	BRNE _0x2000103
	LDS  R16,_status_G100
	ANDI R30,LOW(0x1)
	BREQ _0x2000104
	ANDI R16,LOW(253)
	RJMP _0x2000105
_0x2000104:
	ORI  R16,LOW(3)
_0x2000105:
	LDS  R30,_flags_S100000C000
	ANDI R30,LOW(0x2)
	BREQ _0x2000106
	ORI  R16,LOW(4)
	RJMP _0x2000107
_0x2000106:
	ANDI R16,LOW(251)
_0x2000107:
	STS  _status_G100,R16
_0x2000103:
_0x20A0016:
	LD   R16,Y+
	RET
; .FEND

	.CSEG
_get_fattime:
; .FSTART _get_fattime
	SBIW R28,7
	LDS  R26,_prtc_get_time
	LDS  R27,_prtc_get_time+1
	SBIW R26,0
	BREQ _0x2020004
	LDS  R26,_prtc_get_date
	LDS  R27,_prtc_get_date+1
	SBIW R26,0
	BRNE _0x2020003
_0x2020004:
	__GETD1N 0x3A210000
	RJMP _0x20A0015
_0x2020003:
	MOVW R30,R28
	ADIW R30,6
	ST   -Y,R31
	ST   -Y,R30
	MOVW R30,R28
	ADIW R30,7
	ST   -Y,R31
	ST   -Y,R30
	MOVW R26,R28
	ADIW R26,8
	__CALL1MN _prtc_get_time,0
	CALL SUBOPT_0xF
	MOVW R30,R28
	ADIW R30,4
	ST   -Y,R31
	ST   -Y,R30
	MOVW R26,R28
	ADIW R26,4
	__CALL1MN _prtc_get_date,0
	LD   R30,Y
	LDD  R31,Y+1
	SUBI R30,LOW(1980)
	SBCI R31,HIGH(1980)
	CLR  R22
	CLR  R23
	MOVW R26,R30
	MOVW R24,R22
	LDI  R30,LOW(25)
	CALL __LSLD12
	PUSH R23
	PUSH R22
	PUSH R31
	PUSH R30
	LDD  R30,Y+2
	CALL SUBOPT_0x2E
	LDI  R30,LOW(21)
	CALL __LSLD12
	POP  R26
	POP  R27
	POP  R24
	POP  R25
	CALL __ORD12
	MOVW R26,R30
	MOVW R24,R22
	LDD  R30,Y+3
	LDI  R31,0
	CALL __CWD1
	CALL __LSLD16
	CALL __ORD12
	PUSH R23
	PUSH R22
	PUSH R31
	PUSH R30
	LDD  R30,Y+6
	CALL SUBOPT_0x2E
	LDI  R30,LOW(11)
	CALL __LSLD12
	POP  R26
	POP  R27
	POP  R24
	POP  R25
	CALL __ORD12
	PUSH R23
	PUSH R22
	PUSH R31
	PUSH R30
	LDD  R30,Y+5
	CALL SUBOPT_0x2E
	LDI  R30,LOW(5)
	CALL __LSLD12
	POP  R26
	POP  R27
	POP  R24
	POP  R25
	CALL __ORD12
	MOVW R26,R30
	MOVW R24,R22
	LDD  R30,Y+4
	LDI  R31,0
	ASR  R31
	ROR  R30
	CALL __CWD1
	CALL __ORD12
_0x20A0015:
	ADIW R28,7
	RET
; .FEND
_chk_chrf_G101:
; .FSTART _chk_chrf_G101
	ST   -Y,R26
	ST   -Y,R16
_0x2020006:
	LDD  R30,Y+2
	LDD  R31,Y+2+1
	LPM  R30,Z
	MOV  R16,R30
	CPI  R30,0
	BREQ _0x2020009
	LDD  R30,Y+1
	CP   R30,R16
	BRNE _0x202000A
_0x2020009:
	RJMP _0x2020008
_0x202000A:
	LDD  R30,Y+2
	LDD  R31,Y+2+1
	ADIW R30,1
	STD  Y+2,R30
	STD  Y+2+1,R31
	RJMP _0x2020006
_0x2020008:
	MOV  R30,R16
	LDI  R31,0
	LDD  R16,Y+0
	ADIW R28,4
	RET
; .FEND
_move_window_G101:
; .FSTART _move_window_G101
	CALL __PUTPARD2
	SBIW R28,4
	ST   -Y,R16
	LDD  R26,Y+9
	LDD  R27,Y+9+1
	ADIW R26,46
	CALL __GETD1P
	CALL SUBOPT_0x2F
	CALL SUBOPT_0x30
	CALL SUBOPT_0x31
	CALL __CPD12
	BRNE PC+2
	RJMP _0x202000B
	LDD  R30,Y+9
	LDD  R31,Y+9+1
	LDD  R30,Z+4
	CPI  R30,0
	BREQ _0x202000C
	CALL SUBOPT_0x32
	CPI  R30,0
	BREQ _0x202000D
	LDI  R30,LOW(1)
	RJMP _0x20A0012
_0x202000D:
	LDD  R26,Y+9
	LDD  R27,Y+9+1
	ADIW R26,4
	LDI  R30,LOW(0)
	ST   X,R30
	LDD  R30,Y+9
	LDD  R31,Y+9+1
	CALL SUBOPT_0x33
	MOVW R0,R26
	LDD  R26,Y+9
	LDD  R27,Y+9+1
	ADIW R26,26
	CALL __GETD1P
	MOVW R26,R0
	CALL __ADDD12
	CALL SUBOPT_0x31
	CALL __CPD21
	BRSH _0x202000E
	LDD  R30,Y+9
	LDD  R31,Y+9+1
	LDD  R16,Z+3
_0x2020010:
	CPI  R16,2
	BRLO _0x2020011
	LDD  R26,Y+9
	LDD  R27,Y+9+1
	ADIW R26,26
	CALL __GETD1P
	CALL SUBOPT_0x31
	CALL __ADDD12
	CALL SUBOPT_0x2F
	CALL SUBOPT_0x32
	SUBI R16,1
	RJMP _0x2020010
_0x2020011:
_0x202000E:
_0x202000C:
	CALL SUBOPT_0x30
	CALL __CPD10
	BREQ _0x2020012
	LDD  R30,Y+9
	LDD  R31,Y+9+1
	LDD  R26,Z+1
	ST   -Y,R26
	LDD  R30,Y+10
	LDD  R31,Y+10+1
	ADIW R30,50
	ST   -Y,R31
	ST   -Y,R30
	CALL SUBOPT_0x34
	CALL SUBOPT_0x35
	BREQ _0x2020013
	LDI  R30,LOW(1)
	RJMP _0x20A0012
_0x2020013:
	CALL SUBOPT_0x30
	__PUTD1SNS 9,46
_0x2020012:
_0x202000B:
	LDI  R30,LOW(0)
	RJMP _0x20A0012
; .FEND
_sync_G101:
; .FSTART _sync_G101
	ST   -Y,R27
	ST   -Y,R26
	ST   -Y,R16
	LDD  R30,Y+1
	LDD  R31,Y+1+1
	CALL SUBOPT_0x36
	MOV  R16,R30
	CPI  R16,0
	BREQ PC+2
	RJMP _0x2020014
	LDD  R26,Y+1
	LDD  R27,Y+1+1
	LD   R26,X
	CPI  R26,LOW(0x3)
	BRNE _0x2020016
	LDD  R30,Y+1
	LDD  R31,Y+1+1
	LDD  R30,Z+5
	CPI  R30,0
	BRNE _0x2020017
_0x2020016:
	RJMP _0x2020015
_0x2020017:
	LDD  R26,Y+1
	LDD  R27,Y+1+1
	CALL SUBOPT_0x37
	LDD  R30,Y+1
	LDD  R31,Y+1+1
	CALL SUBOPT_0x38
	LDD  R30,Y+1
	LDD  R31,Y+1+1
	ADIW R30,50
	SUBI R30,LOW(-510)
	SBCI R31,HIGH(-510)
	LDI  R26,LOW(43605)
	LDI  R27,HIGH(43605)
	STD  Z+0,R26
	STD  Z+1,R27
	LDD  R30,Y+1
	LDD  R31,Y+1+1
	ADIW R30,50
	__GETD2N 0x41615252
	CALL SUBOPT_0x39
	SUBI R30,LOW(-484)
	SBCI R31,HIGH(-484)
	__GETD2N 0x61417272
	CALL SUBOPT_0x39
	SUBI R30,LOW(-488)
	SBCI R31,HIGH(-488)
	MOVW R0,R30
	LDD  R26,Y+1
	LDD  R27,Y+1+1
	ADIW R26,14
	CALL SUBOPT_0x3A
	ADIW R30,50
	SUBI R30,LOW(-492)
	SBCI R31,HIGH(-492)
	MOVW R0,R30
	LDD  R26,Y+1
	LDD  R27,Y+1+1
	ADIW R26,10
	CALL SUBOPT_0x3A
	LDD  R26,Z+1
	ST   -Y,R26
	LDD  R30,Y+2
	LDD  R31,Y+2+1
	ADIW R30,50
	ST   -Y,R31
	ST   -Y,R30
	LDD  R30,Y+4
	LDD  R31,Y+4+1
	CALL SUBOPT_0x3B
	RCALL _disk_write
	LDD  R26,Y+1
	LDD  R27,Y+1+1
	ADIW R26,5
	LDI  R30,LOW(0)
	ST   X,R30
_0x2020015:
	LDD  R30,Y+1
	LDD  R31,Y+1+1
	LDD  R26,Z+1
	ST   -Y,R26
	LDI  R30,LOW(0)
	ST   -Y,R30
	LDI  R26,LOW(0)
	LDI  R27,HIGH(0)
	RCALL _disk_ioctl
	CPI  R30,0
	BREQ _0x2020018
	LDI  R16,LOW(1)
_0x2020018:
_0x2020014:
	MOV  R30,R16
_0x20A0014:
	LDD  R16,Y+0
	ADIW R28,3
	RET
; .FEND
_get_fat:
; .FSTART _get_fat
	CALL __PUTPARD2
	SBIW R28,4
	CALL __SAVELOCR4
	CALL SUBOPT_0x3C
	CALL SUBOPT_0x3D
	BRLO _0x202001A
	LDD  R26,Y+12
	LDD  R27,Y+12+1
	ADIW R26,30
	CALL __GETD1P
	CALL SUBOPT_0x3C
	CALL __CPD21
	BRLO _0x2020019
_0x202001A:
	CALL SUBOPT_0x3E
	RJMP _0x20A0013
_0x2020019:
	LDD  R26,Y+12
	LDD  R27,Y+12+1
	ADIW R26,34
	CALL SUBOPT_0x3F
	LDD  R26,Y+12
	LDD  R27,Y+12+1
	LD   R30,X
	LDI  R31,0
	CPI  R30,LOW(0x1)
	LDI  R26,HIGH(0x1)
	CPC  R31,R26
	BRNE _0x202001F
	__GETWRS 18,19,8
	MOVW R30,R18
	LSR  R31
	ROR  R30
	__ADDWRR 18,19,30,31
	CALL SUBOPT_0x40
	BREQ _0x2020020
	RJMP _0x202001E
_0x2020020:
	CALL SUBOPT_0x41
	LD   R16,X
	CLR  R17
	__ADDWRN 18,19,1
	CALL SUBOPT_0x40
	BRNE _0x202001E
	CALL SUBOPT_0x41
	LD   R30,X
	MOV  R31,R30
	LDI  R30,0
	__ORWRR 16,17,30,31
	LDD  R30,Y+8
	ANDI R30,LOW(0x1)
	BREQ _0x2020022
	MOVW R30,R16
	CALL __LSRW4
	RJMP _0x202027A
_0x2020022:
	MOVW R30,R16
	ANDI R31,HIGH(0xFFF)
_0x202027A:
	CLR  R22
	CLR  R23
	RJMP _0x20A0013
_0x202001F:
	CPI  R30,LOW(0x2)
	LDI  R26,HIGH(0x2)
	CPC  R31,R26
	BRNE _0x2020025
	CALL SUBOPT_0x42
	CALL SUBOPT_0x43
	CALL SUBOPT_0x44
	BRNE _0x202001E
	LDD  R26,Y+8
	LDD  R27,Y+8+1
	LDI  R30,LOW(2)
	CALL SUBOPT_0x45
	CALL SUBOPT_0x46
	RJMP _0x20A0013
_0x2020025:
	CPI  R30,LOW(0x3)
	LDI  R26,HIGH(0x3)
	CPC  R31,R26
	BRNE _0x202001E
	CALL SUBOPT_0x42
	CALL SUBOPT_0x47
	CALL SUBOPT_0x44
	BRNE _0x202001E
	LDD  R26,Y+8
	LDD  R27,Y+8+1
	LDI  R30,LOW(4)
	CALL SUBOPT_0x45
	CALL __GETD1P
	__ANDD1N 0xFFFFFFF
	RJMP _0x20A0013
_0x202001E:
	CALL SUBOPT_0x48
_0x20A0013:
	CALL __LOADLOCR4
	ADIW R28,14
	RET
; .FEND
_put_fat:
; .FSTART _put_fat
	CALL __PUTPARD2
	SBIW R28,4
	CALL __SAVELOCR5
	CALL SUBOPT_0x49
	CALL SUBOPT_0x3D
	BRLO _0x202002A
	LDD  R26,Y+17
	LDD  R27,Y+17+1
	ADIW R26,30
	CALL __GETD1P
	CALL SUBOPT_0x49
	CALL __CPD21
	BRLO _0x2020029
_0x202002A:
	LDI  R20,LOW(2)
	RJMP _0x202002C
_0x2020029:
	LDD  R26,Y+17
	LDD  R27,Y+17+1
	ADIW R26,34
	CALL __GETD1P
	__PUTD1S 5
	LDD  R26,Y+17
	LDD  R27,Y+17+1
	LD   R30,X
	LDI  R31,0
	CPI  R30,LOW(0x1)
	LDI  R26,HIGH(0x1)
	CPC  R31,R26
	BREQ PC+2
	RJMP _0x2020030
	__GETWRS 16,17,13
	MOVW R30,R16
	LSR  R31
	ROR  R30
	__ADDWRR 16,17,30,31
	CALL SUBOPT_0x4A
	BREQ _0x2020031
	RJMP _0x202002F
_0x2020031:
	CALL SUBOPT_0x4B
	BREQ _0x2020032
	MOVW R26,R18
	LD   R30,X
	ANDI R30,LOW(0xF)
	MOV  R26,R30
	LDD  R30,Y+9
	LDI  R31,0
	CALL __LSLW4
	OR   R30,R26
	RJMP _0x2020033
_0x2020032:
	LDD  R30,Y+9
_0x2020033:
	MOVW R26,R18
	ST   X,R30
	__ADDWRN 16,17,1
	LDD  R26,Y+17
	LDD  R27,Y+17+1
	ADIW R26,4
	LDI  R30,LOW(1)
	ST   X,R30
	CALL SUBOPT_0x4A
	BREQ _0x2020035
	RJMP _0x202002F
_0x2020035:
	CALL SUBOPT_0x4B
	BREQ _0x2020036
	CALL SUBOPT_0x4C
	LDI  R30,LOW(4)
	CALL __LSRD12
	CLR  R31
	CLR  R22
	CLR  R23
	RJMP _0x2020037
_0x2020036:
	MOVW R26,R18
	LD   R30,X
	ANDI R30,LOW(0xF0)
	MOV  R1,R30
	CALL SUBOPT_0x4C
	LDI  R30,LOW(8)
	CALL __LSRD12
	CLR  R31
	CLR  R22
	CLR  R23
	ANDI R30,LOW(0xF)
	OR   R30,R1
_0x2020037:
	MOVW R26,R18
	ST   X,R30
	RJMP _0x202002F
_0x2020030:
	CPI  R30,LOW(0x2)
	LDI  R26,HIGH(0x2)
	CPC  R31,R26
	BRNE _0x2020039
	CALL SUBOPT_0x4D
	CALL SUBOPT_0x43
	CALL SUBOPT_0x4E
	BRNE _0x202002F
	LDD  R26,Y+13
	LDD  R27,Y+13+1
	LDI  R30,LOW(2)
	CALL SUBOPT_0x4F
	LDD  R26,Y+9
	LDD  R27,Y+9+1
	STD  Z+0,R26
	STD  Z+1,R27
	RJMP _0x202002F
_0x2020039:
	CPI  R30,LOW(0x3)
	LDI  R26,HIGH(0x3)
	CPC  R31,R26
	BRNE _0x202003D
	CALL SUBOPT_0x4D
	CALL SUBOPT_0x47
	CALL SUBOPT_0x4E
	BRNE _0x202002F
	LDD  R26,Y+13
	LDD  R27,Y+13+1
	LDI  R30,LOW(4)
	CALL SUBOPT_0x4F
	CALL SUBOPT_0x4C
	CALL __PUTDZ20
	RJMP _0x202002F
_0x202003D:
	LDI  R20,LOW(2)
_0x202002F:
	LDD  R26,Y+17
	LDD  R27,Y+17+1
	ADIW R26,4
	LDI  R30,LOW(1)
	ST   X,R30
_0x202002C:
	MOV  R30,R20
	CALL __LOADLOCR5
	ADIW R28,19
	RET
; .FEND
_remove_chain_G101:
; .FSTART _remove_chain_G101
	CALL __PUTPARD2
	SBIW R28,4
	ST   -Y,R16
	CALL SUBOPT_0x50
	CALL SUBOPT_0x3D
	BRLO _0x202003F
	CALL SUBOPT_0x51
	BRLO _0x202003E
_0x202003F:
	LDI  R16,LOW(2)
	RJMP _0x2020041
_0x202003E:
	LDI  R16,LOW(0)
_0x2020042:
	CALL SUBOPT_0x51
	BRLO PC+2
	RJMP _0x2020044
	LDD  R30,Y+9
	LDD  R31,Y+9+1
	ST   -Y,R31
	ST   -Y,R30
	__GETD2S 7
	RCALL _get_fat
	CALL SUBOPT_0x2F
	__GETD1S 1
	CALL __CPD10
	BREQ _0x2020044
	CALL SUBOPT_0x31
	CALL SUBOPT_0x52
	BRNE _0x2020046
	LDI  R16,LOW(2)
	RJMP _0x2020044
_0x2020046:
	CALL SUBOPT_0x31
	CALL SUBOPT_0x53
	BRNE _0x2020047
	LDI  R16,LOW(1)
	RJMP _0x2020044
_0x2020047:
	LDD  R30,Y+9
	LDD  R31,Y+9+1
	ST   -Y,R31
	ST   -Y,R30
	CALL SUBOPT_0x54
	CALL __PUTPARD1
	CALL SUBOPT_0x55
	RCALL _put_fat
	MOV  R16,R30
	CPI  R16,0
	BRNE _0x2020044
	LDD  R30,Y+9
	LDD  R31,Y+9+1
	CALL SUBOPT_0x56
	BREQ _0x2020049
	LDD  R26,Y+9
	LDD  R27,Y+9+1
	CALL SUBOPT_0x57
	LDD  R26,Y+9
	LDD  R27,Y+9+1
	ADIW R26,5
	LDI  R30,LOW(1)
	ST   X,R30
_0x2020049:
	__GETD1S 1
	__PUTD1S 5
	RJMP _0x2020042
_0x2020044:
_0x2020041:
	MOV  R30,R16
_0x20A0012:
	LDD  R16,Y+0
	ADIW R28,11
	RET
; .FEND
_create_chain_G101:
; .FSTART _create_chain_G101
	CALL __PUTPARD2
	SBIW R28,16
	LDD  R26,Y+20
	LDD  R27,Y+20+1
	ADIW R26,30
	CALL __GETD1P
	CALL SUBOPT_0x58
	CALL SUBOPT_0x59
	CALL __CPD10
	BRNE _0x202004A
	LDD  R26,Y+20
	LDD  R27,Y+20+1
	ADIW R26,10
	CALL SUBOPT_0x3F
	CALL SUBOPT_0x5A
	CALL __CPD02
	BREQ _0x202004C
	CALL SUBOPT_0x5B
	CALL SUBOPT_0x5A
	CALL __CPD21
	BRLO _0x202004B
_0x202004C:
	CALL SUBOPT_0x3E
	CALL SUBOPT_0x5C
_0x202004B:
	RJMP _0x202004E
_0x202004A:
	CALL SUBOPT_0x5D
	__GETD2S 18
	CALL SUBOPT_0x5E
	CALL SUBOPT_0x5F
	CALL SUBOPT_0x3D
	BRSH _0x202004F
	CALL SUBOPT_0x3E
	RJMP _0x20A0011
_0x202004F:
	CALL SUBOPT_0x5B
	CALL SUBOPT_0x5F
	CALL __CPD21
	BRSH _0x2020050
	CALL SUBOPT_0x60
	RJMP _0x20A0011
_0x2020050:
	CALL SUBOPT_0x59
	CALL SUBOPT_0x5C
_0x202004E:
	CALL SUBOPT_0x61
	CALL SUBOPT_0x62
_0x2020052:
	CALL SUBOPT_0x34
	__SUBD1N -1
	CALL SUBOPT_0x62
	CALL SUBOPT_0x5B
	CALL SUBOPT_0x3C
	CALL __CPD21
	BRLO _0x2020054
	__GETD1N 0x2
	CALL SUBOPT_0x62
	CALL SUBOPT_0x63
	BRSH _0x2020055
	CALL SUBOPT_0x64
	RJMP _0x20A0011
_0x2020055:
_0x2020054:
	CALL SUBOPT_0x5D
	__GETD2S 10
	CALL SUBOPT_0x5E
	CALL SUBOPT_0x60
	CALL __CPD10
	BREQ _0x2020053
	CALL SUBOPT_0x5F
	CALL SUBOPT_0x53
	BREQ _0x2020058
	CALL SUBOPT_0x5F
	CALL SUBOPT_0x52
	BRNE _0x2020057
_0x2020058:
	CALL SUBOPT_0x60
	RJMP _0x20A0011
_0x2020057:
	CALL SUBOPT_0x63
	BRNE _0x202005A
	CALL SUBOPT_0x64
	RJMP _0x20A0011
_0x202005A:
	RJMP _0x2020052
_0x2020053:
	CALL SUBOPT_0x5D
	CALL SUBOPT_0x65
	__GETD2N 0xFFFFFFF
	RCALL _put_fat
	CPI  R30,0
	BREQ _0x202005B
	CALL SUBOPT_0x48
	RJMP _0x20A0011
_0x202005B:
	CALL SUBOPT_0x59
	CALL __CPD10
	BREQ _0x202005C
	CALL SUBOPT_0x5D
	__GETD1S 18
	CALL __PUTPARD1
	__GETD2S 14
	RCALL _put_fat
	CPI  R30,0
	BREQ _0x202005D
	CALL SUBOPT_0x48
	RJMP _0x20A0011
_0x202005D:
_0x202005C:
	CALL SUBOPT_0x34
	__PUTD1SNS 20,10
	LDD  R30,Y+20
	LDD  R31,Y+20+1
	CALL SUBOPT_0x56
	BREQ _0x202005E
	LDD  R26,Y+20
	LDD  R27,Y+20+1
	ADIW R26,14
	CALL __GETD1P_INC
	SBIW R30,1
	SBCI R22,0
	SBCI R23,0
	CALL __PUTDP1_DEC
	LDD  R26,Y+20
	LDD  R27,Y+20+1
	ADIW R26,5
	LDI  R30,LOW(1)
	ST   X,R30
_0x202005E:
	CALL SUBOPT_0x34
_0x20A0011:
	ADIW R28,22
	RET
; .FEND
_clust2sect:
; .FSTART _clust2sect
	CALL __PUTPARD2
	CALL SUBOPT_0x5B
	__SUBD1N 2
	CALL SUBOPT_0x58
	LDD  R30,Y+4
	LDD  R31,Y+4+1
	__GETD2Z 30
	__GETD1N 0x2
	CALL SUBOPT_0x66
	CALL __GETD2S0
	CALL __CPD21
	BRLO _0x202005F
	CALL SUBOPT_0x64
	RJMP _0x20A000C
_0x202005F:
	LDD  R30,Y+4
	LDD  R31,Y+4+1
	LDD  R30,Z+2
	LDI  R31,0
	CALL __GETD2S0
	CALL __CWD1
	CALL __MULD12U
	PUSH R23
	PUSH R22
	PUSH R31
	PUSH R30
	LDD  R26,Y+4
	LDD  R27,Y+4+1
	ADIW R26,42
	CALL __GETD1P
	POP  R26
	POP  R27
	POP  R24
	POP  R25
	CALL __ADDD12
	RJMP _0x20A000C
; .FEND
_dir_seek_G101:
; .FSTART _dir_seek_G101
	ST   -Y,R27
	ST   -Y,R26
	SBIW R28,4
	ST   -Y,R17
	ST   -Y,R16
	LDD  R30,Y+6
	LDD  R31,Y+6+1
	CALL SUBOPT_0x67
	ADIW R26,6
	CALL SUBOPT_0x68
	CALL SUBOPT_0x69
	CALL SUBOPT_0x52
	BREQ _0x2020061
	CALL SUBOPT_0x6A
	CALL SUBOPT_0x6B
	BRLO _0x2020060
_0x2020061:
	LDI  R30,LOW(2)
	LDD  R17,Y+1
	LDD  R16,Y+0
	RJMP _0x20A0010
_0x2020060:
	CALL SUBOPT_0x6C
	BRNE _0x2020064
	CALL SUBOPT_0x6A
	LD   R26,Z
	CPI  R26,LOW(0x3)
	BREQ _0x2020065
_0x2020064:
	RJMP _0x2020063
_0x2020065:
	CALL SUBOPT_0x6A
	ADIW R30,38
	MOVW R26,R30
	CALL SUBOPT_0x68
_0x2020063:
	CALL SUBOPT_0x6C
	BRNE _0x2020066
	CALL SUBOPT_0x6D
	ADIW R30,8
	MOVW R26,R30
	CALL __GETW1P
	LDD  R26,Y+6
	LDD  R27,Y+6+1
	CP   R26,R30
	CPC  R27,R31
	BRLO _0x2020067
	LDI  R30,LOW(2)
	LDD  R17,Y+1
	LDD  R16,Y+0
	RJMP _0x20A0010
_0x2020067:
	CALL SUBOPT_0x6A
	ADIW R30,38
	MOVW R26,R30
	CALL __GETD1P
	RJMP _0x202027B
_0x2020066:
	CALL SUBOPT_0x6A
	LDD  R30,Z+2
	LDI  R26,LOW(16)
	MUL  R30,R26
	MOVW R16,R0
_0x2020069:
	LDD  R26,Y+6
	LDD  R27,Y+6+1
	CP   R26,R16
	CPC  R27,R17
	BRLO _0x202006B
	CALL SUBOPT_0x6A
	ST   -Y,R31
	ST   -Y,R30
	CALL SUBOPT_0x5A
	RCALL _get_fat
	__PUTD1S 2
	CALL SUBOPT_0x69
	CALL SUBOPT_0x53
	BRNE _0x202006C
	LDI  R30,LOW(1)
	LDD  R17,Y+1
	LDD  R16,Y+0
	RJMP _0x20A0010
_0x202006C:
	CALL SUBOPT_0x69
	CALL SUBOPT_0x3D
	BRLO _0x202006E
	CALL SUBOPT_0x6A
	CALL SUBOPT_0x6B
	BRLO _0x202006D
_0x202006E:
	LDI  R30,LOW(2)
	LDD  R17,Y+1
	LDD  R16,Y+0
	RJMP _0x20A0010
_0x202006D:
	LDD  R30,Y+6
	LDD  R31,Y+6+1
	SUB  R30,R16
	SBC  R31,R17
	STD  Y+6,R30
	STD  Y+6+1,R31
	RJMP _0x2020069
_0x202006B:
	CALL SUBOPT_0x6D
	ST   -Y,R31
	ST   -Y,R30
	CALL SUBOPT_0x5A
	RCALL _clust2sect
_0x202027B:
	MOVW R26,R30
	MOVW R24,R22
	LDD  R30,Y+6
	LDD  R31,Y+6+1
	CALL __LSRW4
	CALL SUBOPT_0x6E
	CALL SUBOPT_0x6F
	CALL SUBOPT_0x6A
	ADIW R30,50
	MOVW R26,R30
	LDD  R30,Y+6
	LDD  R31,Y+6+1
	CALL SUBOPT_0x70
	LDD  R17,Y+1
	LDD  R16,Y+0
	RJMP _0x20A0010
; .FEND
_dir_next_G101:
; .FSTART _dir_next_G101
	ST   -Y,R26
	SBIW R28,4
	CALL __SAVELOCR3
	LDD  R26,Y+8
	LDD  R27,Y+8+1
	ADIW R26,4
	CALL __GETW1P
	ADIW R30,1
	MOVW R16,R30
	MOV  R0,R16
	OR   R0,R17
	BREQ _0x2020071
	LDD  R26,Y+8
	LDD  R27,Y+8+1
	ADIW R26,14
	CALL SUBOPT_0x71
	BRNE _0x2020070
_0x2020071:
	LDI  R30,LOW(4)
	RJMP _0x20A000F
_0x2020070:
	MOVW R30,R16
	ANDI R30,LOW(0xF)
	BREQ PC+2
	RJMP _0x2020073
	LDD  R26,Y+8
	LDD  R27,Y+8+1
	CALL SUBOPT_0x57
	LDD  R26,Y+8
	LDD  R27,Y+8+1
	ADIW R26,10
	CALL SUBOPT_0x71
	BRNE _0x2020074
	CALL SUBOPT_0x6A
	ADIW R30,8
	MOVW R26,R30
	CALL __GETW1P
	CP   R16,R30
	CPC  R17,R31
	BRLO _0x2020075
	LDI  R30,LOW(4)
	RJMP _0x20A000F
_0x2020075:
	RJMP _0x2020076
_0x2020074:
	MOVW R30,R16
	CALL __LSRW4
	MOVW R0,R30
	CALL SUBOPT_0x6A
	LDD  R30,Z+2
	LDI  R31,0
	SBIW R30,1
	AND  R30,R0
	AND  R31,R1
	SBIW R30,0
	BREQ PC+2
	RJMP _0x2020077
	CALL SUBOPT_0x6A
	CALL SUBOPT_0x72
	RCALL _get_fat
	CALL SUBOPT_0x73
	CALL SUBOPT_0x74
	CALL SUBOPT_0x3D
	BRSH _0x2020078
	LDI  R30,LOW(2)
	RJMP _0x20A000F
_0x2020078:
	CALL SUBOPT_0x74
	CALL SUBOPT_0x53
	BRNE _0x2020079
	LDI  R30,LOW(1)
	RJMP _0x20A000F
_0x2020079:
	CALL SUBOPT_0x6A
	ADIW R30,30
	MOVW R26,R30
	CALL __GETD1P
	CALL SUBOPT_0x74
	CALL __CPD21
	BRSH PC+2
	RJMP _0x202007A
	LDD  R30,Y+7
	CPI  R30,0
	BRNE _0x202007B
	LDI  R30,LOW(4)
	RJMP _0x20A000F
_0x202007B:
	CALL SUBOPT_0x6A
	CALL SUBOPT_0x72
	RCALL _create_chain_G101
	CALL SUBOPT_0x75
	CALL __CPD10
	BRNE _0x202007C
	LDI  R30,LOW(7)
	RJMP _0x20A000F
_0x202007C:
	CALL SUBOPT_0x74
	CALL SUBOPT_0x52
	BRNE _0x202007D
	LDI  R30,LOW(2)
	RJMP _0x20A000F
_0x202007D:
	CALL SUBOPT_0x74
	CALL SUBOPT_0x53
	BRNE _0x202007E
	LDI  R30,LOW(1)
	RJMP _0x20A000F
_0x202007E:
	CALL SUBOPT_0x6A
	CALL SUBOPT_0x36
	CPI  R30,0
	BREQ _0x202007F
	LDI  R30,LOW(1)
	RJMP _0x20A000F
_0x202007F:
	CALL SUBOPT_0x6A
	CALL SUBOPT_0x38
	CALL SUBOPT_0x6A
	MOVW R26,R30
	ADIW R30,46
	PUSH R31
	PUSH R30
	MOVW R30,R26
	CALL SUBOPT_0x76
	POP  R26
	POP  R27
	CALL __PUTDP1
	LDI  R18,LOW(0)
_0x2020081:
	CALL SUBOPT_0x6A
	LDD  R30,Z+2
	CP   R18,R30
	BRSH _0x2020082
	CALL SUBOPT_0x6A
	ADIW R30,4
	LDI  R26,LOW(1)
	STD  Z+0,R26
	CALL SUBOPT_0x6A
	CALL SUBOPT_0x36
	CPI  R30,0
	BREQ _0x2020083
	LDI  R30,LOW(1)
	RJMP _0x20A000F
_0x2020083:
	CALL SUBOPT_0x6A
	ADIW R30,46
	MOVW R26,R30
	CALL __GETD1P_INC
	__SUBD1N -1
	CALL __PUTDP1_DEC
	SUBI R18,-1
	RJMP _0x2020081
_0x2020082:
	CALL SUBOPT_0x6A
	ADIW R30,46
	PUSH R31
	PUSH R30
	MOVW R26,R30
	CALL __GETD1P
	MOVW R26,R30
	MOVW R24,R22
	MOV  R30,R18
	LDI  R31,0
	CALL __CWD1
	CALL SUBOPT_0x66
	POP  R26
	POP  R27
	CALL __PUTDP1
_0x202007A:
	__GETD1S 3
	__PUTD1SNS 8,10
	CALL SUBOPT_0x6A
	CALL SUBOPT_0x76
	CALL SUBOPT_0x6F
_0x2020077:
_0x2020076:
_0x2020073:
	MOVW R30,R16
	CALL SUBOPT_0x67
	CALL __GETW1P
	ADIW R30,50
	MOVW R26,R30
	MOVW R30,R16
	CALL SUBOPT_0x70
_0x20A000F:
	CALL __LOADLOCR3
_0x20A0010:
	ADIW R28,10
	RET
; .FEND
_dir_find_G101:
; .FSTART _dir_find_G101
	CALL SUBOPT_0x77
	BREQ _0x2020084
	MOV  R30,R16
	CALL __LOADLOCR4
	RJMP _0x20A000C
_0x2020084:
_0x2020086:
	CALL SUBOPT_0x78
	BRNE _0x2020087
	LDD  R26,Y+4
	LDD  R27,Y+4+1
	ADIW R26,18
	LD   R18,X+
	LD   R19,X
	MOVW R26,R18
	LD   R17,X
	CPI  R17,0
	BRNE _0x2020089
	LDI  R16,LOW(4)
	RJMP _0x2020087
_0x2020089:
	MOVW R30,R18
	LDD  R30,Z+11
	ANDI R30,LOW(0x8)
	BRNE _0x202008B
	CALL SUBOPT_0x79
	CALL _memcmp
	CPI  R30,0
	BREQ _0x202008C
_0x202008B:
	RJMP _0x202008A
_0x202008C:
	RJMP _0x2020087
_0x202008A:
	LDD  R30,Y+4
	LDD  R31,Y+4+1
	ST   -Y,R31
	ST   -Y,R30
	LDI  R26,LOW(0)
	RCALL _dir_next_G101
	MOV  R16,R30
	CPI  R16,0
	BREQ _0x2020086
_0x2020087:
	MOV  R30,R16
	CALL __LOADLOCR4
	RJMP _0x20A000C
; .FEND
_dir_register_G101:
; .FSTART _dir_register_G101
	CALL SUBOPT_0x77
	BRNE _0x2020099
_0x202009B:
	CALL SUBOPT_0x78
	BRNE _0x202009C
	LDD  R30,Y+4
	LDD  R31,Y+4+1
	LDD  R26,Z+18
	LDD  R27,Z+19
	LD   R17,X
	CPI  R17,229
	BREQ _0x202009F
	CPI  R17,0
	BRNE _0x202009E
_0x202009F:
	RJMP _0x202009C
_0x202009E:
	LDD  R30,Y+4
	LDD  R31,Y+4+1
	ST   -Y,R31
	ST   -Y,R30
	LDI  R26,LOW(1)
	RCALL _dir_next_G101
	MOV  R16,R30
	CPI  R16,0
	BREQ _0x202009B
_0x202009C:
_0x2020099:
	CPI  R16,0
	BRNE _0x20200A1
	CALL SUBOPT_0x78
	BRNE _0x20200A2
	LDD  R26,Y+4
	LDD  R27,Y+4+1
	ADIW R26,18
	LD   R18,X+
	LD   R19,X
	ST   -Y,R19
	ST   -Y,R18
	LDI  R30,LOW(0)
	ST   -Y,R30
	LDI  R26,LOW(32)
	LDI  R27,0
	CALL _memset
	CALL SUBOPT_0x79
	CALL _memcpy
	LDD  R26,Y+4
	LDD  R27,Y+4+1
	ADIW R26,20
	CALL __GETW1P
	LDD  R30,Z+11
	ANDI R30,LOW(0x18)
	__PUTB1RNS 18,12
	LDD  R26,Y+4
	LDD  R27,Y+4+1
	CALL __GETW1P
	ADIW R30,4
	LDI  R26,LOW(1)
	STD  Z+0,R26
_0x20200A2:
_0x20200A1:
	MOV  R30,R16
	CALL __LOADLOCR4
	RJMP _0x20A000C
; .FEND
_create_name_G101:
; .FSTART _create_name_G101
	ST   -Y,R27
	ST   -Y,R26
	SBIW R28,5
	CALL __SAVELOCR6
	LDD  R26,Y+13
	LDD  R27,Y+13+1
	ADIW R26,20
	LD   R19,X+
	LD   R20,X
	ST   -Y,R20
	ST   -Y,R19
	LDI  R30,LOW(32)
	ST   -Y,R30
	LDI  R26,LOW(11)
	LDI  R27,0
	CALL _memset
	LDI  R30,LOW(0)
	STD  Y+8,R30
	STD  Y+8+1,R30
	MOV  R16,R30
	MOV  R21,R30
	LDI  R30,LOW(8)
	STD  Y+10,R30
	LDD  R26,Y+11
	LDD  R27,Y+11+1
	CALL SUBOPT_0x7A
	CALL SUBOPT_0x7B
	ADD  R26,R30
	ADC  R27,R31
	LD   R26,X
	CPI  R26,LOW(0x2E)
	BRNE _0x20200A5
_0x20200A7:
	CALL SUBOPT_0x7C
	CPI  R17,46
	BRNE _0x20200AA
	LDD  R26,Y+8
	LDD  R27,Y+8+1
	SBIW R26,3
	BRLT _0x20200A9
_0x20200AA:
	RJMP _0x20200A8
_0x20200A9:
	CALL SUBOPT_0x7D
	RJMP _0x20200A7
_0x20200A8:
	CPI  R17,47
	BREQ _0x20200AD
	CPI  R17,92
	BREQ _0x20200AD
	CPI  R17,33
	BRSH _0x20200AE
_0x20200AD:
	RJMP _0x20200AC
_0x20200AE:
	LDI  R30,LOW(6)
	RJMP _0x20A000D
_0x20200AC:
	CALL SUBOPT_0x7B
	CALL SUBOPT_0x7E
	BRSH _0x20200AF
	LDI  R30,LOW(36)
	RJMP _0x20200B0
_0x20200AF:
	LDI  R30,LOW(32)
_0x20200B0:
	__PUTB1RONS 19,20,11
	RJMP _0x20A000E
_0x20200A5:
_0x20200B3:
	CALL SUBOPT_0x7C
	CPI  R17,33
	BRLO _0x20200B6
	CPI  R17,47
	BREQ _0x20200B6
	CPI  R17,92
	BRNE _0x20200B5
_0x20200B6:
	RJMP _0x20200B4
_0x20200B5:
	CPI  R17,46
	BREQ _0x20200B9
	LDD  R30,Y+10
	CP   R21,R30
	BRLO _0x20200B8
_0x20200B9:
	LDD  R26,Y+10
	CPI  R26,LOW(0x8)
	BRNE _0x20200BC
	CPI  R17,46
	BREQ _0x20200BB
_0x20200BC:
	LDI  R30,LOW(6)
	RJMP _0x20A000D
_0x20200BB:
	LDI  R21,LOW(8)
	LDI  R30,LOW(11)
	STD  Y+10,R30
	LSL  R16
	LSL  R16
	RJMP _0x20200B2
_0x20200B8:
	CPI  R17,128
	BRLO _0x20200BE
	ORI  R16,LOW(3)
	LDI  R30,LOW(6)
	RJMP _0x20A000D
_0x20200BE:
	LDI  R30,LOW(_k1*2)
	LDI  R31,HIGH(_k1*2)
	ST   -Y,R31
	ST   -Y,R30
	MOV  R26,R17
	RCALL _chk_chrf_G101
	SBIW R30,0
	BREQ _0x20200C4
	LDI  R30,LOW(6)
	RJMP _0x20A000D
_0x20200C4:
	CPI  R17,65
	BRLO _0x20200C6
	CPI  R17,91
	BRLO _0x20200C7
_0x20200C6:
	RJMP _0x20200C5
_0x20200C7:
	ORI  R16,LOW(2)
	RJMP _0x20200C8
_0x20200C5:
	CPI  R17,97
	BRLO _0x20200CA
	CPI  R17,123
	BRLO _0x20200CB
_0x20200CA:
	RJMP _0x20200C9
_0x20200CB:
	ORI  R16,LOW(1)
	SUBI R17,LOW(32)
_0x20200C9:
_0x20200C8:
	CALL SUBOPT_0x7D
_0x20200B2:
	RJMP _0x20200B3
_0x20200B4:
	CALL SUBOPT_0x7B
	CALL SUBOPT_0x7E
	BRSH _0x20200CC
	LDI  R30,LOW(4)
	RJMP _0x20200CD
_0x20200CC:
	LDI  R30,LOW(0)
_0x20200CD:
	MOV  R17,R30
	CPI  R21,0
	BRNE _0x20200CF
	LDI  R30,LOW(6)
	RJMP _0x20A000D
_0x20200CF:
	__GETW2R 19,20
	LD   R26,X
	CPI  R26,LOW(0xE5)
	BRNE _0x20200D0
	__GETW2R 19,20
	LDI  R30,LOW(5)
	ST   X,R30
_0x20200D0:
	LDD  R26,Y+10
	CPI  R26,LOW(0x8)
	BRNE _0x20200D1
	LSL  R16
	LSL  R16
_0x20200D1:
	MOV  R30,R16
	ANDI R30,LOW(0x3)
	CPI  R30,LOW(0x1)
	BRNE _0x20200D2
	ORI  R17,LOW(16)
_0x20200D2:
	MOV  R30,R16
	ANDI R30,LOW(0xC)
	CPI  R30,LOW(0x4)
	BRNE _0x20200D3
	ORI  R17,LOW(8)
_0x20200D3:
	__GETW1R 19,20
	__PUTBZR 17,11
_0x20A000E:
	LDI  R30,LOW(0)
_0x20A000D:
	CALL __LOADLOCR6
	ADIW R28,15
	RET
; .FEND
_follow_path_G101:
; .FSTART _follow_path_G101
	ST   -Y,R27
	ST   -Y,R26
	CALL __SAVELOCR4
_0x20200E9:
	LDI  R30,LOW(1)
	CPI  R30,0
	BREQ _0x20200EC
	LDD  R26,Y+4
	LDD  R27,Y+4+1
	LD   R26,X
	CPI  R26,LOW(0x20)
	BREQ _0x20200ED
_0x20200EC:
	RJMP _0x20200EB
_0x20200ED:
	LDD  R30,Y+4
	LDD  R31,Y+4+1
	ADIW R30,1
	STD  Y+4,R30
	STD  Y+4+1,R31
	RJMP _0x20200E9
_0x20200EB:
	LDD  R26,Y+4
	LDD  R27,Y+4+1
	LD   R26,X
	CPI  R26,LOW(0x2F)
	BREQ _0x20200EF
	LDD  R26,Y+4
	LDD  R27,Y+4+1
	LD   R26,X
	CPI  R26,LOW(0x5C)
	BRNE _0x20200EE
_0x20200EF:
	LDD  R30,Y+4
	LDD  R31,Y+4+1
	ADIW R30,1
	STD  Y+4,R30
	STD  Y+4+1,R31
	LDD  R26,Y+6
	LDD  R27,Y+6+1
	ADIW R26,6
	CALL SUBOPT_0x7F
	RJMP _0x20200F1
_0x20200EE:
	LDD  R26,Y+6
	LDD  R27,Y+6+1
	CALL __GETW1P
	ADIW R30,22
	MOVW R26,R30
	CALL __GETD1P
	CALL SUBOPT_0x80
_0x20200F1:
	LDD  R26,Y+4
	LDD  R27,Y+4+1
	LD   R26,X
	CLR  R27
	SBIW R26,32
	BRSH _0x20200F2
	CALL SUBOPT_0x81
	LDI  R26,LOW(0)
	LDI  R27,0
	RCALL _dir_seek_G101
	MOV  R16,R30
	LDD  R26,Y+6
	LDD  R27,Y+6+1
	ADIW R26,18
	CALL SUBOPT_0x82
	RJMP _0x20200F3
_0x20200F2:
_0x20200F5:
	CALL SUBOPT_0x81
	MOVW R26,R28
	ADIW R26,6
	RCALL _create_name_G101
	MOV  R16,R30
	CPI  R16,0
	BRNE _0x20200F6
	LDD  R26,Y+6
	LDD  R27,Y+6+1
	RCALL _dir_find_G101
	MOV  R16,R30
	LDD  R26,Y+6
	LDD  R27,Y+6+1
	ADIW R26,20
	CALL __GETW1P
	LDD  R30,Z+11
	ANDI R30,LOW(0x4)
	MOV  R19,R30
	CPI  R16,0
	BREQ _0x20200F8
	CPI  R16,4
	BRNE _0x20200FA
	CPI  R19,0
	BREQ _0x20200FB
_0x20200FA:
	RJMP _0x20200F9
_0x20200FB:
	LDI  R16,LOW(5)
_0x20200F9:
	RJMP _0x20200F6
_0x20200F8:
	CPI  R19,0
	BRNE _0x20200F6
	LDD  R26,Y+6
	LDD  R27,Y+6+1
	ADIW R26,18
	LD   R17,X+
	LD   R18,X
	__GETW1R 17,18
	LDD  R30,Z+11
	ANDI R30,LOW(0x10)
	BRNE _0x20200FD
	LDI  R16,LOW(5)
	RJMP _0x20200F6
_0x20200FD:
	CALL SUBOPT_0x83
	CALL __LSLD16
	PUSH R23
	PUSH R22
	PUSH R31
	PUSH R30
	CALL SUBOPT_0x84
	POP  R26
	POP  R27
	POP  R24
	POP  R25
	CALL SUBOPT_0x85
	CALL SUBOPT_0x80
	RJMP _0x20200F5
_0x20200F6:
_0x20200F3:
	MOV  R30,R16
	CALL __LOADLOCR4
	ADIW R28,8
	RET
; .FEND
_check_fs_G101:
; .FSTART _check_fs_G101
	CALL __PUTPARD2
	LDD  R30,Y+4
	LDD  R31,Y+4+1
	LDD  R26,Z+1
	ST   -Y,R26
	LDD  R30,Y+5
	LDD  R31,Y+5+1
	ADIW R30,50
	ST   -Y,R31
	ST   -Y,R30
	__GETD1S 3
	CALL SUBOPT_0x35
	BREQ _0x20200FE
	LDI  R30,LOW(3)
	RJMP _0x20A000C
_0x20200FE:
	LDD  R30,Y+4
	LDD  R31,Y+4+1
	CALL SUBOPT_0x86
	BREQ _0x20200FF
	LDI  R30,LOW(2)
	RJMP _0x20A000C
_0x20200FF:
	LDD  R26,Y+4
	LDD  R27,Y+4+1
	SUBI R26,LOW(-104)
	SBCI R27,HIGH(-104)
	CALL SUBOPT_0x87
	BRNE _0x2020100
	LDI  R30,LOW(0)
	RJMP _0x20A000C
_0x2020100:
	LDD  R30,Y+4
	LDD  R31,Y+4+1
	ADIW R30,50
	SUBI R30,LOW(-82)
	SBCI R31,HIGH(-82)
	MOVW R26,R30
	CALL SUBOPT_0x87
	BRNE _0x2020101
	LDI  R30,LOW(0)
	RJMP _0x20A000C
_0x2020101:
	LDI  R30,LOW(1)
_0x20A000C:
	ADIW R28,6
	RET
; .FEND
_chk_mounted:
; .FSTART _chk_mounted
	ST   -Y,R26
	SBIW R28,20
	CALL __SAVELOCR5
	LDD  R26,Y+28
	LDD  R27,Y+28+1
	CALL __GETW1P
	STD  Y+7,R30
	STD  Y+7+1,R31
	LDD  R26,Y+7
	LDD  R27,Y+7+1
	LD   R30,X
	SUBI R30,LOW(48)
	MOV  R19,R30
	CPI  R19,10
	BRSH _0x2020103
	ADIW R26,1
	LD   R26,X
	CPI  R26,LOW(0x3A)
	BREQ _0x2020104
_0x2020103:
	RJMP _0x2020102
_0x2020104:
	LDD  R30,Y+7
	LDD  R31,Y+7+1
	ADIW R30,2
	STD  Y+7,R30
	STD  Y+7+1,R31
	LDD  R26,Y+28
	LDD  R27,Y+28+1
	ST   X+,R30
	ST   X,R31
	RJMP _0x2020105
_0x2020102:
	LDS  R19,_Drive_G101
_0x2020105:
	CPI  R19,1
	BRLO _0x2020106
	LDI  R30,LOW(11)
	RJMP _0x20A000A
_0x2020106:
	MOV  R30,R19
	CALL SUBOPT_0x88
	CALL __GETW1P
	STD  Y+5,R30
	STD  Y+5+1,R31
	LDD  R26,Y+26
	LDD  R27,Y+26+1
	ST   X+,R30
	ST   X,R31
	SBIW R30,0
	BRNE _0x2020107
	LDI  R30,LOW(12)
	RJMP _0x20A000A
_0x2020107:
	LDD  R26,Y+5
	LDD  R27,Y+5+1
	LD   R30,X
	CPI  R30,0
	BREQ _0x2020108
	LDD  R30,Y+5
	LDD  R31,Y+5+1
	LDD  R26,Z+1
	CALL _disk_status
	MOV  R20,R30
	SBRC R20,0
	RJMP _0x2020109
	LDD  R30,Y+25
	CPI  R30,0
	BREQ _0x202010B
	SBRC R20,2
	RJMP _0x202010C
_0x202010B:
	RJMP _0x202010A
_0x202010C:
	LDI  R30,LOW(10)
	RJMP _0x20A000A
_0x202010A:
	RJMP _0x20A000B
_0x2020109:
_0x2020108:
	LDD  R26,Y+5
	LDD  R27,Y+5+1
	LDI  R30,LOW(0)
	ST   X,R30
	MOV  R30,R19
	__PUTB1SNS 5,1
	LDD  R30,Y+5
	LDD  R31,Y+5+1
	LDD  R26,Z+1
	CALL _disk_initialize
	MOV  R20,R30
	SBRS R20,0
	RJMP _0x202010D
	LDI  R30,LOW(3)
	RJMP _0x20A000A
_0x202010D:
	LDD  R30,Y+25
	CPI  R30,0
	BREQ _0x202010F
	SBRC R20,2
	RJMP _0x2020110
_0x202010F:
	RJMP _0x202010E
_0x2020110:
	LDI  R30,LOW(10)
	RJMP _0x20A000A
_0x202010E:
	CALL SUBOPT_0x89
	CALL SUBOPT_0x64
	__PUTD1S 23
	MOVW R26,R30
	MOVW R24,R22
	RCALL _check_fs_G101
	MOV  R16,R30
	CPI  R16,1
	BRNE _0x2020111
	LDD  R30,Y+5
	LDD  R31,Y+5+1
	ADIW R30,50
	SUBI R30,LOW(-446)
	SBCI R31,HIGH(-446)
	__PUTW1R 17,18
	LDD  R30,Z+4
	CPI  R30,0
	BREQ _0x2020112
	__GETW2R 17,18
	ADIW R26,8
	CALL __GETD1P
	__PUTD1S 21
	CALL SUBOPT_0x89
	__GETD2S 23
	RCALL _check_fs_G101
	MOV  R16,R30
_0x2020112:
_0x2020111:
	CPI  R16,3
	BRNE _0x2020113
	LDI  R30,LOW(1)
	RJMP _0x20A000A
_0x2020113:
	CPI  R16,0
	BRNE _0x2020115
	LDD  R26,Y+5
	LDD  R27,Y+5+1
	ADIW R26,61
	CALL __GETW1P
	CPI  R30,LOW(0x200)
	LDI  R26,HIGH(0x200)
	CPC  R31,R26
	BREQ _0x2020114
_0x2020115:
	LDI  R30,LOW(13)
	RJMP _0x20A000A
_0x2020114:
	LDD  R26,Y+5
	LDD  R27,Y+5+1
	SUBI R26,LOW(-72)
	SBCI R27,HIGH(-72)
	CALL SUBOPT_0x46
	CALL SUBOPT_0x8A
	CALL SUBOPT_0x8B
	CALL __CPD10
	BRNE _0x2020117
	LDD  R26,Y+5
	LDD  R27,Y+5+1
	SUBI R26,LOW(-86)
	SBCI R27,HIGH(-86)
	CALL __GETD1P
	CALL SUBOPT_0x8A
_0x2020117:
	CALL SUBOPT_0x8B
	__PUTD1SNS 5,26
	LDD  R30,Y+5
	LDD  R31,Y+5+1
	SUBI R30,LOW(-66)
	SBCI R31,HIGH(-66)
	LD   R30,Z
	__PUTB1SNS 5,3
	LDD  R30,Y+5
	LDD  R31,Y+5+1
	LDD  R30,Z+3
	LDI  R31,0
	__GETD2S 17
	CALL __CWD1
	CALL __MULD12U
	CALL SUBOPT_0x8A
	CALL SUBOPT_0x8C
	CALL SUBOPT_0x8D
	__PUTD1SNS 5,34
	LDD  R30,Y+5
	LDD  R31,Y+5+1
	LDD  R30,Z+63
	__PUTB1SNS 5,2
	LDD  R26,Y+5
	LDD  R27,Y+5+1
	SUBI R26,LOW(-67)
	SBCI R27,HIGH(-67)
	CALL __GETW1P
	__PUTW1SNS 5,8
	LDD  R26,Y+5
	LDD  R27,Y+5+1
	SUBI R26,LOW(-69)
	SBCI R27,HIGH(-69)
	CALL SUBOPT_0x46
	__PUTD1S 13
	CALL __CPD10
	BRNE _0x2020118
	LDD  R26,Y+5
	LDD  R27,Y+5+1
	SUBI R26,LOW(-82)
	SBCI R27,HIGH(-82)
	CALL __GETD1P
	__PUTD1S 13
_0x2020118:
	CALL SUBOPT_0x8C
	CALL SUBOPT_0x49
	CLR  R22
	CLR  R23
	CALL SUBOPT_0x66
	__GETD2S 17
	CALL __SUBD12
	PUSH R23
	PUSH R22
	PUSH R31
	PUSH R30
	CALL SUBOPT_0x8E
	POP  R26
	POP  R27
	POP  R24
	POP  R25
	CLR  R22
	CLR  R23
	CALL __SUBD21
	LDD  R30,Y+5
	LDD  R31,Y+5+1
	LDD  R30,Z+2
	LDI  R31,0
	CALL __CWD1
	CALL __DIVD21U
	__ADDD1N 2
	__PUTD1S 9
	__PUTD1SNS 5,30
	LDI  R16,LOW(1)
	CALL SUBOPT_0x4C
	__CPD2N 0xFF7
	BRLO _0x2020119
	LDI  R16,LOW(2)
_0x2020119:
	CALL SUBOPT_0x4C
	__CPD2N 0xFFF7
	BRLO _0x202011A
	LDI  R16,LOW(3)
_0x202011A:
	CPI  R16,3
	BRNE _0x202011B
	LDD  R26,Y+5
	LDD  R27,Y+5+1
	SUBI R26,LOW(-94)
	SBCI R27,HIGH(-94)
	CALL __GETD1P
	RJMP _0x202027C
_0x202011B:
	CALL SUBOPT_0x8F
_0x202027C:
	__PUTD1SNS 5,38
	CALL SUBOPT_0x8F
	PUSH R23
	PUSH R22
	PUSH R31
	PUSH R30
	CALL SUBOPT_0x8E
	POP  R26
	POP  R27
	POP  R24
	POP  R25
	CALL SUBOPT_0x6E
	__PUTD1SNS 5,42
	LDD  R26,Y+5
	LDD  R27,Y+5+1
	ADIW R26,14
	CALL SUBOPT_0x48
	CALL __PUTDP1
	LDD  R26,Y+5
	LDD  R27,Y+5+1
	ADIW R26,4
	LDI  R30,LOW(0)
	ST   X,R30
	CPI  R16,3
	BREQ PC+2
	RJMP _0x202011D
	LDD  R26,Y+5
	LDD  R27,Y+5+1
	ADIW R26,5
	ST   X,R30
	LDD  R26,Y+5
	LDD  R27,Y+5+1
	SUBI R26,LOW(-98)
	SBCI R27,HIGH(-98)
	CALL __GETW1P
	CALL SUBOPT_0x8D
	__PUTD1SNS 5,18
	LDD  R30,Y+5
	LDD  R31,Y+5+1
	LDD  R26,Z+1
	ST   -Y,R26
	LDD  R30,Y+6
	LDD  R31,Y+6+1
	ADIW R30,50
	ST   -Y,R31
	ST   -Y,R30
	LDD  R30,Y+8
	LDD  R31,Y+8+1
	CALL SUBOPT_0x3B
	CALL _disk_read
	CPI  R30,0
	BRNE _0x202011F
	LDD  R30,Y+5
	LDD  R31,Y+5+1
	CALL SUBOPT_0x86
	BRNE _0x202011F
	LDD  R26,Y+5
	LDD  R27,Y+5+1
	ADIW R26,50
	CALL __GETD1P
	__CPD1N 0x41615252
	BRNE _0x202011F
	LDD  R30,Y+5
	LDD  R31,Y+5+1
	ADIW R30,50
	SUBI R30,LOW(-484)
	SBCI R31,HIGH(-484)
	MOVW R26,R30
	CALL __GETD1P
	__CPD1N 0x61417272
	BREQ _0x2020120
_0x202011F:
	RJMP _0x202011E
_0x2020120:
	LDD  R30,Y+5
	LDD  R31,Y+5+1
	ADIW R30,50
	SUBI R30,LOW(-492)
	SBCI R31,HIGH(-492)
	MOVW R26,R30
	CALL __GETD1P
	__PUTD1SNS 5,10
	LDD  R30,Y+5
	LDD  R31,Y+5+1
	ADIW R30,50
	SUBI R30,LOW(-488)
	SBCI R31,HIGH(-488)
	MOVW R26,R30
	CALL __GETD1P
	__PUTD1SNS 5,14
_0x202011E:
_0x202011D:
	LDD  R26,Y+5
	LDD  R27,Y+5+1
	ST   X,R16
	CALL SUBOPT_0x37
	LDD  R26,Y+5
	LDD  R27,Y+5+1
	ADIW R26,22
	CALL SUBOPT_0x7F
	LDI  R26,LOW(_Fsid_G101)
	LDI  R27,HIGH(_Fsid_G101)
	CALL SUBOPT_0x26
	__PUTW1SNS 5,6
_0x20A000B:
	LDI  R30,LOW(0)
_0x20A000A:
	CALL __LOADLOCR5
	ADIW R28,30
	RET
; .FEND
_validate_G101:
; .FSTART _validate_G101
	ST   -Y,R27
	ST   -Y,R26
	LDD  R30,Y+2
	LDD  R31,Y+2+1
	SBIW R30,0
	BREQ _0x2020122
	LDD  R26,Y+2
	LDD  R27,Y+2+1
	LD   R30,X
	CPI  R30,0
	BREQ _0x2020122
	LDD  R30,Y+2
	LDD  R31,Y+2+1
	LDD  R26,Z+6
	LDD  R27,Z+7
	LD   R30,Y
	LDD  R31,Y+1
	CP   R30,R26
	CPC  R31,R27
	BREQ _0x2020121
_0x2020122:
	LDI  R30,LOW(9)
	RJMP _0x20A0009
_0x2020121:
	LDD  R30,Y+2
	LDD  R31,Y+2+1
	LDD  R26,Z+1
	CALL _disk_status
	ANDI R30,LOW(0x1)
	BREQ _0x2020124
	LDI  R30,LOW(3)
	RJMP _0x20A0009
_0x2020124:
	LDI  R30,LOW(0)
_0x20A0009:
	ADIW R28,4
	RET
; .FEND
_f_mount:
; .FSTART _f_mount
	CALL SUBOPT_0xA
	LDD  R26,Y+4
	CPI  R26,LOW(0x1)
	BRLO _0x2020125
	LDI  R30,LOW(11)
	RJMP _0x20A0008
_0x2020125:
	LDD  R30,Y+4
	CALL SUBOPT_0x88
	LD   R16,X+
	LD   R17,X
	MOV  R0,R16
	OR   R0,R17
	BREQ _0x2020126
	MOVW R26,R16
	LDI  R30,LOW(0)
	ST   X,R30
_0x2020126:
	LDD  R30,Y+2
	LDD  R31,Y+2+1
	SBIW R30,0
	BREQ _0x2020127
	LDD  R26,Y+2
	LDD  R27,Y+2+1
	LDI  R30,LOW(0)
	ST   X,R30
_0x2020127:
	LDD  R30,Y+4
	LDI  R26,LOW(_FatFs_G101)
	LDI  R27,HIGH(_FatFs_G101)
	LDI  R31,0
	LSL  R30
	ROL  R31
	ADD  R30,R26
	ADC  R31,R27
	LDD  R26,Y+2
	LDD  R27,Y+2+1
	STD  Z+0,R26
	STD  Z+1,R27
	LDI  R30,LOW(0)
_0x20A0008:
	LDD  R17,Y+1
	LDD  R16,Y+0
	ADIW R28,5
	RET
; .FEND
_f_open:
; .FSTART _f_open
	ST   -Y,R26
	SBIW R28,34
	CALL __SAVELOCR3
	LDD  R26,Y+40
	LDD  R27,Y+40+1
	CALL SUBOPT_0x82
	LDD  R30,Y+37
	ANDI R30,LOW(0x1F)
	STD  Y+37,R30
	MOVW R30,R28
	ADIW R30,38
	ST   -Y,R31
	ST   -Y,R30
	MOVW R30,R28
	ADIW R30,17
	ST   -Y,R31
	ST   -Y,R30
	LDD  R30,Y+41
	ANDI R30,LOW(0x1E)
	MOV  R26,R30
	RCALL _chk_mounted
	MOV  R16,R30
	CPI  R16,0
	BREQ _0x2020128
	RJMP _0x20A0007
_0x2020128:
	MOVW R30,R28
	ADIW R30,3
	STD  Y+35,R30
	STD  Y+35+1,R31
	MOVW R30,R28
	ADIW R30,15
	ST   -Y,R31
	ST   -Y,R30
	LDD  R26,Y+40
	LDD  R27,Y+40+1
	RCALL _follow_path_G101
	MOV  R16,R30
	LDD  R30,Y+37
	ANDI R30,LOW(0x1C)
	BRNE PC+2
	RJMP _0x2020129
	SBIW R28,8
	CPI  R16,0
	BREQ _0x202012A
	CPI  R16,4
	BRNE _0x202012B
	MOVW R26,R28
	ADIW R26,23
	RCALL _dir_register_G101
	MOV  R16,R30
_0x202012B:
	CPI  R16,0
	BREQ _0x202012C
	MOV  R30,R16
	ADIW R28,8
	RJMP _0x20A0007
_0x202012C:
	LDD  R30,Y+45
	ORI  R30,8
	STD  Y+45,R30
	__GETWRS 17,18,41
	RJMP _0x202012D
_0x202012A:
	LDD  R30,Y+45
	ANDI R30,LOW(0x4)
	BREQ _0x202012E
	LDI  R30,LOW(8)
	ADIW R28,8
	RJMP _0x20A0007
_0x202012E:
	__GETWRS 17,18,41
	MOV  R0,R17
	OR   R0,R18
	BREQ _0x2020130
	__GETW1R 17,18
	LDD  R30,Z+11
	ANDI R30,LOW(0x11)
	BREQ _0x202012F
_0x2020130:
	LDI  R30,LOW(7)
	ADIW R28,8
	RJMP _0x20A0007
_0x202012F:
	LDD  R30,Y+45
	ANDI R30,LOW(0x8)
	BRNE PC+2
	RJMP _0x2020132
	CALL SUBOPT_0x83
	CALL __LSLD16
	PUSH R23
	PUSH R22
	PUSH R31
	PUSH R30
	CALL SUBOPT_0x84
	POP  R26
	POP  R27
	POP  R24
	POP  R25
	CALL SUBOPT_0x85
	CALL SUBOPT_0x58
	__GETW1R 17,18
	ADIW R30,20
	CALL SUBOPT_0x90
	ADIW R30,26
	CALL SUBOPT_0x90
	ADIW R30,28
	CALL SUBOPT_0x55
	CALL __PUTDZ20
	LDD  R26,Y+23
	LDD  R27,Y+23+1
	ADIW R26,4
	LDI  R30,LOW(1)
	ST   X,R30
	LDD  R26,Y+23
	LDD  R27,Y+23+1
	ADIW R26,46
	CALL SUBOPT_0x3F
	CALL SUBOPT_0x5B
	CALL __CPD10
	BREQ _0x2020133
	LDD  R30,Y+23
	LDD  R31,Y+23+1
	ST   -Y,R31
	ST   -Y,R30
	CALL SUBOPT_0x69
	RCALL _remove_chain_G101
	MOV  R16,R30
	CPI  R16,0
	BREQ _0x2020134
	ADIW R28,8
	RJMP _0x20A0007
_0x2020134:
	CALL SUBOPT_0x5B
	__SUBD1N 1
	__PUTD1SNS 23,10
_0x2020133:
	LDD  R30,Y+23
	LDD  R31,Y+23+1
	ST   -Y,R31
	ST   -Y,R30
	__GETD2S 6
	CALL _move_window_G101
	MOV  R16,R30
	CPI  R16,0
	BREQ _0x2020135
	ADIW R28,8
	RJMP _0x20A0007
_0x2020135:
_0x2020132:
_0x202012D:
	LDD  R30,Y+45
	ANDI R30,LOW(0x8)
	BREQ _0x2020136
	__GETW1R 17,18
	ADIW R30,11
	LDI  R26,LOW(0)
	STD  Z+0,R26
	CALL _get_fattime
	CALL SUBOPT_0x5C
	CALL SUBOPT_0x61
	__PUTD1RONS 17,18,14
	LDD  R26,Y+23
	LDD  R27,Y+23+1
	ADIW R26,4
	LDI  R30,LOW(1)
	ST   X,R30
	LDD  R30,Y+45
	ORI  R30,0x20
	STD  Y+45,R30
_0x2020136:
	ADIW R28,8
	RJMP _0x2020137
_0x2020129:
	CPI  R16,0
	BREQ _0x2020138
	MOV  R30,R16
	RJMP _0x20A0007
_0x2020138:
	__GETWRS 17,18,33
	MOV  R0,R17
	OR   R0,R18
	BREQ _0x202013A
	__GETW1R 17,18
	LDD  R30,Z+11
	ANDI R30,LOW(0x10)
	BREQ _0x2020139
_0x202013A:
	LDI  R30,LOW(4)
	RJMP _0x20A0007
_0x2020139:
	LDD  R30,Y+37
	ANDI R30,LOW(0x2)
	BREQ _0x202013D
	__GETW1R 17,18
	LDD  R30,Z+11
	ANDI R30,LOW(0x1)
	BRNE _0x202013E
_0x202013D:
	RJMP _0x202013C
_0x202013E:
	LDI  R30,LOW(7)
	RJMP _0x20A0007
_0x202013C:
_0x2020137:
	LDD  R26,Y+15
	LDD  R27,Y+15+1
	ADIW R26,46
	CALL __GETD1P
	__PUTD1SNS 40,26
	LDD  R30,Y+33
	LDD  R31,Y+33+1
	__PUTW1SNS 40,30
	LDD  R30,Y+37
	__PUTB1SNS 40,4
	CALL SUBOPT_0x83
	CALL __LSLD16
	PUSH R23
	PUSH R22
	PUSH R31
	PUSH R30
	CALL SUBOPT_0x84
	POP  R26
	POP  R27
	POP  R24
	POP  R25
	CALL SUBOPT_0x85
	__PUTD1SNS 40,14
	__GETW2R 17,18
	ADIW R26,28
	CALL __GETD1P
	__PUTD1SNS 40,10
	LDD  R26,Y+40
	LDD  R27,Y+40+1
	ADIW R26,6
	CALL SUBOPT_0x7F
	LDD  R26,Y+40
	LDD  R27,Y+40+1
	ADIW R26,5
	LDI  R30,LOW(255)
	ST   X,R30
	LDD  R26,Y+40
	LDD  R27,Y+40+1
	ADIW R26,22
	CALL SUBOPT_0x7F
	LDD  R30,Y+15
	LDD  R31,Y+15+1
	LDD  R26,Y+40
	LDD  R27,Y+40+1
	ST   X+,R30
	ST   X,R31
	LDD  R26,Y+15
	LDD  R27,Y+15+1
	ADIW R26,6
	CALL __GETW1P
	__PUTW1SNS 40,2
	LDI  R30,LOW(0)
_0x20A0007:
	CALL __LOADLOCR3
	ADIW R28,42
	RET
; .FEND
_f_read:
; .FSTART _f_read
	ST   -Y,R27
	ST   -Y,R26
	SBIW R28,14
	CALL __SAVELOCR5
	LDD  R30,Y+23
	LDD  R31,Y+23+1
	STD  Y+5,R30
	STD  Y+5+1,R31
	LDD  R26,Y+19
	LDD  R27,Y+19+1
	CALL SUBOPT_0x82
	CALL SUBOPT_0x91
	CALL SUBOPT_0x92
	CALL SUBOPT_0x93
	BREQ _0x202013F
	MOV  R30,R16
	RJMP _0x20A0006
_0x202013F:
	LDD  R30,Y+25
	LDD  R31,Y+25+1
	LDD  R26,Z+4
	ANDI R26,LOW(0x80)
	BREQ _0x2020140
	LDI  R30,LOW(2)
	RJMP _0x20A0006
_0x2020140:
	LDD  R30,Y+25
	LDD  R31,Y+25+1
	LDD  R26,Z+4
	ANDI R26,LOW(0x1)
	BRNE _0x2020141
	LDI  R30,LOW(7)
	RJMP _0x20A0006
_0x2020141:
	LDD  R30,Y+25
	LDD  R31,Y+25+1
	__GETD2Z 10
	PUSH R25
	PUSH R24
	PUSH R27
	PUSH R26
	CALL SUBOPT_0x94
	POP  R30
	POP  R31
	POP  R22
	POP  R23
	CALL __SUBD12
	CALL SUBOPT_0x95
	LDD  R26,Y+21
	LDD  R27,Y+21+1
	CLR  R24
	CLR  R25
	CALL __CPD12
	BRSH _0x2020142
	LDD  R30,Y+7
	LDD  R31,Y+7+1
	STD  Y+21,R30
	STD  Y+21+1,R31
_0x2020142:
_0x2020144:
	LDD  R30,Y+21
	LDD  R31,Y+21+1
	SBIW R30,0
	BRNE PC+2
	RJMP _0x2020145
	CALL SUBOPT_0x94
	MOVW R30,R26
	MOVW R22,R24
	ANDI R31,HIGH(0x1FF)
	SBIW R30,0
	BREQ PC+2
	RJMP _0x2020146
	LDD  R30,Y+25
	LDD  R31,Y+25+1
	LDD  R0,Z+5
	CALL SUBOPT_0x91
	LDD  R30,Z+2
	CP   R0,R30
	BRLO _0x2020147
	CALL SUBOPT_0x94
	CALL __CPD02
	BRNE _0x2020148
	LDD  R26,Y+25
	LDD  R27,Y+25+1
	ADIW R26,14
	CALL __GETD1P
	RJMP _0x2020149
_0x2020148:
	CALL SUBOPT_0x91
	CALL SUBOPT_0x92
	CALL SUBOPT_0x96
	CALL _get_fat
_0x2020149:
	__PUTD1S 15
	__GETD2S 15
	CALL SUBOPT_0x3D
	BRSH _0x202014B
	CALL SUBOPT_0x97
	LDI  R30,LOW(2)
	RJMP _0x20A0006
_0x202014B:
	__GETD2S 15
	CALL SUBOPT_0x53
	BRNE _0x202014C
	CALL SUBOPT_0x97
	LDI  R30,LOW(1)
	RJMP _0x20A0006
_0x202014C:
	__GETD1S 15
	__PUTD1SNS 25,18
	LDD  R26,Y+25
	LDD  R27,Y+25+1
	ADIW R26,5
	LDI  R30,LOW(0)
	ST   X,R30
_0x2020147:
	CALL SUBOPT_0x91
	CALL SUBOPT_0x92
	CALL SUBOPT_0x96
	RCALL _clust2sect
	CALL SUBOPT_0x98
	CALL SUBOPT_0x99
	CALL __CPD10
	BRNE _0x202014D
	CALL SUBOPT_0x97
	LDI  R30,LOW(2)
	RJMP _0x20A0006
_0x202014D:
	CALL SUBOPT_0x9A
	CALL SUBOPT_0x9B
	CALL __CWD1
	CALL __ADDD12
	CALL SUBOPT_0x98
	LDD  R26,Y+21
	LDD  R27,Y+21+1
	CALL SUBOPT_0x9C
	BRNE PC+2
	RJMP _0x202014E
	CALL SUBOPT_0x9A
	ADD  R30,R19
	ADC  R31,R20
	MOVW R0,R30
	CALL SUBOPT_0x91
	LDD  R30,Z+2
	MOVW R26,R0
	LDI  R31,0
	CP   R30,R26
	CPC  R31,R27
	BRSH _0x202014F
	CALL SUBOPT_0x91
	LDD  R30,Z+2
	LDI  R31,0
	MOVW R26,R30
	CALL SUBOPT_0x9A
	SUB  R26,R30
	SBC  R27,R31
	__PUTW2R 19,20
_0x202014F:
	CALL SUBOPT_0x91
	LDD  R30,Z+1
	ST   -Y,R30
	CALL SUBOPT_0x81
	__GETD1S 14
	CALL __PUTPARD1
	MOV  R26,R19
	CALL _disk_read
	CPI  R30,0
	BREQ _0x2020150
	CALL SUBOPT_0x97
	LDI  R30,LOW(1)
	RJMP _0x20A0006
_0x2020150:
	LDD  R30,Y+25
	LDD  R31,Y+25+1
	LDD  R26,Z+4
	ANDI R26,LOW(0x40)
	BREQ _0x2020152
	CALL SUBOPT_0x9D
	CALL SUBOPT_0x9E
	BRLO _0x2020153
_0x2020152:
	RJMP _0x2020151
_0x2020153:
	CALL SUBOPT_0x9D
	CALL SUBOPT_0x9F
	LDD  R26,Y+5
	LDD  R27,Y+5+1
	CLR  R24
	CLR  R25
	ADD  R30,R26
	ADC  R31,R27
	CALL SUBOPT_0x92
	ADIW R30,32
	CALL SUBOPT_0xA0
_0x2020151:
	LDD  R26,Y+25
	LDD  R27,Y+25+1
	CALL SUBOPT_0xA1
	RJMP _0x2020143
_0x202014E:
	LDD  R30,Y+25
	LDD  R31,Y+25+1
	LDD  R26,Z+4
	ANDI R26,LOW(0x40)
	BREQ _0x2020154
	CALL SUBOPT_0x91
	CALL SUBOPT_0xA2
	LDD  R30,Y+28
	LDD  R31,Y+28+1
	CALL SUBOPT_0xA3
	BREQ _0x2020155
	CALL SUBOPT_0x97
	LDI  R30,LOW(1)
	RJMP _0x20A0006
_0x2020155:
	LDD  R26,Y+25
	LDD  R27,Y+25+1
	CALL SUBOPT_0xA4
_0x2020154:
	CALL SUBOPT_0x9D
	CALL __CPD12
	BREQ _0x2020156
	CALL SUBOPT_0x91
	CALL SUBOPT_0xA2
	__GETD1S 14
	CALL SUBOPT_0x35
	BREQ _0x2020157
	CALL SUBOPT_0x97
	LDI  R30,LOW(1)
	RJMP _0x20A0006
_0x2020157:
_0x2020156:
	CALL SUBOPT_0x99
	__PUTD1SNS 25,22
	LDD  R26,Y+25
	LDD  R27,Y+25+1
	ADIW R26,5
	LD   R30,X
	SUBI R30,-LOW(1)
	ST   X,R30
_0x2020146:
	LDD  R26,Y+25
	LDD  R27,Y+25+1
	CALL SUBOPT_0xA5
	CALL SUBOPT_0xA6
	LDD  R30,Y+21
	LDD  R31,Y+21+1
	CP   R30,R17
	CPC  R31,R18
	BRSH _0x2020158
	__GETWRS 17,18,21
_0x2020158:
	CALL SUBOPT_0x89
	LDD  R26,Y+27
	LDD  R27,Y+27+1
	CALL SUBOPT_0xA5
	LDD  R26,Y+27
	LDD  R27,Y+27+1
	ADIW R26,32
	ADD  R30,R26
	ADC  R31,R27
	CALL SUBOPT_0xA7
_0x2020143:
	CALL SUBOPT_0xA8
	LDD  R30,Y+25
	LDD  R31,Y+25+1
	CALL SUBOPT_0xA9
	MOVW R26,R0
	CALL __PUTDP1
	LDD  R26,Y+19
	LDD  R27,Y+19+1
	CALL SUBOPT_0xAA
	LDD  R30,Y+21
	LDD  R31,Y+21+1
	SUB  R30,R17
	SBC  R31,R18
	STD  Y+21,R30
	STD  Y+21+1,R31
	RJMP _0x2020144
_0x2020145:
	LDI  R30,LOW(0)
_0x20A0006:
	CALL __LOADLOCR5
	ADIW R28,27
	RET
; .FEND
_f_write:
; .FSTART _f_write
	ST   -Y,R27
	ST   -Y,R26
	SBIW R28,10
	CALL __SAVELOCR5
	LDD  R30,Y+19
	LDD  R31,Y+19+1
	STD  Y+5,R30
	STD  Y+5+1,R31
	LDD  R26,Y+15
	LDD  R27,Y+15+1
	CALL SUBOPT_0x82
	CALL SUBOPT_0xAB
	CALL SUBOPT_0xAC
	CALL SUBOPT_0x93
	BREQ _0x2020159
	MOV  R30,R16
	RJMP _0x20A0005
_0x2020159:
	LDD  R30,Y+21
	LDD  R31,Y+21+1
	LDD  R26,Z+4
	ANDI R26,LOW(0x80)
	BREQ _0x202015A
	LDI  R30,LOW(2)
	RJMP _0x20A0005
_0x202015A:
	LDD  R30,Y+21
	LDD  R31,Y+21+1
	LDD  R26,Z+4
	ANDI R26,LOW(0x2)
	BRNE _0x202015B
	LDI  R30,LOW(7)
	RJMP _0x20A0005
_0x202015B:
	LDD  R30,Y+21
	LDD  R31,Y+21+1
	__GETD2Z 10
	LDD  R30,Y+17
	LDD  R31,Y+17+1
	CALL SUBOPT_0x6E
	PUSH R23
	PUSH R22
	PUSH R31
	PUSH R30
	CALL SUBOPT_0xAD
	POP  R26
	POP  R27
	POP  R24
	POP  R25
	CALL __CPD21
	BRSH _0x202015C
	LDI  R30,LOW(0)
	STD  Y+17,R30
	STD  Y+17+1,R30
_0x202015C:
_0x202015E:
	LDD  R30,Y+17
	LDD  R31,Y+17+1
	SBIW R30,0
	BRNE PC+2
	RJMP _0x202015F
	CALL SUBOPT_0xAE
	MOVW R30,R26
	MOVW R22,R24
	ANDI R31,HIGH(0x1FF)
	SBIW R30,0
	BREQ PC+2
	RJMP _0x2020160
	LDD  R30,Y+21
	LDD  R31,Y+21+1
	LDD  R0,Z+5
	CALL SUBOPT_0xAB
	LDD  R30,Z+2
	CP   R0,R30
	BRSH PC+2
	RJMP _0x2020161
	LDD  R26,Y+21
	LDD  R27,Y+21+1
	ADIW R26,6
	CALL SUBOPT_0x71
	BRNE _0x2020162
	LDD  R26,Y+21
	LDD  R27,Y+21+1
	ADIW R26,14
	CALL __GETD1P
	CALL SUBOPT_0x98
	CALL SUBOPT_0x99
	CALL __CPD10
	BRNE _0x2020163
	CALL SUBOPT_0xAB
	ST   -Y,R31
	ST   -Y,R30
	CALL SUBOPT_0x55
	CALL _create_chain_G101
	CALL SUBOPT_0x98
	__PUTD1SNS 21,14
_0x2020163:
	RJMP _0x2020164
_0x2020162:
	CALL SUBOPT_0xAB
	CALL SUBOPT_0xAC
	CALL SUBOPT_0x96
	CALL _create_chain_G101
	CALL SUBOPT_0x98
_0x2020164:
	CALL SUBOPT_0x99
	CALL __CPD10
	BRNE _0x2020165
	RJMP _0x202015F
_0x2020165:
	CALL SUBOPT_0x9B
	CALL SUBOPT_0x52
	BRNE _0x2020166
	CALL SUBOPT_0xAF
	LDI  R30,LOW(2)
	RJMP _0x20A0005
_0x2020166:
	CALL SUBOPT_0x9B
	CALL SUBOPT_0x53
	BRNE _0x2020167
	CALL SUBOPT_0xAF
	LDI  R30,LOW(1)
	RJMP _0x20A0005
_0x2020167:
	CALL SUBOPT_0x99
	__PUTD1SNS 21,18
	LDD  R26,Y+21
	LDD  R27,Y+21+1
	ADIW R26,5
	LDI  R30,LOW(0)
	ST   X,R30
_0x2020161:
	LDD  R30,Y+21
	LDD  R31,Y+21+1
	LDD  R26,Z+4
	ANDI R26,LOW(0x40)
	BREQ _0x2020168
	CALL SUBOPT_0xAB
	CALL SUBOPT_0xB0
	LDD  R30,Y+24
	LDD  R31,Y+24+1
	CALL SUBOPT_0xA3
	BREQ _0x2020169
	CALL SUBOPT_0xAF
	LDI  R30,LOW(1)
	RJMP _0x20A0005
_0x2020169:
	LDD  R26,Y+21
	LDD  R27,Y+21+1
	CALL SUBOPT_0xA4
_0x2020168:
	CALL SUBOPT_0xAB
	CALL SUBOPT_0xAC
	CALL SUBOPT_0x96
	CALL _clust2sect
	CALL SUBOPT_0x95
	CALL __CPD10
	BRNE _0x202016A
	CALL SUBOPT_0xAF
	LDI  R30,LOW(2)
	RJMP _0x20A0005
_0x202016A:
	CALL SUBOPT_0xB1
	__GETD2S 7
	CALL __CWD1
	CALL __ADDD12
	__PUTD1S 7
	LDD  R26,Y+17
	LDD  R27,Y+17+1
	CALL SUBOPT_0x9C
	BRNE PC+2
	RJMP _0x202016B
	CALL SUBOPT_0xB1
	ADD  R30,R19
	ADC  R31,R20
	MOVW R0,R30
	CALL SUBOPT_0xAB
	LDD  R30,Z+2
	MOVW R26,R0
	LDI  R31,0
	CP   R30,R26
	CPC  R31,R27
	BRSH _0x202016C
	CALL SUBOPT_0xAB
	LDD  R30,Z+2
	LDI  R31,0
	MOVW R26,R30
	CALL SUBOPT_0xB1
	SUB  R26,R30
	SBC  R27,R31
	__PUTW2R 19,20
_0x202016C:
	CALL SUBOPT_0xAB
	LDD  R30,Z+1
	ST   -Y,R30
	CALL SUBOPT_0x81
	CALL SUBOPT_0x65
	MOV  R26,R19
	CALL _disk_write
	CPI  R30,0
	BREQ _0x202016D
	CALL SUBOPT_0xAF
	LDI  R30,LOW(1)
	RJMP _0x20A0005
_0x202016D:
	CALL SUBOPT_0xB2
	CALL SUBOPT_0x9E
	BRSH _0x202016E
	LDD  R30,Y+21
	LDD  R31,Y+21+1
	ADIW R30,32
	CALL SUBOPT_0xAC
	__GETD2Z 22
	__GETD1S 9
	CALL SUBOPT_0x9F
	LDD  R26,Y+7
	LDD  R27,Y+7+1
	CLR  R24
	CLR  R25
	ADD  R30,R26
	ADC  R31,R27
	CALL SUBOPT_0xA0
	LDD  R26,Y+21
	LDD  R27,Y+21+1
	CALL SUBOPT_0xA4
_0x202016E:
	LDD  R26,Y+21
	LDD  R27,Y+21+1
	CALL SUBOPT_0xA1
	RJMP _0x202015D
_0x202016B:
	CALL SUBOPT_0xB2
	CALL __CPD12
	BREQ _0x202016F
	CALL SUBOPT_0xAE
	MOVW R0,R26
	CALL SUBOPT_0xAD
	MOVW R26,R0
	CALL __CPD21
	BRSH _0x2020171
	CALL SUBOPT_0xAB
	CALL SUBOPT_0xB0
	__GETD1S 10
	CALL SUBOPT_0x35
	BRNE _0x2020172
_0x2020171:
	RJMP _0x2020170
_0x2020172:
	CALL SUBOPT_0xAF
	LDI  R30,LOW(1)
	RJMP _0x20A0005
_0x2020170:
_0x202016F:
	CALL SUBOPT_0x54
	__PUTD1SNS 21,22
	LDD  R26,Y+21
	LDD  R27,Y+21+1
	ADIW R26,5
	LD   R30,X
	SUBI R30,-LOW(1)
	ST   X,R30
_0x2020160:
	LDD  R26,Y+21
	LDD  R27,Y+21+1
	CALL SUBOPT_0xA5
	CALL SUBOPT_0xA6
	LDD  R30,Y+17
	LDD  R31,Y+17+1
	CP   R30,R17
	CPC  R31,R18
	BRSH _0x2020173
	__GETWRS 17,18,17
_0x2020173:
	LDD  R26,Y+21
	LDD  R27,Y+21+1
	CALL SUBOPT_0xA5
	LDD  R26,Y+21
	LDD  R27,Y+21+1
	ADIW R26,32
	ADD  R30,R26
	ADC  R31,R27
	ST   -Y,R31
	ST   -Y,R30
	LDD  R30,Y+7
	LDD  R31,Y+7+1
	CALL SUBOPT_0xA7
	LDD  R26,Y+21
	LDD  R27,Y+21+1
	ADIW R26,4
	LD   R30,X
	ORI  R30,0x40
	ST   X,R30
_0x202015D:
	CALL SUBOPT_0xA8
	LDD  R30,Y+21
	LDD  R31,Y+21+1
	CALL SUBOPT_0xA9
	MOVW R26,R0
	CALL __PUTDP1
	LDD  R26,Y+15
	LDD  R27,Y+15+1
	CALL SUBOPT_0xAA
	LDD  R30,Y+17
	LDD  R31,Y+17+1
	SUB  R30,R17
	SBC  R31,R18
	STD  Y+17,R30
	STD  Y+17+1,R31
	RJMP _0x202015E
_0x202015F:
	CALL SUBOPT_0xAE
	MOVW R0,R26
	CALL SUBOPT_0xAD
	MOVW R26,R0
	CALL __CPD12
	BRSH _0x2020174
	LDD  R26,Y+21
	LDD  R27,Y+21+1
	ADIW R26,6
	CALL __GETD1P
	__PUTD1SNS 21,10
_0x2020174:
	LDD  R26,Y+21
	LDD  R27,Y+21+1
	ADIW R26,4
	LD   R30,X
	ORI  R30,0x20
	ST   X,R30
	LDI  R30,LOW(0)
_0x20A0005:
	CALL __LOADLOCR5
	ADIW R28,23
	RET
; .FEND
_f_sync:
; .FSTART _f_sync
	ST   -Y,R27
	ST   -Y,R26
	SBIW R28,4
	CALL __SAVELOCR3
	CALL SUBOPT_0xB3
	ST   -Y,R31
	ST   -Y,R30
	LDD  R30,Y+9
	LDD  R31,Y+9+1
	CALL SUBOPT_0x93
	BREQ PC+2
	RJMP _0x2020175
	LDD  R30,Y+7
	LDD  R31,Y+7+1
	LDD  R26,Z+4
	ANDI R26,LOW(0x20)
	BRNE PC+2
	RJMP _0x2020176
	LDD  R26,Z+4
	ANDI R26,LOW(0x40)
	BREQ _0x2020177
	CALL SUBOPT_0xB3
	LDD  R30,Z+1
	ST   -Y,R30
	LDD  R30,Y+8
	LDD  R31,Y+8+1
	ADIW R30,32
	ST   -Y,R31
	ST   -Y,R30
	LDD  R30,Y+10
	LDD  R31,Y+10+1
	CALL SUBOPT_0xA3
	BREQ _0x2020178
	LDI  R30,LOW(1)
	CALL __LOADLOCR3
	RJMP _0x20A0004
_0x2020178:
	LDD  R26,Y+7
	LDD  R27,Y+7+1
	CALL SUBOPT_0xA4
_0x2020177:
	CALL SUBOPT_0xB3
	ST   -Y,R31
	ST   -Y,R30
	LDD  R30,Y+9
	LDD  R31,Y+9+1
	__GETD2Z 26
	CALL _move_window_G101
	MOV  R16,R30
	CPI  R16,0
	BREQ PC+2
	RJMP _0x2020179
	LDD  R26,Y+7
	LDD  R27,Y+7+1
	ADIW R26,30
	LD   R17,X+
	LD   R18,X
	__GETW2R 17,18
	ADIW R26,11
	LD   R30,X
	ORI  R30,0x20
	ST   X,R30
	LDD  R26,Y+7
	LDD  R27,Y+7+1
	ADIW R26,10
	CALL __GETD1P
	__PUTD1RONS 17,18,28
	LDD  R26,Y+7
	LDD  R27,Y+7+1
	ADIW R26,14
	CALL __GETW1P
	__PUTW1RONS 17,18,26
	LDD  R30,Y+7
	LDD  R31,Y+7+1
	__GETD2Z 14
	MOVW R30,R26
	MOVW R22,R24
	CALL __LSRD16
	__PUTW1RONS 17,18,20
	CALL _get_fattime
	CALL SUBOPT_0x75
	__PUTD1RONS 17,18,22
	LDD  R26,Y+7
	LDD  R27,Y+7+1
	ADIW R26,4
	LD   R30,X
	ANDI R30,0xDF
	ST   X,R30
	CALL SUBOPT_0xB3
	ADIW R30,4
	LDI  R26,LOW(1)
	STD  Z+0,R26
	CALL SUBOPT_0xB3
	MOVW R26,R30
	CALL _sync_G101
	MOV  R16,R30
_0x2020179:
_0x2020176:
_0x2020175:
	MOV  R30,R16
	CALL __LOADLOCR3
	RJMP _0x20A0004
; .FEND
_f_close:
; .FSTART _f_close
	ST   -Y,R27
	ST   -Y,R26
	ST   -Y,R16
	LDD  R26,Y+1
	LDD  R27,Y+1+1
	RCALL _f_sync
	MOV  R16,R30
	CPI  R16,0
	BRNE _0x202017A
	LDD  R26,Y+1
	LDD  R27,Y+1+1
	CALL SUBOPT_0x82
_0x202017A:
	MOV  R30,R16
	LDD  R16,Y+0
	RJMP _0x20A0003
; .FEND
	#ifndef __SLEEP_DEFINED__
	#define __SLEEP_DEFINED__
	.EQU __se_bit=0x01
	.EQU __sm_mask=0x0E
	.EQU __sm_powerdown=0x04
	.EQU __sm_powersave=0x06
	.EQU __sm_standby=0x0C
	.EQU __sm_ext_standby=0x0E
	.EQU __sm_adc_noise_red=0x02
	.SET power_ctrl_reg=smcr
	#endif

	.CSEG
_getchar:
; .FSTART _getchar
_0x2040003:
	LDS  R30,200
	ANDI R30,LOW(0x80)
	BREQ _0x2040003
	LDS  R30,206
	RET
; .FEND
_putchar:
; .FSTART _putchar
	ST   -Y,R26
_0x2040006:
	LDS  R30,200
	ANDI R30,LOW(0x20)
	BREQ _0x2040006
	LD   R30,Y
	STS  206,R30
	ADIW R28,1
	RET
; .FEND
_puts:
; .FSTART _puts
	ST   -Y,R27
	ST   -Y,R26
	ST   -Y,R16
_0x2040009:
	LDD  R26,Y+1
	LDD  R27,Y+1+1
	LD   R30,X+
	STD  Y+1,R26
	STD  Y+1+1,R27
	MOV  R16,R30
	CPI  R30,0
	BREQ _0x204000B
	MOV  R26,R16
	RCALL _putchar
	RJMP _0x2040009
_0x204000B:
	LDI  R26,LOW(10)
	RCALL _putchar
	LDD  R16,Y+0
	RJMP _0x20A0003
; .FEND
_gets:
; .FSTART _gets
	ST   -Y,R27
	ST   -Y,R26
	CALL __SAVELOCR5
	__GETWRS 16,17,5
	__GETWRS 18,19,7
_0x2040026:
	MOV  R0,R16
	OR   R0,R17
	BREQ _0x2040028
_0x2040029:
	RCALL _getchar
	MOV  R20,R30
	CPI  R20,8
	BRNE _0x204002A
	LDD  R26,Y+5
	LDD  R27,Y+5+1
	CP   R16,R26
	CPC  R17,R27
	BRSH _0x204002B
	__SUBWRN 18,19,1
	__ADDWRN 16,17,1
_0x204002B:
	RJMP _0x2040029
_0x204002A:
	CPI  R20,10
	BREQ _0x2040028
	PUSH R19
	PUSH R18
	__ADDWRN 18,19,1
	MOV  R30,R20
	POP  R26
	POP  R27
	ST   X,R30
	__SUBWRN 16,17,1
	RJMP _0x2040026
_0x2040028:
	MOVW R26,R18
	LDI  R30,LOW(0)
	ST   X,R30
	LDD  R30,Y+7
	LDD  R31,Y+7+1
	CALL __LOADLOCR5
_0x20A0004:
	ADIW R28,9
	RET
; .FEND
_put_usart_G102:
; .FSTART _put_usart_G102
	ST   -Y,R27
	ST   -Y,R26
	LDD  R26,Y+2
	RCALL _putchar
	LD   R26,Y
	LDD  R27,Y+1
	CALL SUBOPT_0x26
_0x20A0003:
	ADIW R28,3
	RET
; .FEND
_put_buff_G102:
; .FSTART _put_buff_G102
	CALL SUBOPT_0xA
	LDD  R26,Y+2
	LDD  R27,Y+2+1
	ADIW R26,2
	CALL __GETW1P
	SBIW R30,0
	BREQ _0x204002D
	LDD  R26,Y+2
	LDD  R27,Y+2+1
	ADIW R26,4
	CALL __GETW1P
	MOVW R16,R30
	SBIW R30,0
	BREQ _0x204002F
	__CPWRN 16,17,2
	BRLO _0x2040030
	MOVW R30,R16
	SBIW R30,1
	MOVW R16,R30
	__PUTW1SNS 2,4
_0x204002F:
	LDD  R26,Y+2
	LDD  R27,Y+2+1
	ADIW R26,2
	CALL SUBOPT_0x26
	SBIW R30,1
	LDD  R26,Y+4
	STD  Z+0,R26
_0x2040030:
	LDD  R26,Y+2
	LDD  R27,Y+2+1
	CALL __GETW1P
	TST  R31
	BRMI _0x2040031
	CALL SUBOPT_0x26
_0x2040031:
	RJMP _0x2040032
_0x204002D:
	LDD  R26,Y+2
	LDD  R27,Y+2+1
	LDI  R30,LOW(65535)
	LDI  R31,HIGH(65535)
	ST   X+,R30
	ST   X,R31
_0x2040032:
	LDD  R17,Y+1
	LDD  R16,Y+0
	JMP  _0x20A0001
; .FEND
__print_G102:
; .FSTART __print_G102
	ST   -Y,R27
	ST   -Y,R26
	SBIW R28,6
	CALL __SAVELOCR6
	LDI  R16,0
	LDD  R26,Y+12
	LDD  R27,Y+12+1
	CALL SUBOPT_0x82
_0x2040037:
	LDD  R30,Y+18
	LDD  R31,Y+18+1
	ADIW R30,1
	STD  Y+18,R30
	STD  Y+18+1,R31
	SBIW R30,1
	LPM  R30,Z
	MOV  R19,R30
	CPI  R30,0
	BRNE PC+2
	RJMP _0x2040039
	MOV  R30,R16
	CPI  R30,0
	BRNE _0x204003D
	CPI  R19,37
	BRNE _0x204003E
	LDI  R16,LOW(1)
	RJMP _0x204003F
_0x204003E:
	CALL SUBOPT_0xB4
_0x204003F:
	RJMP _0x204003C
_0x204003D:
	CPI  R30,LOW(0x1)
	BRNE _0x2040040
	CPI  R19,37
	BRNE _0x2040041
	CALL SUBOPT_0xB4
	RJMP _0x20400F5
_0x2040041:
	LDI  R16,LOW(2)
	LDI  R21,LOW(0)
	LDI  R17,LOW(0)
	CPI  R19,45
	BRNE _0x2040042
	LDI  R17,LOW(1)
	RJMP _0x204003C
_0x2040042:
	CPI  R19,43
	BRNE _0x2040043
	LDI  R21,LOW(43)
	RJMP _0x204003C
_0x2040043:
	CPI  R19,32
	BRNE _0x2040044
	LDI  R21,LOW(32)
	RJMP _0x204003C
_0x2040044:
	RJMP _0x2040045
_0x2040040:
	CPI  R30,LOW(0x2)
	BRNE _0x2040046
_0x2040045:
	LDI  R20,LOW(0)
	LDI  R16,LOW(3)
	CPI  R19,48
	BRNE _0x2040047
	ORI  R17,LOW(128)
	RJMP _0x204003C
_0x2040047:
	RJMP _0x2040048
_0x2040046:
	CPI  R30,LOW(0x3)
	BREQ PC+2
	RJMP _0x204003C
_0x2040048:
	CPI  R19,48
	BRLO _0x204004B
	CPI  R19,58
	BRLO _0x204004C
_0x204004B:
	RJMP _0x204004A
_0x204004C:
	LDI  R26,LOW(10)
	MUL  R20,R26
	MOV  R20,R0
	MOV  R30,R19
	SUBI R30,LOW(48)
	ADD  R20,R30
	RJMP _0x204003C
_0x204004A:
	MOV  R30,R19
	CPI  R30,LOW(0x63)
	BRNE _0x2040050
	CALL SUBOPT_0xB5
	LDD  R30,Y+16
	LDD  R31,Y+16+1
	LDD  R26,Z+4
	ST   -Y,R26
	CALL SUBOPT_0xB6
	RJMP _0x2040051
_0x2040050:
	CPI  R30,LOW(0x73)
	BRNE _0x2040053
	CALL SUBOPT_0xB5
	LDD  R26,Y+16
	LDD  R27,Y+16+1
	ADIW R26,4
	CALL SUBOPT_0x7A
	LDD  R26,Y+6
	LDD  R27,Y+6+1
	CALL _strlen
	MOV  R16,R30
	RJMP _0x2040054
_0x2040053:
	CPI  R30,LOW(0x70)
	BRNE _0x2040056
	CALL SUBOPT_0xB5
	LDD  R26,Y+16
	LDD  R27,Y+16+1
	ADIW R26,4
	CALL SUBOPT_0x7A
	LDD  R26,Y+6
	LDD  R27,Y+6+1
	CALL _strlenf
	MOV  R16,R30
	ORI  R17,LOW(8)
_0x2040054:
	ORI  R17,LOW(2)
	ANDI R17,LOW(127)
	LDI  R18,LOW(0)
	RJMP _0x2040057
_0x2040056:
	CPI  R30,LOW(0x64)
	BREQ _0x204005A
	CPI  R30,LOW(0x69)
	BRNE _0x204005B
_0x204005A:
	ORI  R17,LOW(4)
	RJMP _0x204005C
_0x204005B:
	CPI  R30,LOW(0x75)
	BRNE _0x204005D
_0x204005C:
	LDI  R30,LOW(_tbl10_G102*2)
	LDI  R31,HIGH(_tbl10_G102*2)
	STD  Y+6,R30
	STD  Y+6+1,R31
	LDI  R16,LOW(5)
	RJMP _0x204005E
_0x204005D:
	CPI  R30,LOW(0x58)
	BRNE _0x2040060
	ORI  R17,LOW(8)
	RJMP _0x2040061
_0x2040060:
	CPI  R30,LOW(0x78)
	BREQ PC+2
	RJMP _0x2040092
_0x2040061:
	LDI  R30,LOW(_tbl16_G102*2)
	LDI  R31,HIGH(_tbl16_G102*2)
	STD  Y+6,R30
	STD  Y+6+1,R31
	LDI  R16,LOW(4)
_0x204005E:
	SBRS R17,2
	RJMP _0x2040063
	CALL SUBOPT_0xB5
	CALL SUBOPT_0xB7
	LDD  R26,Y+11
	TST  R26
	BRPL _0x2040064
	LDD  R30,Y+10
	LDD  R31,Y+10+1
	CALL __ANEGW1
	STD  Y+10,R30
	STD  Y+10+1,R31
	LDI  R21,LOW(45)
_0x2040064:
	CPI  R21,0
	BREQ _0x2040065
	SUBI R16,-LOW(1)
	RJMP _0x2040066
_0x2040065:
	ANDI R17,LOW(251)
_0x2040066:
	RJMP _0x2040067
_0x2040063:
	CALL SUBOPT_0xB5
	CALL SUBOPT_0xB7
_0x2040067:
_0x2040057:
	SBRC R17,0
	RJMP _0x2040068
_0x2040069:
	CP   R16,R20
	BRSH _0x204006B
	SBRS R17,7
	RJMP _0x204006C
	SBRS R17,2
	RJMP _0x204006D
	ANDI R17,LOW(251)
	MOV  R19,R21
	SUBI R16,LOW(1)
	RJMP _0x204006E
_0x204006D:
	LDI  R19,LOW(48)
_0x204006E:
	RJMP _0x204006F
_0x204006C:
	LDI  R19,LOW(32)
_0x204006F:
	CALL SUBOPT_0xB4
	SUBI R20,LOW(1)
	RJMP _0x2040069
_0x204006B:
_0x2040068:
	MOV  R18,R16
	SBRS R17,1
	RJMP _0x2040070
_0x2040071:
	CPI  R18,0
	BREQ _0x2040073
	SBRS R17,3
	RJMP _0x2040074
	LDD  R30,Y+6
	LDD  R31,Y+6+1
	LPM  R19,Z+
	STD  Y+6,R30
	STD  Y+6+1,R31
	RJMP _0x2040075
_0x2040074:
	LDD  R26,Y+6
	LDD  R27,Y+6+1
	LD   R19,X+
	STD  Y+6,R26
	STD  Y+6+1,R27
_0x2040075:
	CALL SUBOPT_0xB4
	CPI  R20,0
	BREQ _0x2040076
	SUBI R20,LOW(1)
_0x2040076:
	SUBI R18,LOW(1)
	RJMP _0x2040071
_0x2040073:
	RJMP _0x2040077
_0x2040070:
_0x2040079:
	LDI  R19,LOW(48)
	LDD  R30,Y+6
	LDD  R31,Y+6+1
	CALL __GETW1PF
	STD  Y+8,R30
	STD  Y+8+1,R31
	LDD  R30,Y+6
	LDD  R31,Y+6+1
	ADIW R30,2
	STD  Y+6,R30
	STD  Y+6+1,R31
_0x204007B:
	LDD  R30,Y+8
	LDD  R31,Y+8+1
	LDD  R26,Y+10
	LDD  R27,Y+10+1
	CP   R26,R30
	CPC  R27,R31
	BRLO _0x204007D
	SUBI R19,-LOW(1)
	LDD  R26,Y+8
	LDD  R27,Y+8+1
	LDD  R30,Y+10
	LDD  R31,Y+10+1
	SUB  R30,R26
	SBC  R31,R27
	STD  Y+10,R30
	STD  Y+10+1,R31
	RJMP _0x204007B
_0x204007D:
	CPI  R19,58
	BRLO _0x204007E
	SBRS R17,3
	RJMP _0x204007F
	SUBI R19,-LOW(7)
	RJMP _0x2040080
_0x204007F:
	SUBI R19,-LOW(39)
_0x2040080:
_0x204007E:
	SBRC R17,4
	RJMP _0x2040082
	CPI  R19,49
	BRSH _0x2040084
	LDD  R26,Y+8
	LDD  R27,Y+8+1
	SBIW R26,1
	BRNE _0x2040083
_0x2040084:
	RJMP _0x20400F6
_0x2040083:
	CP   R20,R18
	BRLO _0x2040088
	SBRS R17,0
	RJMP _0x2040089
_0x2040088:
	RJMP _0x2040087
_0x2040089:
	LDI  R19,LOW(32)
	SBRS R17,7
	RJMP _0x204008A
	LDI  R19,LOW(48)
_0x20400F6:
	ORI  R17,LOW(16)
	SBRS R17,2
	RJMP _0x204008B
	ANDI R17,LOW(251)
	ST   -Y,R21
	CALL SUBOPT_0xB6
	CPI  R20,0
	BREQ _0x204008C
	SUBI R20,LOW(1)
_0x204008C:
_0x204008B:
_0x204008A:
_0x2040082:
	CALL SUBOPT_0xB4
	CPI  R20,0
	BREQ _0x204008D
	SUBI R20,LOW(1)
_0x204008D:
_0x2040087:
	SUBI R18,LOW(1)
	LDD  R26,Y+8
	LDD  R27,Y+8+1
	SBIW R26,2
	BRLO _0x204007A
	RJMP _0x2040079
_0x204007A:
_0x2040077:
	SBRS R17,0
	RJMP _0x204008E
_0x204008F:
	CPI  R20,0
	BREQ _0x2040091
	SUBI R20,LOW(1)
	LDI  R30,LOW(32)
	ST   -Y,R30
	CALL SUBOPT_0xB6
	RJMP _0x204008F
_0x2040091:
_0x204008E:
_0x2040092:
_0x2040051:
_0x20400F5:
	LDI  R16,LOW(0)
_0x204003C:
	RJMP _0x2040037
_0x2040039:
	LDD  R26,Y+12
	LDD  R27,Y+12+1
	CALL __GETW1P
	CALL __LOADLOCR6
	ADIW R28,20
	RET
; .FEND
_sprintf:
; .FSTART _sprintf
	PUSH R15
	MOV  R15,R24
	SBIW R28,6
	CALL __SAVELOCR4
	MOVW R26,R28
	ADIW R26,12
	CALL SUBOPT_0xB8
	SBIW R30,0
	BRNE _0x2040093
	LDI  R30,LOW(65535)
	LDI  R31,HIGH(65535)
	RJMP _0x20A0002
_0x2040093:
	MOVW R26,R28
	ADIW R26,6
	CALL __ADDW2R15
	MOVW R16,R26
	MOVW R26,R28
	ADIW R26,12
	CALL __ADDW2R15
	CALL SUBOPT_0x7A
	LDI  R30,LOW(0)
	STD  Y+8,R30
	STD  Y+8+1,R30
	MOVW R26,R28
	ADIW R26,10
	CALL SUBOPT_0xB8
	ST   -Y,R31
	ST   -Y,R30
	ST   -Y,R17
	ST   -Y,R16
	LDI  R30,LOW(_put_buff_G102)
	LDI  R31,HIGH(_put_buff_G102)
	ST   -Y,R31
	ST   -Y,R30
	MOVW R26,R28
	ADIW R26,10
	RCALL __print_G102
	MOVW R18,R30
	LDD  R26,Y+6
	LDD  R27,Y+6+1
	LDI  R30,LOW(0)
	ST   X,R30
	MOVW R30,R18
_0x20A0002:
	CALL __LOADLOCR4
	ADIW R28,10
	POP  R15
	RET
; .FEND
_printf:
; .FSTART _printf
	PUSH R15
	MOV  R15,R24
	SBIW R28,6
	ST   -Y,R17
	ST   -Y,R16
	MOVW R26,R28
	ADIW R26,4
	CALL __ADDW2R15
	MOVW R16,R26
	LDI  R30,LOW(0)
	STD  Y+4,R30
	STD  Y+4+1,R30
	STD  Y+6,R30
	STD  Y+6+1,R30
	MOVW R26,R28
	ADIW R26,8
	CALL SUBOPT_0xB8
	ST   -Y,R31
	ST   -Y,R30
	ST   -Y,R17
	ST   -Y,R16
	LDI  R30,LOW(_put_usart_G102)
	LDI  R31,HIGH(_put_usart_G102)
	ST   -Y,R31
	ST   -Y,R30
	MOVW R26,R28
	ADIW R26,8
	RCALL __print_G102
	LDD  R17,Y+1
	LDD  R16,Y+0
	ADIW R28,8
	POP  R15
	RET
; .FEND

	.CSEG
_memcmp:
; .FSTART _memcmp
	ST   -Y,R27
	ST   -Y,R26
    clr  r22
    clr  r23
    ld   r24,y+
    ld   r25,y+
    ld   r30,y+
    ld   r31,y+
    ld   r26,y+
    ld   r27,y+
memcmp0:
    adiw r24,0
    breq memcmp1
    sbiw r24,1
    ld   r22,x+
    ld   r23,z+
    cp   r22,r23
    breq memcmp0
memcmp1:
    sub  r22,r23
    brcc memcmp2
    ldi  r30,-1
    ret
memcmp2:
    ldi  r30,0
    breq memcmp3
    inc  r30
memcmp3:
    ret
; .FEND
_memcpy:
; .FSTART _memcpy
	ST   -Y,R27
	ST   -Y,R26
    ldd  r25,y+1
    ld   r24,y
    adiw r24,0
    breq memcpy1
    ldd  r27,y+5
    ldd  r26,y+4
    ldd  r31,y+3
    ldd  r30,y+2
memcpy0:
    ld   r22,z+
    st   x+,r22
    sbiw r24,1
    brne memcpy0
memcpy1:
    ldd  r31,y+5
    ldd  r30,y+4
	ADIW R28,6
	RET
; .FEND
_memset:
; .FSTART _memset
	ST   -Y,R27
	ST   -Y,R26
    ldd  r27,y+1
    ld   r26,y
    adiw r26,0
    breq memset1
    ldd  r31,y+4
    ldd  r30,y+3
    ldd  r22,y+2
memset0:
    st   z+,r22
    sbiw r26,1
    brne memset0
memset1:
    ldd  r30,y+3
    ldd  r31,y+4
_0x20A0001:
	ADIW R28,5
	RET
; .FEND
_strcat:
; .FSTART _strcat
	ST   -Y,R27
	ST   -Y,R26
    ld   r30,y+
    ld   r31,y+
    ld   r26,y+
    ld   r27,y+
    movw r24,r26
strcat0:
    ld   r22,x+
    tst  r22
    brne strcat0
    sbiw r26,1
strcat1:
    ld   r22,z+
    st   x+,r22
    tst  r22
    brne strcat1
    movw r30,r24
    ret
; .FEND
_strlen:
; .FSTART _strlen
	ST   -Y,R27
	ST   -Y,R26
    ld   r26,y+
    ld   r27,y+
    clr  r30
    clr  r31
strlen0:
    ld   r22,x+
    tst  r22
    breq strlen1
    adiw r30,1
    rjmp strlen0
strlen1:
    ret
; .FEND
_strlenf:
; .FSTART _strlenf
	ST   -Y,R27
	ST   -Y,R26
    clr  r26
    clr  r27
    ld   r30,y+
    ld   r31,y+
strlenf0:
	lpm  r0,z+
    tst  r0
    breq strlenf1
    adiw r26,1
    rjmp strlenf0
strlenf1:
    movw r30,r26
    ret
; .FEND

	.CSEG

	.DSEG
_prtc_get_time:
	.BYTE 0x2
_prtc_get_date:
	.BYTE 0x2
_cursor:
	.BYTE 0x1
_time_count_all:
	.BYTE 0x2
_time_count_ciph:
	.BYTE 0x2
_br:
	.BYTE 0x2
_n:
	.BYTE 0x2
_i:
	.BYTE 0x1
_option:
	.BYTE 0x1
_key_set:
	.BYTE 0x1
_file_name:
	.BYTE 0x32
_key:
	.BYTE 0x10
_expanded_key:
	.BYTE 0xB0
_aux:
	.BYTE 0x14
_buffer_in:
	.BYTE 0x200
_buffer_out:
	.BYTE 0x200
_status_G100:
	.BYTE 0x1
_timer1_G100:
	.BYTE 0x1
_timer2_G100:
	.BYTE 0x1
_card_type_G100:
	.BYTE 0x1
_flags_S100000C000:
	.BYTE 0x1
_FatFs_G101:
	.BYTE 0x2
_Fsid_G101:
	.BYTE 0x2
_Drive_G101:
	.BYTE 0x1

	.CSEG
;OPTIMIZER ADDED SUBROUTINE, CALLED 5 TIMES, CODE SIZE REDUCTION:5 WORDS
SUBOPT_0x0:
	LDI  R26,LOW(2)
	LDI  R27,0
	JMP  _delay_ms

;OPTIMIZER ADDED SUBROUTINE, CALLED 17 TIMES, CODE SIZE REDUCTION:29 WORDS
SUBOPT_0x1:
	MOVW R26,R28
	ADIW R26,1
	ADD  R26,R30
	ADC  R27,R31
	RET

;OPTIMIZER ADDED SUBROUTINE, CALLED 3 TIMES, CODE SIZE REDUCTION:1 WORDS
SUBOPT_0x2:
	CALL _SendDataBitsLCD
	JMP  _PulseEn

;OPTIMIZER ADDED SUBROUTINE, CALLED 2 TIMES, CODE SIZE REDUCTION:3 WORDS
SUBOPT_0x3:
	LDD  R30,Y+1
	ANDI R30,LOW(0xF0)
	MOV  R16,R30
	SWAP R16
	ANDI R16,0xF
	MOV  R26,R16
	RJMP SUBOPT_0x2

;OPTIMIZER ADDED SUBROUTINE, CALLED 2 TIMES, CODE SIZE REDUCTION:3 WORDS
SUBOPT_0x4:
	LDD  R30,Y+1
	ANDI R30,LOW(0xF)
	MOV  R16,R30
	MOV  R26,R16
	CALL _SendDataBitsLCD
	RJMP SUBOPT_0x0

;OPTIMIZER ADDED SUBROUTINE, CALLED 4 TIMES, CODE SIZE REDUCTION:3 WORDS
SUBOPT_0x5:
	ST   -Y,R27
	ST   -Y,R26
	ST   -Y,R16
	LDI  R16,LOW(0)
	RET

;OPTIMIZER ADDED SUBROUTINE, CALLED 3 TIMES, CODE SIZE REDUCTION:3 WORDS
SUBOPT_0x6:
	LDD  R26,Y+1
	LDD  R27,Y+1+1
	LDI  R31,0
	ADD  R30,R26
	ADC  R31,R27
	RET

;OPTIMIZER ADDED SUBROUTINE, CALLED 3 TIMES, CODE SIZE REDUCTION:5 WORDS
SUBOPT_0x7:
	LDD  R26,Y+1
	LDD  R27,Y+1+1
	CLR  R30
	ADD  R26,R16
	ADC  R27,R30
	LD   R30,X
	RET

;OPTIMIZER ADDED SUBROUTINE, CALLED 6 TIMES, CODE SIZE REDUCTION:7 WORDS
SUBOPT_0x8:
	CALL __SWAPW12
	SUB  R30,R26
	SBC  R31,R27
	RET

;OPTIMIZER ADDED SUBROUTINE, CALLED 5 TIMES, CODE SIZE REDUCTION:5 WORDS
SUBOPT_0x9:
	CLR  R30
	ADD  R26,R16
	ADC  R27,R30
	LD   R30,X
	RET

;OPTIMIZER ADDED SUBROUTINE, CALLED 3 TIMES, CODE SIZE REDUCTION:1 WORDS
SUBOPT_0xA:
	ST   -Y,R27
	ST   -Y,R26
	ST   -Y,R17
	ST   -Y,R16
	RET

;OPTIMIZER ADDED SUBROUTINE, CALLED 2 TIMES, CODE SIZE REDUCTION:1 WORDS
SUBOPT_0xB:
	LDD  R26,Y+2
	LDD  R27,Y+2+1
	LDI  R31,0
	ADD  R30,R26
	ADC  R31,R27
	MOVW R0,R30
	RET

;OPTIMIZER ADDED SUBROUTINE, CALLED 3 TIMES, CODE SIZE REDUCTION:1 WORDS
SUBOPT_0xC:
	ADD  R26,R30
	ADC  R27,R31
	LD   R30,X
	MOVW R26,R0
	RET

;OPTIMIZER ADDED SUBROUTINE, CALLED 2 TIMES, CODE SIZE REDUCTION:1 WORDS
SUBOPT_0xD:
	LDI  R31,0
	SUBI R30,LOW(-_sbox*2)
	SBCI R31,HIGH(-_sbox*2)
	LPM  R30,Z
	MOVW R26,R0
	ST   X,R30
	RET

;OPTIMIZER ADDED SUBROUTINE, CALLED 3 TIMES, CODE SIZE REDUCTION:1 WORDS
SUBOPT_0xE:
	LDI  R31,0
	ADD  R30,R26
	ADC  R31,R27
	MOVW R0,R30
	RET

;OPTIMIZER ADDED SUBROUTINE, CALLED 5 TIMES, CODE SIZE REDUCTION:5 WORDS
SUBOPT_0xF:
	MOVW R30,R28
	ADIW R30,3
	ST   -Y,R31
	ST   -Y,R30
	RET

;OPTIMIZER ADDED SUBROUTINE, CALLED 5 TIMES, CODE SIZE REDUCTION:5 WORDS
SUBOPT_0x10:
	LD   R30,X
	EOR  R30,R0
	MOVW R26,R22
	ST   X,R30
	RET

;OPTIMIZER ADDED SUBROUTINE, CALLED 2 TIMES, CODE SIZE REDUCTION:1 WORDS
SUBOPT_0x11:
	ST   -Y,R27
	ST   -Y,R26
	SBIW R28,16
	ST   -Y,R17
	ST   -Y,R16
	LDI  R16,LOW(0)
	RET

;OPTIMIZER ADDED SUBROUTINE, CALLED 2 TIMES, CODE SIZE REDUCTION:6 WORDS
SUBOPT_0x12:
	MOV  R30,R16
	LDI  R31,0
	MOVW R26,R28
	ADIW R26,2
	ADD  R30,R26
	ADC  R31,R27
	MOVW R0,R30
	LDD  R26,Y+18
	LDD  R27,Y+18+1
	RJMP SUBOPT_0x9

;OPTIMIZER ADDED SUBROUTINE, CALLED 2 TIMES, CODE SIZE REDUCTION:1 WORDS
SUBOPT_0x13:
	MOV  R30,R17
	LDI  R31,0
	LDI  R26,LOW(4)
	LDI  R27,HIGH(4)
	RJMP SUBOPT_0x8

;OPTIMIZER ADDED SUBROUTINE, CALLED 4 TIMES, CODE SIZE REDUCTION:18 WORDS
SUBOPT_0x14:
	MOVW R0,R30
	LDD  R26,Y+17
	LDD  R27,Y+17+1
	ADD  R30,R26
	ADC  R31,R27
	MOVW R22,R30
	MOVW R30,R0
	RJMP SUBOPT_0x1

;OPTIMIZER ADDED SUBROUTINE, CALLED 4 TIMES, CODE SIZE REDUCTION:12 WORDS
SUBOPT_0x15:
	LD   R30,X
	LDI  R31,0
	SUBI R30,LOW(-_x2*2)
	SBCI R31,HIGH(-_x2*2)
	LPM  R0,Z
	MOV  R30,R16
	LDI  R31,0
	RET

;OPTIMIZER ADDED SUBROUTINE, CALLED 4 TIMES, CODE SIZE REDUCTION:15 WORDS
SUBOPT_0x16:
	LD   R30,X
	LDI  R31,0
	SUBI R30,LOW(-_x3*2)
	SBCI R31,HIGH(-_x3*2)
	LPM  R30,Z
	EOR  R0,R30
	MOV  R30,R16
	LDI  R31,0
	RET

;OPTIMIZER ADDED SUBROUTINE, CALLED 4 TIMES, CODE SIZE REDUCTION:3 WORDS
SUBOPT_0x17:
	LD   R30,X
	EOR  R0,R30
	MOV  R30,R16
	LDI  R31,0
	RET

;OPTIMIZER ADDED SUBROUTINE, CALLED 3 TIMES, CODE SIZE REDUCTION:5 WORDS
SUBOPT_0x18:
	LDD  R30,Y+17
	LDD  R31,Y+17+1
	ST   -Y,R31
	ST   -Y,R30
	RJMP SUBOPT_0xF

;OPTIMIZER ADDED SUBROUTINE, CALLED 3 TIMES, CODE SIZE REDUCTION:21 WORDS
SUBOPT_0x19:
	CALL __sub_array
	MOVW R26,R28
	ADIW R26,1
	CALL __rotate_key
	LDD  R30,Y+19
	LDD  R31,Y+19+1
	ST   -Y,R31
	ST   -Y,R30
	MOVW R26,R28
	ADIW R26,3
	JMP  __add_round_key

;OPTIMIZER ADDED SUBROUTINE, CALLED 2 TIMES, CODE SIZE REDUCTION:3 WORDS
SUBOPT_0x1A:
	LDD  R26,Y+19
	LDD  R27,Y+19+1
	CALL __sub_bytes
	LDD  R26,Y+19
	LDD  R27,Y+19+1
	JMP  __shift_rows

;OPTIMIZER ADDED SUBROUTINE, CALLED 2 TIMES, CODE SIZE REDUCTION:3 WORDS
SUBOPT_0x1B:
	LDD  R30,Y+43
	LDD  R31,Y+43+1
	ANDI R30,LOW(0xF)
	ANDI R31,HIGH(0xF)
	LDI  R26,LOW(16)
	LDI  R27,HIGH(16)
	RJMP SUBOPT_0x8

;OPTIMIZER ADDED SUBROUTINE, CALLED 2 TIMES, CODE SIZE REDUCTION:1 WORDS
SUBOPT_0x1C:
	ST   -Y,R26
	ST   -Y,R27
	ST   -Y,R30
	ST   -Y,R31
	IN   R30,SREG
	ST   -Y,R30
	RET

;OPTIMIZER ADDED SUBROUTINE, CALLED 2 TIMES, CODE SIZE REDUCTION:3 WORDS
SUBOPT_0x1D:
	CALL _stop_timer_all
	CALL _stop_timer_ciph
	CALL _reset_timer_all
	JMP  _reset_timer_ciph

;OPTIMIZER ADDED SUBROUTINE, CALLED 6 TIMES, CODE SIZE REDUCTION:12 WORDS
SUBOPT_0x1E:
	LDI  R30,LOW(0)
	ST   -Y,R30
	LDI  R26,LOW(0)
	JMP  _MoveCursor

;OPTIMIZER ADDED SUBROUTINE, CALLED 7 TIMES, CODE SIZE REDUCTION:21 WORDS
SUBOPT_0x1F:
	CALL _StringLCD
	LDI  R26,LOW(1500)
	LDI  R27,HIGH(1500)
	JMP  _delay_ms

;OPTIMIZER ADDED SUBROUTINE, CALLED 3 TIMES, CODE SIZE REDUCTION:13 WORDS
SUBOPT_0x20:
	CALL _puts
	LDI  R30,LOW(_file_name)
	LDI  R31,HIGH(_file_name)
	ST   -Y,R31
	ST   -Y,R30
	LDI  R26,LOW(100)
	LDI  R27,0
	JMP  _gets

;OPTIMIZER ADDED SUBROUTINE, CALLED 5 TIMES, CODE SIZE REDUCTION:9 WORDS
SUBOPT_0x21:
	MOVW R30,R28
	SUBI R30,LOW(-(544))
	SBCI R31,HIGH(-(544))
	ST   -Y,R31
	ST   -Y,R30
	RET

;OPTIMIZER ADDED SUBROUTINE, CALLED 5 TIMES, CODE SIZE REDUCTION:5 WORDS
SUBOPT_0x22:
	LDI  R30,LOW(_file_name)
	LDI  R31,HIGH(_file_name)
	ST   -Y,R31
	ST   -Y,R30
	RET

;OPTIMIZER ADDED SUBROUTINE, CALLED 3 TIMES, CODE SIZE REDUCTION:3 WORDS
SUBOPT_0x23:
	LDI  R26,LOW(19)
	CALL _f_open
	MOV  R16,R30
	CPI  R16,0
	RET

;OPTIMIZER ADDED SUBROUTINE, CALLED 4 TIMES, CODE SIZE REDUCTION:3 WORDS
SUBOPT_0x24:
	LDI  R30,LOW(_buffer_in)
	LDI  R31,HIGH(_buffer_in)
	ST   -Y,R31
	ST   -Y,R30
	RET

;OPTIMIZER ADDED SUBROUTINE, CALLED 2 TIMES, CODE SIZE REDUCTION:3 WORDS
SUBOPT_0x25:
	LDI  R30,LOW(256)
	LDI  R31,HIGH(256)
	ST   -Y,R31
	ST   -Y,R30
	LDI  R26,LOW(_br)
	LDI  R27,HIGH(_br)
	JMP  _f_read

;OPTIMIZER ADDED SUBROUTINE, CALLED 5 TIMES, CODE SIZE REDUCTION:9 WORDS
SUBOPT_0x26:
	LD   R30,X+
	LD   R31,X+
	ADIW R30,1
	ST   -X,R31
	ST   -X,R30
	RET

;OPTIMIZER ADDED SUBROUTINE, CALLED 3 TIMES, CODE SIZE REDUCTION:19 WORDS
SUBOPT_0x27:
	ST   -Y,R31
	ST   -Y,R30
	LDS  R26,_n
	LDS  R27,_n+1
	LDI  R30,LOW(16)
	CALL __MULB1W2U
	CLR  R22
	CLR  R23
	CALL __PUTPARD1
	RET

;OPTIMIZER ADDED SUBROUTINE, CALLED 5 TIMES, CODE SIZE REDUCTION:9 WORDS
SUBOPT_0x28:
	LDI  R30,LOW(0)
	ST   -Y,R30
	LDI  R26,LOW(1)
	JMP  _MoveCursor

;OPTIMIZER ADDED SUBROUTINE, CALLED 3 TIMES, CODE SIZE REDUCTION:1 WORDS
SUBOPT_0x29:
	LDI  R24,4
	CALL _printf
	ADIW R28,6
	RET

;OPTIMIZER ADDED SUBROUTINE, CALLED 2 TIMES, CODE SIZE REDUCTION:11 WORDS
SUBOPT_0x2A:
	CLR  R22
	CLR  R23
	CALL __CDF1
	MOVW R26,R30
	MOVW R24,R22
	__GETD1N 0x3A83126F
	CALL __DIVF21
	CALL __PUTPARD1
	RJMP SUBOPT_0x29

;OPTIMIZER ADDED SUBROUTINE, CALLED 3 TIMES, CODE SIZE REDUCTION:1 WORDS
SUBOPT_0x2B:
	CALL _EraseLCD
	RJMP SUBOPT_0x28

;OPTIMIZER ADDED SUBROUTINE, CALLED 2 TIMES, CODE SIZE REDUCTION:1 WORDS
SUBOPT_0x2C:
	CALL _f_close
	LDI  R26,LOW(500)
	LDI  R27,HIGH(500)
	JMP  _delay_ms

;OPTIMIZER ADDED SUBROUTINE, CALLED 3 TIMES, CODE SIZE REDUCTION:1 WORDS
SUBOPT_0x2D:
	__POINTW2FN _0x0,389
	JMP  _StringLCD

;OPTIMIZER ADDED SUBROUTINE, CALLED 3 TIMES, CODE SIZE REDUCTION:3 WORDS
SUBOPT_0x2E:
	LDI  R31,0
	CALL __CWD1
	MOVW R26,R30
	MOVW R24,R22
	RET

;OPTIMIZER ADDED SUBROUTINE, CALLED 3 TIMES, CODE SIZE REDUCTION:1 WORDS
SUBOPT_0x2F:
	__PUTD1S 1
	RET

;OPTIMIZER ADDED SUBROUTINE, CALLED 3 TIMES, CODE SIZE REDUCTION:1 WORDS
SUBOPT_0x30:
	__GETD1S 5
	RET

;OPTIMIZER ADDED SUBROUTINE, CALLED 5 TIMES, CODE SIZE REDUCTION:5 WORDS
SUBOPT_0x31:
	__GETD2S 1
	RET

;OPTIMIZER ADDED SUBROUTINE, CALLED 2 TIMES, CODE SIZE REDUCTION:13 WORDS
SUBOPT_0x32:
	LDD  R30,Y+9
	LDD  R31,Y+9+1
	LDD  R26,Z+1
	ST   -Y,R26
	LDD  R30,Y+10
	LDD  R31,Y+10+1
	ADIW R30,50
	ST   -Y,R31
	ST   -Y,R30
	__GETD1S 4
	CALL __PUTPARD1
	LDI  R26,LOW(1)
	JMP  _disk_write

;OPTIMIZER ADDED SUBROUTINE, CALLED 3 TIMES, CODE SIZE REDUCTION:1 WORDS
SUBOPT_0x33:
	__GETD2Z 34
	RET

;OPTIMIZER ADDED SUBROUTINE, CALLED 4 TIMES, CODE SIZE REDUCTION:3 WORDS
SUBOPT_0x34:
	__GETD1S 8
	RET

;OPTIMIZER ADDED SUBROUTINE, CALLED 4 TIMES, CODE SIZE REDUCTION:9 WORDS
SUBOPT_0x35:
	CALL __PUTPARD1
	LDI  R26,LOW(1)
	CALL _disk_read
	CPI  R30,0
	RET

;OPTIMIZER ADDED SUBROUTINE, CALLED 3 TIMES, CODE SIZE REDUCTION:9 WORDS
SUBOPT_0x36:
	ST   -Y,R31
	ST   -Y,R30
	__GETD2N 0x0
	JMP  _move_window_G101

;OPTIMIZER ADDED SUBROUTINE, CALLED 2 TIMES, CODE SIZE REDUCTION:2 WORDS
SUBOPT_0x37:
	ADIW R26,46
	__GETD1N 0x0
	CALL __PUTDP1
	RET

;OPTIMIZER ADDED SUBROUTINE, CALLED 2 TIMES, CODE SIZE REDUCTION:4 WORDS
SUBOPT_0x38:
	ADIW R30,50
	ST   -Y,R31
	ST   -Y,R30
	LDI  R30,LOW(0)
	ST   -Y,R30
	LDI  R26,LOW(512)
	LDI  R27,HIGH(512)
	JMP  _memset

;OPTIMIZER ADDED SUBROUTINE, CALLED 2 TIMES, CODE SIZE REDUCTION:2 WORDS
SUBOPT_0x39:
	CALL __PUTDZ20
	LDD  R30,Y+1
	LDD  R31,Y+1+1
	ADIW R30,50
	RET

;OPTIMIZER ADDED SUBROUTINE, CALLED 2 TIMES, CODE SIZE REDUCTION:2 WORDS
SUBOPT_0x3A:
	CALL __GETD1P
	MOVW R26,R0
	CALL __PUTDP1
	LDD  R30,Y+1
	LDD  R31,Y+1+1
	RET

;OPTIMIZER ADDED SUBROUTINE, CALLED 2 TIMES, CODE SIZE REDUCTION:2 WORDS
SUBOPT_0x3B:
	__GETD2Z 18
	CALL __PUTPARD2
	LDI  R26,LOW(1)
	RET

;OPTIMIZER ADDED SUBROUTINE, CALLED 5 TIMES, CODE SIZE REDUCTION:5 WORDS
SUBOPT_0x3C:
	__GETD2S 8
	RET

;OPTIMIZER ADDED SUBROUTINE, CALLED 7 TIMES, CODE SIZE REDUCTION:27 WORDS
SUBOPT_0x3D:
	__CPD2N 0x2
	RET

;OPTIMIZER ADDED SUBROUTINE, CALLED 3 TIMES, CODE SIZE REDUCTION:1 WORDS
SUBOPT_0x3E:
	__GETD1N 0x1
	RET

;OPTIMIZER ADDED SUBROUTINE, CALLED 3 TIMES, CODE SIZE REDUCTION:5 WORDS
SUBOPT_0x3F:
	CALL __GETD1P
	__PUTD1S 4
	RET

;OPTIMIZER ADDED SUBROUTINE, CALLED 2 TIMES, CODE SIZE REDUCTION:15 WORDS
SUBOPT_0x40:
	LDD  R30,Y+12
	LDD  R31,Y+12+1
	ST   -Y,R31
	ST   -Y,R30
	MOVW R26,R18
	LDI  R30,LOW(512)
	LDI  R31,HIGH(512)
	CALL __DIVW21U
	__GETD2S 6
	CLR  R22
	CLR  R23
	CALL __ADDD21
	CALL _move_window_G101
	CPI  R30,0
	RET

;OPTIMIZER ADDED SUBROUTINE, CALLED 2 TIMES, CODE SIZE REDUCTION:2 WORDS
SUBOPT_0x41:
	LDD  R26,Y+12
	LDD  R27,Y+12+1
	ADIW R26,50
	MOVW R30,R18
	ANDI R31,HIGH(0x1FF)
	ADD  R26,R30
	ADC  R27,R31
	RET

;OPTIMIZER ADDED SUBROUTINE, CALLED 2 TIMES, CODE SIZE REDUCTION:3 WORDS
SUBOPT_0x42:
	LDD  R30,Y+12
	LDD  R31,Y+12+1
	ST   -Y,R31
	ST   -Y,R30
	__GETD2S 10
	RET

;OPTIMIZER ADDED SUBROUTINE, CALLED 2 TIMES, CODE SIZE REDUCTION:1 WORDS
SUBOPT_0x43:
	__GETD1N 0x100
	CALL __DIVD21U
	RET

;OPTIMIZER ADDED SUBROUTINE, CALLED 2 TIMES, CODE SIZE REDUCTION:4 WORDS
SUBOPT_0x44:
	__GETD2S 6
	CALL __ADDD21
	CALL _move_window_G101
	CPI  R30,0
	RET

;OPTIMIZER ADDED SUBROUTINE, CALLED 2 TIMES, CODE SIZE REDUCTION:3 WORDS
SUBOPT_0x45:
	CALL __MULB1W2U
	ANDI R31,HIGH(0x1FF)
	LDD  R26,Y+12
	LDD  R27,Y+12+1
	ADIW R26,50
	ADD  R26,R30
	ADC  R27,R31
	RET

;OPTIMIZER ADDED SUBROUTINE, CALLED 6 TIMES, CODE SIZE REDUCTION:7 WORDS
SUBOPT_0x46:
	CALL __GETW1P
	CLR  R22
	CLR  R23
	RET

;OPTIMIZER ADDED SUBROUTINE, CALLED 2 TIMES, CODE SIZE REDUCTION:1 WORDS
SUBOPT_0x47:
	__GETD1N 0x80
	CALL __DIVD21U
	RET

;OPTIMIZER ADDED SUBROUTINE, CALLED 4 TIMES, CODE SIZE REDUCTION:3 WORDS
SUBOPT_0x48:
	__GETD1N 0xFFFFFFFF
	RET

;OPTIMIZER ADDED SUBROUTINE, CALLED 3 TIMES, CODE SIZE REDUCTION:1 WORDS
SUBOPT_0x49:
	__GETD2S 13
	RET

;OPTIMIZER ADDED SUBROUTINE, CALLED 2 TIMES, CODE SIZE REDUCTION:16 WORDS
SUBOPT_0x4A:
	LDD  R30,Y+17
	LDD  R31,Y+17+1
	ST   -Y,R31
	ST   -Y,R30
	MOVW R26,R16
	LDI  R30,LOW(512)
	LDI  R31,HIGH(512)
	CALL __DIVW21U
	__GETD2S 7
	CLR  R22
	CLR  R23
	CALL __ADDD21
	CALL _move_window_G101
	MOV  R20,R30
	CPI  R20,0
	RET

;OPTIMIZER ADDED SUBROUTINE, CALLED 2 TIMES, CODE SIZE REDUCTION:5 WORDS
SUBOPT_0x4B:
	LDD  R26,Y+17
	LDD  R27,Y+17+1
	ADIW R26,50
	MOVW R30,R16
	ANDI R31,HIGH(0x1FF)
	ADD  R30,R26
	ADC  R31,R27
	MOVW R18,R30
	LDD  R30,Y+13
	ANDI R30,LOW(0x1)
	RET

;OPTIMIZER ADDED SUBROUTINE, CALLED 5 TIMES, CODE SIZE REDUCTION:5 WORDS
SUBOPT_0x4C:
	__GETD2S 9
	RET

;OPTIMIZER ADDED SUBROUTINE, CALLED 2 TIMES, CODE SIZE REDUCTION:3 WORDS
SUBOPT_0x4D:
	LDD  R30,Y+17
	LDD  R31,Y+17+1
	ST   -Y,R31
	ST   -Y,R30
	__GETD2S 15
	RET

;OPTIMIZER ADDED SUBROUTINE, CALLED 2 TIMES, CODE SIZE REDUCTION:5 WORDS
SUBOPT_0x4E:
	__GETD2S 7
	CALL __ADDD21
	CALL _move_window_G101
	MOV  R20,R30
	CPI  R20,0
	RET

;OPTIMIZER ADDED SUBROUTINE, CALLED 2 TIMES, CODE SIZE REDUCTION:3 WORDS
SUBOPT_0x4F:
	CALL __MULB1W2U
	ANDI R31,HIGH(0x1FF)
	LDD  R26,Y+17
	LDD  R27,Y+17+1
	ADIW R26,50
	ADD  R30,R26
	ADC  R31,R27
	RET

;OPTIMIZER ADDED SUBROUTINE, CALLED 5 TIMES, CODE SIZE REDUCTION:5 WORDS
SUBOPT_0x50:
	__GETD2S 5
	RET

;OPTIMIZER ADDED SUBROUTINE, CALLED 2 TIMES, CODE SIZE REDUCTION:4 WORDS
SUBOPT_0x51:
	LDD  R26,Y+9
	LDD  R27,Y+9+1
	ADIW R26,30
	CALL __GETD1P
	RCALL SUBOPT_0x50
	CALL __CPD21
	RET

;OPTIMIZER ADDED SUBROUTINE, CALLED 5 TIMES, CODE SIZE REDUCTION:17 WORDS
SUBOPT_0x52:
	__CPD2N 0x1
	RET

;OPTIMIZER ADDED SUBROUTINE, CALLED 9 TIMES, CODE SIZE REDUCTION:37 WORDS
SUBOPT_0x53:
	__CPD2N 0xFFFFFFFF
	RET

;OPTIMIZER ADDED SUBROUTINE, CALLED 6 TIMES, CODE SIZE REDUCTION:7 WORDS
SUBOPT_0x54:
	__GETD1S 7
	RET

;OPTIMIZER ADDED SUBROUTINE, CALLED 3 TIMES, CODE SIZE REDUCTION:1 WORDS
SUBOPT_0x55:
	__GETD2N 0x0
	RET

;OPTIMIZER ADDED SUBROUTINE, CALLED 2 TIMES, CODE SIZE REDUCTION:1 WORDS
SUBOPT_0x56:
	__GETD2Z 14
	RJMP SUBOPT_0x53

;OPTIMIZER ADDED SUBROUTINE, CALLED 2 TIMES, CODE SIZE REDUCTION:4 WORDS
SUBOPT_0x57:
	ADIW R26,14
	CALL __GETD1P_INC
	__SUBD1N -1
	CALL __PUTDP1_DEC
	RET

;OPTIMIZER ADDED SUBROUTINE, CALLED 3 TIMES, CODE SIZE REDUCTION:1 WORDS
SUBOPT_0x58:
	CALL __PUTD1S0
	RET

;OPTIMIZER ADDED SUBROUTINE, CALLED 3 TIMES, CODE SIZE REDUCTION:1 WORDS
SUBOPT_0x59:
	__GETD1S 16
	RET

;OPTIMIZER ADDED SUBROUTINE, CALLED 4 TIMES, CODE SIZE REDUCTION:3 WORDS
SUBOPT_0x5A:
	__GETD2S 4
	RET

;OPTIMIZER ADDED SUBROUTINE, CALLED 6 TIMES, CODE SIZE REDUCTION:7 WORDS
SUBOPT_0x5B:
	CALL __GETD1S0
	RET

;OPTIMIZER ADDED SUBROUTINE, CALLED 3 TIMES, CODE SIZE REDUCTION:1 WORDS
SUBOPT_0x5C:
	__PUTD1S 4
	RET

;OPTIMIZER ADDED SUBROUTINE, CALLED 4 TIMES, CODE SIZE REDUCTION:3 WORDS
SUBOPT_0x5D:
	LDD  R30,Y+20
	LDD  R31,Y+20+1
	ST   -Y,R31
	ST   -Y,R30
	RET

;OPTIMIZER ADDED SUBROUTINE, CALLED 2 TIMES, CODE SIZE REDUCTION:1 WORDS
SUBOPT_0x5E:
	CALL _get_fat
	__PUTD1S 12
	RET

;OPTIMIZER ADDED SUBROUTINE, CALLED 4 TIMES, CODE SIZE REDUCTION:3 WORDS
SUBOPT_0x5F:
	__GETD2S 12
	RET

;OPTIMIZER ADDED SUBROUTINE, CALLED 3 TIMES, CODE SIZE REDUCTION:1 WORDS
SUBOPT_0x60:
	__GETD1S 12
	RET

;OPTIMIZER ADDED SUBROUTINE, CALLED 4 TIMES, CODE SIZE REDUCTION:3 WORDS
SUBOPT_0x61:
	__GETD1S 4
	RET

;OPTIMIZER ADDED SUBROUTINE, CALLED 3 TIMES, CODE SIZE REDUCTION:1 WORDS
SUBOPT_0x62:
	__PUTD1S 8
	RET

;OPTIMIZER ADDED SUBROUTINE, CALLED 2 TIMES, CODE SIZE REDUCTION:1 WORDS
SUBOPT_0x63:
	RCALL SUBOPT_0x61
	RCALL SUBOPT_0x3C
	CALL __CPD12
	RET

;OPTIMIZER ADDED SUBROUTINE, CALLED 8 TIMES, CODE SIZE REDUCTION:11 WORDS
SUBOPT_0x64:
	__GETD1N 0x0
	RET

;OPTIMIZER ADDED SUBROUTINE, CALLED 2 TIMES, CODE SIZE REDUCTION:1 WORDS
SUBOPT_0x65:
	__GETD1S 10
	CALL __PUTPARD1
	RET

;OPTIMIZER ADDED SUBROUTINE, CALLED 3 TIMES, CODE SIZE REDUCTION:1 WORDS
SUBOPT_0x66:
	CALL __SWAPD12
	CALL __SUBD12
	RET

;OPTIMIZER ADDED SUBROUTINE, CALLED 2 TIMES, CODE SIZE REDUCTION:2 WORDS
SUBOPT_0x67:
	__PUTW1SNS 8,4
	LDD  R26,Y+8
	LDD  R27,Y+8+1
	RET

;OPTIMIZER ADDED SUBROUTINE, CALLED 2 TIMES, CODE SIZE REDUCTION:1 WORDS
SUBOPT_0x68:
	CALL __GETD1P
	__PUTD1S 2
	RET

;OPTIMIZER ADDED SUBROUTINE, CALLED 6 TIMES, CODE SIZE REDUCTION:7 WORDS
SUBOPT_0x69:
	__GETD2S 2
	RET

;OPTIMIZER ADDED SUBROUTINE, CALLED 24 TIMES, CODE SIZE REDUCTION:43 WORDS
SUBOPT_0x6A:
	LDD  R26,Y+8
	LDD  R27,Y+8+1
	CALL __GETW1P
	RET

;OPTIMIZER ADDED SUBROUTINE, CALLED 2 TIMES, CODE SIZE REDUCTION:3 WORDS
SUBOPT_0x6B:
	ADIW R30,30
	MOVW R26,R30
	CALL __GETD1P
	RCALL SUBOPT_0x69
	CALL __CPD21
	RET

;OPTIMIZER ADDED SUBROUTINE, CALLED 2 TIMES, CODE SIZE REDUCTION:1 WORDS
SUBOPT_0x6C:
	__GETD1S 2
	CALL __CPD10
	RET

;OPTIMIZER ADDED SUBROUTINE, CALLED 2 TIMES, CODE SIZE REDUCTION:7 WORDS
SUBOPT_0x6D:
	__GETD1S 2
	__PUTD1SNS 8,10
	RJMP SUBOPT_0x6A

;OPTIMIZER ADDED SUBROUTINE, CALLED 7 TIMES, CODE SIZE REDUCTION:9 WORDS
SUBOPT_0x6E:
	CLR  R22
	CLR  R23
	CALL __ADDD12
	RET

;OPTIMIZER ADDED SUBROUTINE, CALLED 2 TIMES, CODE SIZE REDUCTION:1 WORDS
SUBOPT_0x6F:
	__PUTD1SNS 8,14
	RET

;OPTIMIZER ADDED SUBROUTINE, CALLED 2 TIMES, CODE SIZE REDUCTION:8 WORDS
SUBOPT_0x70:
	ANDI R30,LOW(0xF)
	ANDI R31,HIGH(0xF)
	LSL  R30
	CALL __LSLW4
	ADD  R30,R26
	ADC  R31,R27
	__PUTW1SNS 8,18
	LDI  R30,LOW(0)
	RET

;OPTIMIZER ADDED SUBROUTINE, CALLED 3 TIMES, CODE SIZE REDUCTION:1 WORDS
SUBOPT_0x71:
	CALL __GETD1P
	CALL __CPD10
	RET

;OPTIMIZER ADDED SUBROUTINE, CALLED 2 TIMES, CODE SIZE REDUCTION:3 WORDS
SUBOPT_0x72:
	ST   -Y,R31
	ST   -Y,R30
	LDD  R30,Y+10
	LDD  R31,Y+10+1
	__GETD2Z 10
	RET

;OPTIMIZER ADDED SUBROUTINE, CALLED 3 TIMES, CODE SIZE REDUCTION:1 WORDS
SUBOPT_0x73:
	__PUTD1S 3
	RET

;OPTIMIZER ADDED SUBROUTINE, CALLED 5 TIMES, CODE SIZE REDUCTION:5 WORDS
SUBOPT_0x74:
	__GETD2S 3
	RET

;OPTIMIZER ADDED SUBROUTINE, CALLED 2 TIMES, CODE SIZE REDUCTION:1 WORDS
SUBOPT_0x75:
	RCALL SUBOPT_0x73
	__GETD1S 3
	RET

;OPTIMIZER ADDED SUBROUTINE, CALLED 2 TIMES, CODE SIZE REDUCTION:1 WORDS
SUBOPT_0x76:
	ST   -Y,R31
	ST   -Y,R30
	RCALL SUBOPT_0x50
	JMP  _clust2sect

;OPTIMIZER ADDED SUBROUTINE, CALLED 2 TIMES, CODE SIZE REDUCTION:9 WORDS
SUBOPT_0x77:
	ST   -Y,R27
	ST   -Y,R26
	CALL __SAVELOCR4
	LDD  R30,Y+4
	LDD  R31,Y+4+1
	ST   -Y,R31
	ST   -Y,R30
	LDI  R26,LOW(0)
	LDI  R27,0
	CALL _dir_seek_G101
	MOV  R16,R30
	CPI  R16,0
	RET

;OPTIMIZER ADDED SUBROUTINE, CALLED 3 TIMES, CODE SIZE REDUCTION:25 WORDS
SUBOPT_0x78:
	LDD  R26,Y+4
	LDD  R27,Y+4+1
	CALL __GETW1P
	ST   -Y,R31
	ST   -Y,R30
	LDD  R30,Y+6
	LDD  R31,Y+6+1
	__GETD2Z 14
	CALL _move_window_G101
	MOV  R16,R30
	CPI  R16,0
	RET

;OPTIMIZER ADDED SUBROUTINE, CALLED 2 TIMES, CODE SIZE REDUCTION:5 WORDS
SUBOPT_0x79:
	ST   -Y,R19
	ST   -Y,R18
	LDD  R30,Y+6
	LDD  R31,Y+6+1
	LDD  R26,Z+20
	LDD  R27,Z+21
	ST   -Y,R27
	ST   -Y,R26
	LDI  R26,LOW(11)
	LDI  R27,0
	RET

;OPTIMIZER ADDED SUBROUTINE, CALLED 4 TIMES, CODE SIZE REDUCTION:3 WORDS
SUBOPT_0x7A:
	CALL __GETW1P
	STD  Y+6,R30
	STD  Y+6+1,R31
	RET

;OPTIMIZER ADDED SUBROUTINE, CALLED 3 TIMES, CODE SIZE REDUCTION:1 WORDS
SUBOPT_0x7B:
	LDD  R30,Y+8
	LDD  R31,Y+8+1
	LDD  R26,Y+6
	LDD  R27,Y+6+1
	RET

;OPTIMIZER ADDED SUBROUTINE, CALLED 2 TIMES, CODE SIZE REDUCTION:6 WORDS
SUBOPT_0x7C:
	LDD  R30,Y+8
	LDD  R31,Y+8+1
	ADIW R30,1
	STD  Y+8,R30
	STD  Y+8+1,R31
	SBIW R30,1
	LDD  R26,Y+6
	LDD  R27,Y+6+1
	ADD  R26,R30
	ADC  R27,R31
	LD   R17,X
	RET

;OPTIMIZER ADDED SUBROUTINE, CALLED 3 TIMES, CODE SIZE REDUCTION:5 WORDS
SUBOPT_0x7D:
	MOV  R30,R21
	SUBI R21,-1
	LDI  R31,0
	ADD  R30,R19
	ADC  R31,R20
	ST   Z,R17
	RET

;OPTIMIZER ADDED SUBROUTINE, CALLED 2 TIMES, CODE SIZE REDUCTION:2 WORDS
SUBOPT_0x7E:
	ADD  R30,R26
	ADC  R31,R27
	LDD  R26,Y+11
	LDD  R27,Y+11+1
	ST   X+,R30
	ST   X,R31
	CPI  R17,33
	RET

;OPTIMIZER ADDED SUBROUTINE, CALLED 4 TIMES, CODE SIZE REDUCTION:3 WORDS
SUBOPT_0x7F:
	RCALL SUBOPT_0x64
	CALL __PUTDP1
	RET

;OPTIMIZER ADDED SUBROUTINE, CALLED 2 TIMES, CODE SIZE REDUCTION:1 WORDS
SUBOPT_0x80:
	__PUTD1SNS 6,6
	RET

;OPTIMIZER ADDED SUBROUTINE, CALLED 4 TIMES, CODE SIZE REDUCTION:3 WORDS
SUBOPT_0x81:
	LDD  R30,Y+6
	LDD  R31,Y+6+1
	ST   -Y,R31
	ST   -Y,R30
	RET

;OPTIMIZER ADDED SUBROUTINE, CALLED 6 TIMES, CODE SIZE REDUCTION:7 WORDS
SUBOPT_0x82:
	LDI  R30,LOW(0)
	LDI  R31,HIGH(0)
	ST   X+,R30
	ST   X,R31
	RET

;OPTIMIZER ADDED SUBROUTINE, CALLED 3 TIMES, CODE SIZE REDUCTION:3 WORDS
SUBOPT_0x83:
	__GETW2R 17,18
	ADIW R26,20
	RJMP SUBOPT_0x46

;OPTIMIZER ADDED SUBROUTINE, CALLED 3 TIMES, CODE SIZE REDUCTION:3 WORDS
SUBOPT_0x84:
	__GETW2R 17,18
	ADIW R26,26
	CALL __GETW1P
	RET

;OPTIMIZER ADDED SUBROUTINE, CALLED 3 TIMES, CODE SIZE REDUCTION:1 WORDS
SUBOPT_0x85:
	CLR  R22
	CLR  R23
	CALL __ORD12
	RET

;OPTIMIZER ADDED SUBROUTINE, CALLED 2 TIMES, CODE SIZE REDUCTION:4 WORDS
SUBOPT_0x86:
	ADIW R30,50
	SUBI R30,LOW(-510)
	SBCI R31,HIGH(-510)
	MOVW R26,R30
	CALL __GETW1P
	CPI  R30,LOW(0xAA55)
	LDI  R26,HIGH(0xAA55)
	CPC  R31,R26
	RET

;OPTIMIZER ADDED SUBROUTINE, CALLED 2 TIMES, CODE SIZE REDUCTION:8 WORDS
SUBOPT_0x87:
	CALL __GETD1P
	__ANDD1N 0xFFFFFF
	__CPD1N 0x544146
	RET

;OPTIMIZER ADDED SUBROUTINE, CALLED 2 TIMES, CODE SIZE REDUCTION:2 WORDS
SUBOPT_0x88:
	LDI  R26,LOW(_FatFs_G101)
	LDI  R27,HIGH(_FatFs_G101)
	LDI  R31,0
	LSL  R30
	ROL  R31
	ADD  R26,R30
	ADC  R27,R31
	RET

;OPTIMIZER ADDED SUBROUTINE, CALLED 3 TIMES, CODE SIZE REDUCTION:1 WORDS
SUBOPT_0x89:
	LDD  R30,Y+5
	LDD  R31,Y+5+1
	ST   -Y,R31
	ST   -Y,R30
	RET

;OPTIMIZER ADDED SUBROUTINE, CALLED 3 TIMES, CODE SIZE REDUCTION:1 WORDS
SUBOPT_0x8A:
	__PUTD1S 17
	RET

;OPTIMIZER ADDED SUBROUTINE, CALLED 4 TIMES, CODE SIZE REDUCTION:3 WORDS
SUBOPT_0x8B:
	__GETD1S 17
	RET

;OPTIMIZER ADDED SUBROUTINE, CALLED 2 TIMES, CODE SIZE REDUCTION:1 WORDS
SUBOPT_0x8C:
	LDD  R26,Y+5
	LDD  R27,Y+5+1
	SUBI R26,LOW(-64)
	SBCI R27,HIGH(-64)
	CALL __GETW1P
	RET

;OPTIMIZER ADDED SUBROUTINE, CALLED 2 TIMES, CODE SIZE REDUCTION:1 WORDS
SUBOPT_0x8D:
	__GETD2S 21
	RJMP SUBOPT_0x6E

;OPTIMIZER ADDED SUBROUTINE, CALLED 2 TIMES, CODE SIZE REDUCTION:2 WORDS
SUBOPT_0x8E:
	LDD  R30,Y+5
	LDD  R31,Y+5+1
	LDD  R26,Z+8
	LDD  R27,Z+9
	MOVW R30,R26
	CALL __LSRW4
	RET

;OPTIMIZER ADDED SUBROUTINE, CALLED 2 TIMES, CODE SIZE REDUCTION:3 WORDS
SUBOPT_0x8F:
	LDD  R30,Y+5
	LDD  R31,Y+5+1
	RCALL SUBOPT_0x33
	RCALL SUBOPT_0x8B
	CALL __ADDD12
	RET

;OPTIMIZER ADDED SUBROUTINE, CALLED 2 TIMES, CODE SIZE REDUCTION:1 WORDS
SUBOPT_0x90:
	LDI  R26,LOW(0)
	LDI  R27,HIGH(0)
	STD  Z+0,R26
	STD  Z+1,R27
	__GETW1R 17,18
	RET

;OPTIMIZER ADDED SUBROUTINE, CALLED 9 TIMES, CODE SIZE REDUCTION:13 WORDS
SUBOPT_0x91:
	LDD  R26,Y+25
	LDD  R27,Y+25+1
	CALL __GETW1P
	RET

;OPTIMIZER ADDED SUBROUTINE, CALLED 4 TIMES, CODE SIZE REDUCTION:3 WORDS
SUBOPT_0x92:
	ST   -Y,R31
	ST   -Y,R30
	LDD  R30,Y+27
	LDD  R31,Y+27+1
	RET

;OPTIMIZER ADDED SUBROUTINE, CALLED 3 TIMES, CODE SIZE REDUCTION:5 WORDS
SUBOPT_0x93:
	LDD  R26,Z+2
	LDD  R27,Z+3
	CALL _validate_G101
	MOV  R16,R30
	CPI  R16,0
	RET

;OPTIMIZER ADDED SUBROUTINE, CALLED 3 TIMES, CODE SIZE REDUCTION:5 WORDS
SUBOPT_0x94:
	LDD  R30,Y+25
	LDD  R31,Y+25+1
	__GETD2Z 6
	RET

;OPTIMIZER ADDED SUBROUTINE, CALLED 2 TIMES, CODE SIZE REDUCTION:1 WORDS
SUBOPT_0x95:
	__PUTD1S 7
	RJMP SUBOPT_0x54

;OPTIMIZER ADDED SUBROUTINE, CALLED 4 TIMES, CODE SIZE REDUCTION:3 WORDS
SUBOPT_0x96:
	__GETD2Z 18
	RET

;OPTIMIZER ADDED SUBROUTINE, CALLED 6 TIMES, CODE SIZE REDUCTION:17 WORDS
SUBOPT_0x97:
	LDD  R26,Y+25
	LDD  R27,Y+25+1
	ADIW R26,4
	LD   R30,X
	ORI  R30,0x80
	ST   X,R30
	RET

;OPTIMIZER ADDED SUBROUTINE, CALLED 5 TIMES, CODE SIZE REDUCTION:5 WORDS
SUBOPT_0x98:
	__PUTD1S 11
	RET

;OPTIMIZER ADDED SUBROUTINE, CALLED 8 TIMES, CODE SIZE REDUCTION:11 WORDS
SUBOPT_0x99:
	__GETD1S 11
	RET

;OPTIMIZER ADDED SUBROUTINE, CALLED 3 TIMES, CODE SIZE REDUCTION:1 WORDS
SUBOPT_0x9A:
	LDD  R30,Y+25
	LDD  R31,Y+25+1
	LDD  R30,Z+5
	LDI  R31,0
	RET

;OPTIMIZER ADDED SUBROUTINE, CALLED 3 TIMES, CODE SIZE REDUCTION:1 WORDS
SUBOPT_0x9B:
	__GETD2S 11
	RET

;OPTIMIZER ADDED SUBROUTINE, CALLED 2 TIMES, CODE SIZE REDUCTION:3 WORDS
SUBOPT_0x9C:
	LDI  R30,LOW(512)
	LDI  R31,HIGH(512)
	CALL __DIVW21U
	__PUTW1R 19,20
	MOV  R0,R19
	OR   R0,R20
	RET

;OPTIMIZER ADDED SUBROUTINE, CALLED 3 TIMES, CODE SIZE REDUCTION:9 WORDS
SUBOPT_0x9D:
	LDD  R30,Y+25
	LDD  R31,Y+25+1
	__GETD2Z 22
	RJMP SUBOPT_0x99

;OPTIMIZER ADDED SUBROUTINE, CALLED 2 TIMES, CODE SIZE REDUCTION:3 WORDS
SUBOPT_0x9E:
	CALL __SUBD21
	__GETW1R 19,20
	CLR  R22
	CLR  R23
	CALL __CPD21
	RET

;OPTIMIZER ADDED SUBROUTINE, CALLED 2 TIMES, CODE SIZE REDUCTION:3 WORDS
SUBOPT_0x9F:
	CALL __SUBD21
	__GETD1N 0x200
	CALL __MULD12U
	RET

;OPTIMIZER ADDED SUBROUTINE, CALLED 2 TIMES, CODE SIZE REDUCTION:1 WORDS
SUBOPT_0xA0:
	ST   -Y,R31
	ST   -Y,R30
	LDI  R26,LOW(512)
	LDI  R27,HIGH(512)
	JMP  _memcpy

;OPTIMIZER ADDED SUBROUTINE, CALLED 2 TIMES, CODE SIZE REDUCTION:7 WORDS
SUBOPT_0xA1:
	ADIW R26,5
	LD   R30,X
	ADD  R30,R19
	ST   X,R30
	__GETW1R 19,20
	LSL  R30
	ROL  R31
	MOV  R31,R30
	LDI  R30,0
	__PUTW1R 17,18
	RET

;OPTIMIZER ADDED SUBROUTINE, CALLED 2 TIMES, CODE SIZE REDUCTION:2 WORDS
SUBOPT_0xA2:
	LDD  R30,Z+1
	ST   -Y,R30
	LDD  R30,Y+26
	LDD  R31,Y+26+1
	ADIW R30,32
	ST   -Y,R31
	ST   -Y,R30
	RET

;OPTIMIZER ADDED SUBROUTINE, CALLED 3 TIMES, CODE SIZE REDUCTION:13 WORDS
SUBOPT_0xA3:
	__GETD2Z 22
	CALL __PUTPARD2
	LDI  R26,LOW(1)
	CALL _disk_write
	CPI  R30,0
	RET

;OPTIMIZER ADDED SUBROUTINE, CALLED 4 TIMES, CODE SIZE REDUCTION:3 WORDS
SUBOPT_0xA4:
	ADIW R26,4
	LD   R30,X
	ANDI R30,0xBF
	ST   X,R30
	RET

;OPTIMIZER ADDED SUBROUTINE, CALLED 4 TIMES, CODE SIZE REDUCTION:3 WORDS
SUBOPT_0xA5:
	ADIW R26,6
	CALL __GETW1P
	ANDI R31,HIGH(0x1FF)
	RET

;OPTIMIZER ADDED SUBROUTINE, CALLED 2 TIMES, CODE SIZE REDUCTION:1 WORDS
SUBOPT_0xA6:
	LDI  R26,LOW(512)
	LDI  R27,HIGH(512)
	SUB  R26,R30
	SBC  R27,R31
	__PUTW2R 17,18
	RET

;OPTIMIZER ADDED SUBROUTINE, CALLED 2 TIMES, CODE SIZE REDUCTION:1 WORDS
SUBOPT_0xA7:
	ST   -Y,R31
	ST   -Y,R30
	__GETW2R 17,18
	JMP  _memcpy

;OPTIMIZER ADDED SUBROUTINE, CALLED 2 TIMES, CODE SIZE REDUCTION:3 WORDS
SUBOPT_0xA8:
	__GETW1R 17,18
	LDD  R26,Y+5
	LDD  R27,Y+5+1
	ADD  R30,R26
	ADC  R31,R27
	STD  Y+5,R30
	STD  Y+5+1,R31
	RET

;OPTIMIZER ADDED SUBROUTINE, CALLED 2 TIMES, CODE SIZE REDUCTION:6 WORDS
SUBOPT_0xA9:
	ADIW R30,6
	MOVW R0,R30
	MOVW R26,R30
	CALL __GETD1P
	MOVW R26,R30
	MOVW R24,R22
	__GETW1R 17,18
	RJMP SUBOPT_0x6E

;OPTIMIZER ADDED SUBROUTINE, CALLED 2 TIMES, CODE SIZE REDUCTION:1 WORDS
SUBOPT_0xAA:
	LD   R30,X+
	LD   R31,X+
	ADD  R30,R17
	ADC  R31,R18
	ST   -X,R31
	ST   -X,R30
	RET

;OPTIMIZER ADDED SUBROUTINE, CALLED 10 TIMES, CODE SIZE REDUCTION:15 WORDS
SUBOPT_0xAB:
	LDD  R26,Y+21
	LDD  R27,Y+21+1
	CALL __GETW1P
	RET

;OPTIMIZER ADDED SUBROUTINE, CALLED 4 TIMES, CODE SIZE REDUCTION:3 WORDS
SUBOPT_0xAC:
	ST   -Y,R31
	ST   -Y,R30
	LDD  R30,Y+23
	LDD  R31,Y+23+1
	RET

;OPTIMIZER ADDED SUBROUTINE, CALLED 3 TIMES, CODE SIZE REDUCTION:3 WORDS
SUBOPT_0xAD:
	LDD  R26,Y+21
	LDD  R27,Y+21+1
	ADIW R26,10
	CALL __GETD1P
	RET

;OPTIMIZER ADDED SUBROUTINE, CALLED 3 TIMES, CODE SIZE REDUCTION:5 WORDS
SUBOPT_0xAE:
	LDD  R30,Y+21
	LDD  R31,Y+21+1
	__GETD2Z 6
	RET

;OPTIMIZER ADDED SUBROUTINE, CALLED 6 TIMES, CODE SIZE REDUCTION:17 WORDS
SUBOPT_0xAF:
	LDD  R26,Y+21
	LDD  R27,Y+21+1
	ADIW R26,4
	LD   R30,X
	ORI  R30,0x80
	ST   X,R30
	RET

;OPTIMIZER ADDED SUBROUTINE, CALLED 2 TIMES, CODE SIZE REDUCTION:2 WORDS
SUBOPT_0xB0:
	LDD  R30,Z+1
	ST   -Y,R30
	LDD  R30,Y+22
	LDD  R31,Y+22+1
	ADIW R30,32
	ST   -Y,R31
	ST   -Y,R30
	RET

;OPTIMIZER ADDED SUBROUTINE, CALLED 3 TIMES, CODE SIZE REDUCTION:1 WORDS
SUBOPT_0xB1:
	LDD  R30,Y+21
	LDD  R31,Y+21+1
	LDD  R30,Z+5
	LDI  R31,0
	RET

;OPTIMIZER ADDED SUBROUTINE, CALLED 2 TIMES, CODE SIZE REDUCTION:3 WORDS
SUBOPT_0xB2:
	LDD  R30,Y+21
	LDD  R31,Y+21+1
	__GETD2Z 22
	RJMP SUBOPT_0x54

;OPTIMIZER ADDED SUBROUTINE, CALLED 5 TIMES, CODE SIZE REDUCTION:5 WORDS
SUBOPT_0xB3:
	LDD  R26,Y+7
	LDD  R27,Y+7+1
	CALL __GETW1P
	RET

;OPTIMIZER ADDED SUBROUTINE, CALLED 5 TIMES, CODE SIZE REDUCTION:13 WORDS
SUBOPT_0xB4:
	ST   -Y,R19
	LDD  R26,Y+13
	LDD  R27,Y+13+1
	LDD  R30,Y+15
	LDD  R31,Y+15+1
	ICALL
	RET

;OPTIMIZER ADDED SUBROUTINE, CALLED 5 TIMES, CODE SIZE REDUCTION:9 WORDS
SUBOPT_0xB5:
	LDD  R30,Y+16
	LDD  R31,Y+16+1
	SBIW R30,4
	STD  Y+16,R30
	STD  Y+16+1,R31
	RET

;OPTIMIZER ADDED SUBROUTINE, CALLED 3 TIMES, CODE SIZE REDUCTION:3 WORDS
SUBOPT_0xB6:
	LDD  R26,Y+13
	LDD  R27,Y+13+1
	LDD  R30,Y+15
	LDD  R31,Y+15+1
	ICALL
	RET

;OPTIMIZER ADDED SUBROUTINE, CALLED 2 TIMES, CODE SIZE REDUCTION:2 WORDS
SUBOPT_0xB7:
	LDD  R26,Y+16
	LDD  R27,Y+16+1
	ADIW R26,4
	CALL __GETW1P
	STD  Y+10,R30
	STD  Y+10+1,R31
	RET

;OPTIMIZER ADDED SUBROUTINE, CALLED 3 TIMES, CODE SIZE REDUCTION:1 WORDS
SUBOPT_0xB8:
	CALL __ADDW2R15
	CALL __GETW1P
	RET


	.CSEG
_delay_ms:
	adiw r26,0
	breq __delay_ms1
__delay_ms0:
	__DELAY_USW 0xFA0
	wdr
	sbiw r26,1
	brne __delay_ms0
__delay_ms1:
	ret

__ROUND_REPACK:
	TST  R21
	BRPL __REPACK
	CPI  R21,0x80
	BRNE __ROUND_REPACK0
	SBRS R30,0
	RJMP __REPACK
__ROUND_REPACK0:
	ADIW R30,1
	ADC  R22,R25
	ADC  R23,R25
	BRVS __REPACK1

__REPACK:
	LDI  R21,0x80
	EOR  R21,R23
	BRNE __REPACK0
	PUSH R21
	RJMP __ZERORES
__REPACK0:
	CPI  R21,0xFF
	BREQ __REPACK1
	LSL  R22
	LSL  R0
	ROR  R21
	ROR  R22
	MOV  R23,R21
	RET
__REPACK1:
	PUSH R21
	TST  R0
	BRMI __REPACK2
	RJMP __MAXRES
__REPACK2:
	RJMP __MINRES

__UNPACK:
	LDI  R21,0x80
	MOV  R1,R25
	AND  R1,R21
	LSL  R24
	ROL  R25
	EOR  R25,R21
	LSL  R21
	ROR  R24

__UNPACK1:
	LDI  R21,0x80
	MOV  R0,R23
	AND  R0,R21
	LSL  R22
	ROL  R23
	EOR  R23,R21
	LSL  R21
	ROR  R22
	RET

__CDF1U:
	SET
	RJMP __CDF1U0
__CDF1:
	CLT
__CDF1U0:
	SBIW R30,0
	SBCI R22,0
	SBCI R23,0
	BREQ __CDF10
	CLR  R0
	BRTS __CDF11
	TST  R23
	BRPL __CDF11
	COM  R0
	RCALL __ANEGD1
__CDF11:
	MOV  R1,R23
	LDI  R23,30
	TST  R1
__CDF12:
	BRMI __CDF13
	DEC  R23
	LSL  R30
	ROL  R31
	ROL  R22
	ROL  R1
	RJMP __CDF12
__CDF13:
	MOV  R30,R31
	MOV  R31,R22
	MOV  R22,R1
	PUSH R21
	RCALL __REPACK
	POP  R21
__CDF10:
	RET

__ZERORES:
	CLR  R30
	CLR  R31
	CLR  R22
	CLR  R23
	POP  R21
	RET

__MINRES:
	SER  R30
	SER  R31
	LDI  R22,0x7F
	SER  R23
	POP  R21
	RET

__MAXRES:
	SER  R30
	SER  R31
	LDI  R22,0x7F
	LDI  R23,0x7F
	POP  R21
	RET

__DIVF21:
	PUSH R21
	RCALL __UNPACK
	CPI  R23,0x80
	BRNE __DIVF210
	TST  R1
__DIVF211:
	BRPL __DIVF219
	RJMP __MINRES
__DIVF219:
	RJMP __MAXRES
__DIVF210:
	CPI  R25,0x80
	BRNE __DIVF218
__DIVF217:
	RJMP __ZERORES
__DIVF218:
	EOR  R0,R1
	SEC
	SBC  R25,R23
	BRVC __DIVF216
	BRLT __DIVF217
	TST  R0
	RJMP __DIVF211
__DIVF216:
	MOV  R23,R25
	PUSH R17
	PUSH R18
	PUSH R19
	PUSH R20
	CLR  R1
	CLR  R17
	CLR  R18
	CLR  R19
	CLR  R20
	CLR  R21
	LDI  R25,32
__DIVF212:
	CP   R26,R30
	CPC  R27,R31
	CPC  R24,R22
	CPC  R20,R17
	BRLO __DIVF213
	SUB  R26,R30
	SBC  R27,R31
	SBC  R24,R22
	SBC  R20,R17
	SEC
	RJMP __DIVF214
__DIVF213:
	CLC
__DIVF214:
	ROL  R21
	ROL  R18
	ROL  R19
	ROL  R1
	ROL  R26
	ROL  R27
	ROL  R24
	ROL  R20
	DEC  R25
	BRNE __DIVF212
	MOVW R30,R18
	MOV  R22,R1
	POP  R20
	POP  R19
	POP  R18
	POP  R17
	TST  R22
	BRMI __DIVF215
	LSL  R21
	ROL  R30
	ROL  R31
	ROL  R22
	DEC  R23
	BRVS __DIVF217
__DIVF215:
	RCALL __ROUND_REPACK
	POP  R21
	RET

__ADDW2R15:
	CLR  R0
	ADD  R26,R15
	ADC  R27,R0
	RET

__ADDD12:
	ADD  R30,R26
	ADC  R31,R27
	ADC  R22,R24
	ADC  R23,R25
	RET

__ADDD21:
	ADD  R26,R30
	ADC  R27,R31
	ADC  R24,R22
	ADC  R25,R23
	RET

__SUBD12:
	SUB  R30,R26
	SBC  R31,R27
	SBC  R22,R24
	SBC  R23,R25
	RET

__SUBD21:
	SUB  R26,R30
	SBC  R27,R31
	SBC  R24,R22
	SBC  R25,R23
	RET

__ORD12:
	OR   R30,R26
	OR   R31,R27
	OR   R22,R24
	OR   R23,R25
	RET

__ANEGW1:
	NEG  R31
	NEG  R30
	SBCI R31,0
	RET

__ANEGD1:
	COM  R31
	COM  R22
	COM  R23
	NEG  R30
	SBCI R31,-1
	SBCI R22,-1
	SBCI R23,-1
	RET

__LSLD12:
	TST  R30
	MOV  R0,R30
	MOVW R30,R26
	MOVW R22,R24
	BREQ __LSLD12R
__LSLD12L:
	LSL  R30
	ROL  R31
	ROL  R22
	ROL  R23
	DEC  R0
	BRNE __LSLD12L
__LSLD12R:
	RET

__LSRD12:
	TST  R30
	MOV  R0,R30
	MOVW R30,R26
	MOVW R22,R24
	BREQ __LSRD12R
__LSRD12L:
	LSR  R23
	ROR  R22
	ROR  R31
	ROR  R30
	DEC  R0
	BRNE __LSRD12L
__LSRD12R:
	RET

__LSLW4:
	LSL  R30
	ROL  R31
__LSLW3:
	LSL  R30
	ROL  R31
__LSLW2:
	LSL  R30
	ROL  R31
	LSL  R30
	ROL  R31
	RET

__LSRW4:
	LSR  R31
	ROR  R30
__LSRW3:
	LSR  R31
	ROR  R30
__LSRW2:
	LSR  R31
	ROR  R30
	LSR  R31
	ROR  R30
	RET

__LSLD1:
	LSL  R30
	ROL  R31
	ROL  R22
	ROL  R23
	RET

__LSRD16:
	MOV  R30,R22
	MOV  R31,R23
	LDI  R22,0
	LDI  R23,0
	RET

__LSLD16:
	MOV  R22,R30
	MOV  R23,R31
	LDI  R30,0
	LDI  R31,0
	RET

__CWD1:
	MOV  R22,R31
	ADD  R22,R22
	SBC  R22,R22
	MOV  R23,R22
	RET

__MULD12U:
	MUL  R23,R26
	MOV  R23,R0
	MUL  R22,R27
	ADD  R23,R0
	MUL  R31,R24
	ADD  R23,R0
	MUL  R30,R25
	ADD  R23,R0
	MUL  R22,R26
	MOV  R22,R0
	ADD  R23,R1
	MUL  R31,R27
	ADD  R22,R0
	ADC  R23,R1
	MUL  R30,R24
	ADD  R22,R0
	ADC  R23,R1
	CLR  R24
	MUL  R31,R26
	MOV  R31,R0
	ADD  R22,R1
	ADC  R23,R24
	MUL  R30,R27
	ADD  R31,R0
	ADC  R22,R1
	ADC  R23,R24
	MUL  R30,R26
	MOV  R30,R0
	ADD  R31,R1
	ADC  R22,R24
	ADC  R23,R24
	RET

__MULB1W2U:
	MOV  R22,R30
	MUL  R22,R26
	MOVW R30,R0
	MUL  R22,R27
	ADD  R31,R0
	RET

__DIVW21U:
	CLR  R0
	CLR  R1
	LDI  R25,16
__DIVW21U1:
	LSL  R26
	ROL  R27
	ROL  R0
	ROL  R1
	SUB  R0,R30
	SBC  R1,R31
	BRCC __DIVW21U2
	ADD  R0,R30
	ADC  R1,R31
	RJMP __DIVW21U3
__DIVW21U2:
	SBR  R26,1
__DIVW21U3:
	DEC  R25
	BRNE __DIVW21U1
	MOVW R30,R26
	MOVW R26,R0
	RET

__DIVD21U:
	PUSH R19
	PUSH R20
	PUSH R21
	CLR  R0
	CLR  R1
	CLR  R20
	CLR  R21
	LDI  R19,32
__DIVD21U1:
	LSL  R26
	ROL  R27
	ROL  R24
	ROL  R25
	ROL  R0
	ROL  R1
	ROL  R20
	ROL  R21
	SUB  R0,R30
	SBC  R1,R31
	SBC  R20,R22
	SBC  R21,R23
	BRCC __DIVD21U2
	ADD  R0,R30
	ADC  R1,R31
	ADC  R20,R22
	ADC  R21,R23
	RJMP __DIVD21U3
__DIVD21U2:
	SBR  R26,1
__DIVD21U3:
	DEC  R19
	BRNE __DIVD21U1
	MOVW R30,R26
	MOVW R22,R24
	MOVW R26,R0
	MOVW R24,R20
	POP  R21
	POP  R20
	POP  R19
	RET

__MODW21:
	CLT
	SBRS R27,7
	RJMP __MODW211
	COM  R26
	COM  R27
	ADIW R26,1
	SET
__MODW211:
	SBRC R31,7
	RCALL __ANEGW1
	RCALL __DIVW21U
	MOVW R30,R26
	BRTC __MODW212
	RCALL __ANEGW1
__MODW212:
	RET

__GETW1P:
	LD   R30,X+
	LD   R31,X
	SBIW R26,1
	RET

__GETD1P:
	LD   R30,X+
	LD   R31,X+
	LD   R22,X+
	LD   R23,X
	SBIW R26,3
	RET

__GETD1P_INC:
	LD   R30,X+
	LD   R31,X+
	LD   R22,X+
	LD   R23,X+
	RET

__PUTDP1:
	ST   X+,R30
	ST   X+,R31
	ST   X+,R22
	ST   X,R23
	RET

__PUTDP1_DEC:
	ST   -X,R23
	ST   -X,R22
	ST   -X,R31
	ST   -X,R30
	RET

__GETW1PF:
	LPM  R0,Z+
	LPM  R31,Z
	MOV  R30,R0
	RET

__GETD1S0:
	LD   R30,Y
	LDD  R31,Y+1
	LDD  R22,Y+2
	LDD  R23,Y+3
	RET

__GETD2S0:
	LD   R26,Y
	LDD  R27,Y+1
	LDD  R24,Y+2
	LDD  R25,Y+3
	RET

__PUTD1S0:
	ST   Y,R30
	STD  Y+1,R31
	STD  Y+2,R22
	STD  Y+3,R23
	RET

__PUTDZ20:
	ST   Z,R26
	STD  Z+1,R27
	STD  Z+2,R24
	STD  Z+3,R25
	RET

__PUTPARD1:
	ST   -Y,R23
	ST   -Y,R22
	ST   -Y,R31
	ST   -Y,R30
	RET

__PUTPARD2:
	ST   -Y,R25
	ST   -Y,R24
	ST   -Y,R27
	ST   -Y,R26
	RET

__SWAPD12:
	MOV  R1,R24
	MOV  R24,R22
	MOV  R22,R1
	MOV  R1,R25
	MOV  R25,R23
	MOV  R23,R1

__SWAPW12:
	MOV  R1,R27
	MOV  R27,R31
	MOV  R31,R1

__SWAPB12:
	MOV  R1,R26
	MOV  R26,R30
	MOV  R30,R1
	RET

__CPD10:
	SBIW R30,0
	SBCI R22,0
	SBCI R23,0
	RET

__CPD02:
	CLR  R0
	CP   R0,R26
	CPC  R0,R27
	CPC  R0,R24
	CPC  R0,R25
	RET

__CPD12:
	CP   R30,R26
	CPC  R31,R27
	CPC  R22,R24
	CPC  R23,R25
	RET

__CPD21:
	CP   R26,R30
	CPC  R27,R31
	CPC  R24,R22
	CPC  R25,R23
	RET

__SAVELOCR6:
	ST   -Y,R21
__SAVELOCR5:
	ST   -Y,R20
__SAVELOCR4:
	ST   -Y,R19
__SAVELOCR3:
	ST   -Y,R18
__SAVELOCR2:
	ST   -Y,R17
	ST   -Y,R16
	RET

__LOADLOCR6:
	LDD  R21,Y+5
__LOADLOCR5:
	LDD  R20,Y+4
__LOADLOCR4:
	LDD  R19,Y+3
__LOADLOCR3:
	LDD  R18,Y+2
__LOADLOCR2:
	LDD  R17,Y+1
	LD   R16,Y
	RET

__INITLOCB:
__INITLOCW:
	ADD  R26,R28
	ADC  R27,R29
__INITLOC0:
	LPM  R0,Z+
	ST   X+,R0
	DEC  R24
	BRNE __INITLOC0
	RET

;END OF CODE MARKER
__END_OF_CODE:
