
AVRASM ver. 2.1.30  Y:\Google Drive\ITESM\6.Cuarto Semestre\Arquitectura de Computadoras\FINAL\Debug\List\AES_128.asm Tue Dec 05 11:08:21 2017

                 
                 
                 ;CodeVisionAVR C Compiler V3.12 Advanced
                 ;(C) Copyright 1998-2014 Pavel Haiduc, HP InfoTech s.r.l.
                 ;http://www.hpinfotech.com
                 
                 ;Build configuration    : Debug
                 ;Chip type              : AT90USB1286
                 ;Program type           : Application
                 ;Clock frequency        : 16.000000 MHz
                 ;Memory model           : Small
                 ;Optimize for           : Size
                 ;(s)printf features     : int, width
                 ;(s)scanf features      : int, width
                 ;External RAM size      : 0
                 ;Data Stack size        : 2048 byte(s)
                 ;Heap size              : 0 byte(s)
                 ;Promote 'char' to 'int': Yes
                 ;'char' is unsigned     : Yes
                 ;8 bit enums            : Yes
                 ;Global 'const' stored in FLASH: No
                 ;Enhanced function parameter passing: Yes
                 ;Enhanced core instructions: On
                 ;Automatic register allocation for global variables: Off
                 ;Smart register allocation: Off
                 
                 	#define _MODEL_SMALL_
                 
                 	#pragma AVRPART ADMIN PART_NAME AT90USB1286
                 	#pragma AVRPART MEMORY PROG_FLASH 131072
                 	#pragma AVRPART MEMORY EEPROM 4096
                 	#pragma AVRPART MEMORY INT_SRAM SIZE 8192
                 	#pragma AVRPART MEMORY INT_SRAM START_ADDR 0x100
                 
                 	#define CALL_SUPPORTED 1
                 
                 	.LISTMAC
                 	.EQU EERE=0x0
                 	.EQU EEWE=0x1
                 	.EQU EEMWE=0x2
                 	.EQU UDRE=0x5
                 	.EQU RXC=0x7
                 	.EQU EECR=0x1F
                 	.EQU EEDR=0x20
                 	.EQU EEARL=0x21
                 	.EQU EEARH=0x22
                 	.EQU SPSR=0x2D
                 	.EQU SPDR=0x2E
                 	.EQU SMCR=0x33
                 	.EQU MCUSR=0x34
                 	.EQU MCUCR=0x35
                 	.EQU RAMPZ=0x3B
                 	.EQU WDTCSR=0x60
                 	.EQU UCSR1A=0xC8
                 	.EQU UDR1=0xCE
                 	.EQU SPL=0x3D
                 	.EQU SPH=0x3E
                 	.EQU SREG=0x3F
                 	.EQU GPIOR0=0x1E
                 
                 	.DEF R0X0=R0
                 	.DEF R0X1=R1
                 	.DEF R0X2=R2
                 	.DEF R0X3=R3
                 	.DEF R0X4=R4
                 	.DEF R0X5=R5
                 	.DEF R0X6=R6
                 	.DEF R0X7=R7
                 	.DEF R0X8=R8
                 	.DEF R0X9=R9
                 	.DEF R0XA=R10
                 	.DEF R0XB=R11
                 	.DEF R0XC=R12
                 	.DEF R0XD=R13
                 	.DEF R0XE=R14
                 	.DEF R0XF=R15
                 	.DEF R0X10=R16
                 	.DEF R0X11=R17
                 	.DEF R0X12=R18
                 	.DEF R0X13=R19
                 	.DEF R0X14=R20
                 	.DEF R0X15=R21
                 	.DEF R0X16=R22
                 	.DEF R0X17=R23
                 	.DEF R0X18=R24
                 	.DEF R0X19=R25
                 	.DEF R0X1A=R26
                 	.DEF R0X1B=R27
                 	.DEF R0X1C=R28
                 	.DEF R0X1D=R29
                 	.DEF R0X1E=R30
                 	.DEF R0X1F=R31
                 
                 	.EQU __SRAM_START=0x0100
                 	.EQU __SRAM_END=0x20FF
                 	.EQU __DSTACK_SIZE=0x0800
                 	.EQU __HEAP_SIZE=0x0000
                 	.EQU __CLEAR_SRAM_SIZE=__SRAM_END-__SRAM_START+1
                 
                 	.MACRO __CPD1N
                 	CPI  R30,LOW(@0)
                 	LDI  R26,HIGH(@0)
                 	CPC  R31,R26
                 	LDI  R26,BYTE3(@0)
                 	CPC  R22,R26
                 	LDI  R26,BYTE4(@0)
                 	CPC  R23,R26
                 	.ENDM
                 
                 	.MACRO __CPD2N
                 	CPI  R26,LOW(@0)
                 	LDI  R30,HIGH(@0)
                 	CPC  R27,R30
                 	LDI  R30,BYTE3(@0)
                 	CPC  R24,R30
                 	LDI  R30,BYTE4(@0)
                 	CPC  R25,R30
                 	.ENDM
                 
                 	.MACRO __CPWRR
                 	CP   R@0,R@2
                 	CPC  R@1,R@3
                 	.ENDM
                 
                 	.MACRO __CPWRN
                 	CPI  R@0,LOW(@2)
                 	LDI  R30,HIGH(@2)
                 	CPC  R@1,R30
                 	.ENDM
                 
                 	.MACRO __ADDB1MN
                 	SUBI R30,LOW(-@0-(@1))
                 	.ENDM
                 
                 	.MACRO __ADDB2MN
                 	SUBI R26,LOW(-@0-(@1))
                 	.ENDM
                 
                 	.MACRO __ADDW1MN
                 	SUBI R30,LOW(-@0-(@1))
                 	SBCI R31,HIGH(-@0-(@1))
                 	.ENDM
                 
                 	.MACRO __ADDW2MN
                 	SUBI R26,LOW(-@0-(@1))
                 	SBCI R27,HIGH(-@0-(@1))
                 	.ENDM
                 
                 	.MACRO __ADDW1FN
                 	SUBI R30,LOW(-2*@0-(@1))
                 	SBCI R31,HIGH(-2*@0-(@1))
                 	.ENDM
                 
                 	.MACRO __ADDD1FN
                 	SUBI R30,LOW(-2*@0-(@1))
                 	SBCI R31,HIGH(-2*@0-(@1))
                 	SBCI R22,BYTE3(-2*@0-(@1))
                 	.ENDM
                 
                 	.MACRO __ADDD1N
                 	SUBI R30,LOW(-@0)
                 	SBCI R31,HIGH(-@0)
                 	SBCI R22,BYTE3(-@0)
                 	SBCI R23,BYTE4(-@0)
                 	.ENDM
                 
                 	.MACRO __ADDD2N
                 	SUBI R26,LOW(-@0)
                 	SBCI R27,HIGH(-@0)
                 	SBCI R24,BYTE3(-@0)
                 	SBCI R25,BYTE4(-@0)
                 	.ENDM
                 
                 	.MACRO __SUBD1N
                 	SUBI R30,LOW(@0)
                 	SBCI R31,HIGH(@0)
                 	SBCI R22,BYTE3(@0)
                 	SBCI R23,BYTE4(@0)
                 	.ENDM
                 
                 	.MACRO __SUBD2N
                 	SUBI R26,LOW(@0)
                 	SBCI R27,HIGH(@0)
                 	SBCI R24,BYTE3(@0)
                 	SBCI R25,BYTE4(@0)
                 	.ENDM
                 
                 	.MACRO __ANDBMNN
                 	LDS  R30,@0+(@1)
                 	ANDI R30,LOW(@2)
                 	STS  @0+(@1),R30
                 	.ENDM
                 
                 	.MACRO __ANDWMNN
                 	LDS  R30,@0+(@1)
                 	ANDI R30,LOW(@2)
                 	STS  @0+(@1),R30
                 	LDS  R30,@0+(@1)+1
                 	ANDI R30,HIGH(@2)
                 	STS  @0+(@1)+1,R30
                 	.ENDM
                 
                 	.MACRO __ANDD1N
                 	ANDI R30,LOW(@0)
                 	ANDI R31,HIGH(@0)
                 	ANDI R22,BYTE3(@0)
                 	ANDI R23,BYTE4(@0)
                 	.ENDM
                 
                 	.MACRO __ANDD2N
                 	ANDI R26,LOW(@0)
                 	ANDI R27,HIGH(@0)
                 	ANDI R24,BYTE3(@0)
                 	ANDI R25,BYTE4(@0)
                 	.ENDM
                 
                 	.MACRO __ORBMNN
                 	LDS  R30,@0+(@1)
                 	ORI  R30,LOW(@2)
                 	STS  @0+(@1),R30
                 	.ENDM
                 
                 	.MACRO __ORWMNN
                 	LDS  R30,@0+(@1)
                 	ORI  R30,LOW(@2)
                 	STS  @0+(@1),R30
                 	LDS  R30,@0+(@1)+1
                 	ORI  R30,HIGH(@2)
                 	STS  @0+(@1)+1,R30
                 	.ENDM
                 
                 	.MACRO __ORD1N
                 	ORI  R30,LOW(@0)
                 	ORI  R31,HIGH(@0)
                 	ORI  R22,BYTE3(@0)
                 	ORI  R23,BYTE4(@0)
                 	.ENDM
                 
                 	.MACRO __ORD2N
                 	ORI  R26,LOW(@0)
                 	ORI  R27,HIGH(@0)
                 	ORI  R24,BYTE3(@0)
                 	ORI  R25,BYTE4(@0)
                 	.ENDM
                 
                 	.MACRO __DELAY_USB
                 	LDI  R24,LOW(@0)
                 __DELAY_USB_LOOP:
                 	DEC  R24
                 	BRNE __DELAY_USB_LOOP
                 	.ENDM
                 
                 	.MACRO __DELAY_USW
                 	LDI  R24,LOW(@0)
                 	LDI  R25,HIGH(@0)
                 __DELAY_USW_LOOP:
                 	SBIW R24,1
                 	BRNE __DELAY_USW_LOOP
                 	.ENDM
                 
                 	.MACRO __GETD1S
                 	LDD  R30,Y+@0
                 	LDD  R31,Y+@0+1
                 	LDD  R22,Y+@0+2
                 	LDD  R23,Y+@0+3
                 	.ENDM
                 
                 	.MACRO __GETD2S
                 	LDD  R26,Y+@0
                 	LDD  R27,Y+@0+1
                 	LDD  R24,Y+@0+2
                 	LDD  R25,Y+@0+3
                 	.ENDM
                 
                 	.MACRO __PUTD1S
                 	STD  Y+@0,R30
                 	STD  Y+@0+1,R31
                 	STD  Y+@0+2,R22
                 	STD  Y+@0+3,R23
                 	.ENDM
                 
                 	.MACRO __PUTD2S
                 	STD  Y+@0,R26
                 	STD  Y+@0+1,R27
                 	STD  Y+@0+2,R24
                 	STD  Y+@0+3,R25
                 	.ENDM
                 
                 	.MACRO __PUTDZ2
                 	STD  Z+@0,R26
                 	STD  Z+@0+1,R27
                 	STD  Z+@0+2,R24
                 	STD  Z+@0+3,R25
                 	.ENDM
                 
                 	.MACRO __CLRD1S
                 	STD  Y+@0,R30
                 	STD  Y+@0+1,R30
                 	STD  Y+@0+2,R30
                 	STD  Y+@0+3,R30
                 	.ENDM
                 
                 	.MACRO __POINTB1MN
                 	LDI  R30,LOW(@0+(@1))
                 	.ENDM
                 
                 	.MACRO __POINTW1MN
                 	LDI  R30,LOW(@0+(@1))
                 	LDI  R31,HIGH(@0+(@1))
                 	.ENDM
                 
                 	.MACRO __POINTD1M
                 	LDI  R30,LOW(@0)
                 	LDI  R31,HIGH(@0)
                 	LDI  R22,BYTE3(@0)
                 	LDI  R23,BYTE4(@0)
                 	.ENDM
                 
                 	.MACRO __POINTW1FN
                 	LDI  R30,LOW(2*@0+(@1))
                 	LDI  R31,HIGH(2*@0+(@1))
                 	.ENDM
                 
                 	.MACRO __POINTD1FN
                 	LDI  R30,LOW(2*@0+(@1))
                 	LDI  R31,HIGH(2*@0+(@1))
                 	LDI  R22,BYTE3(2*@0+(@1))
                 	LDI  R23,BYTE4(2*@0+(@1))
                 	.ENDM
                 
                 	.MACRO __POINTB2MN
                 	LDI  R26,LOW(@0+(@1))
                 	.ENDM
                 
                 	.MACRO __POINTW2MN
                 	LDI  R26,LOW(@0+(@1))
                 	LDI  R27,HIGH(@0+(@1))
                 	.ENDM
                 
                 	.MACRO __POINTW2FN
                 	LDI  R26,LOW(2*@0+(@1))
                 	LDI  R27,HIGH(2*@0+(@1))
                 	.ENDM
                 
                 	.MACRO __POINTD2FN
                 	LDI  R26,LOW(2*@0+(@1))
                 	LDI  R27,HIGH(2*@0+(@1))
                 	LDI  R24,BYTE3(2*@0+(@1))
                 	LDI  R25,BYTE4(2*@0+(@1))
                 	.ENDM
                 
                 	.MACRO __POINTBRM
                 	LDI  R@0,LOW(@1)
                 	.ENDM
                 
                 	.MACRO __POINTWRM
                 	LDI  R@0,LOW(@2)
                 	LDI  R@1,HIGH(@2)
                 	.ENDM
                 
                 	.MACRO __POINTBRMN
                 	LDI  R@0,LOW(@1+(@2))
                 	.ENDM
                 
                 	.MACRO __POINTWRMN
                 	LDI  R@0,LOW(@2+(@3))
                 	LDI  R@1,HIGH(@2+(@3))
                 	.ENDM
                 
                 	.MACRO __POINTWRFN
                 	LDI  R@0,LOW(@2*2+(@3))
                 	LDI  R@1,HIGH(@2*2+(@3))
                 	.ENDM
                 
                 	.MACRO __GETD1N
                 	LDI  R30,LOW(@0)
                 	LDI  R31,HIGH(@0)
                 	LDI  R22,BYTE3(@0)
                 	LDI  R23,BYTE4(@0)
                 	.ENDM
                 
                 	.MACRO __GETD2N
                 	LDI  R26,LOW(@0)
                 	LDI  R27,HIGH(@0)
                 	LDI  R24,BYTE3(@0)
                 	LDI  R25,BYTE4(@0)
                 	.ENDM
                 
                 	.MACRO __GETB1MN
                 	LDS  R30,@0+(@1)
                 	.ENDM
                 
                 	.MACRO __GETB1HMN
                 	LDS  R31,@0+(@1)
                 	.ENDM
                 
                 	.MACRO __GETW1MN
                 	LDS  R30,@0+(@1)
                 	LDS  R31,@0+(@1)+1
                 	.ENDM
                 
                 	.MACRO __GETD1MN
                 	LDS  R30,@0+(@1)
                 	LDS  R31,@0+(@1)+1
                 	LDS  R22,@0+(@1)+2
                 	LDS  R23,@0+(@1)+3
                 	.ENDM
                 
                 	.MACRO __GETBRMN
                 	LDS  R@0,@1+(@2)
                 	.ENDM
                 
                 	.MACRO __GETWRMN
                 	LDS  R@0,@2+(@3)
                 	LDS  R@1,@2+(@3)+1
                 	.ENDM
                 
                 	.MACRO __GETWRZ
                 	LDD  R@0,Z+@2
                 	LDD  R@1,Z+@2+1
                 	.ENDM
                 
                 	.MACRO __GETD2Z
                 	LDD  R26,Z+@0
                 	LDD  R27,Z+@0+1
                 	LDD  R24,Z+@0+2
                 	LDD  R25,Z+@0+3
                 	.ENDM
                 
                 	.MACRO __GETB2MN
                 	LDS  R26,@0+(@1)
                 	.ENDM
                 
                 	.MACRO __GETW2MN
                 	LDS  R26,@0+(@1)
                 	LDS  R27,@0+(@1)+1
                 	.ENDM
                 
                 	.MACRO __GETD2MN
                 	LDS  R26,@0+(@1)
                 	LDS  R27,@0+(@1)+1
                 	LDS  R24,@0+(@1)+2
                 	LDS  R25,@0+(@1)+3
                 	.ENDM
                 
                 	.MACRO __PUTB1MN
                 	STS  @0+(@1),R30
                 	.ENDM
                 
                 	.MACRO __PUTW1MN
                 	STS  @0+(@1),R30
                 	STS  @0+(@1)+1,R31
                 	.ENDM
                 
                 	.MACRO __PUTD1MN
                 	STS  @0+(@1),R30
                 	STS  @0+(@1)+1,R31
                 	STS  @0+(@1)+2,R22
                 	STS  @0+(@1)+3,R23
                 	.ENDM
                 
                 	.MACRO __PUTB1EN
                 	LDI  R26,LOW(@0+(@1))
                 	LDI  R27,HIGH(@0+(@1))
                 	CALL __EEPROMWRB
                 	.ENDM
                 
                 	.MACRO __PUTW1EN
                 	LDI  R26,LOW(@0+(@1))
                 	LDI  R27,HIGH(@0+(@1))
                 	CALL __EEPROMWRW
                 	.ENDM
                 
                 	.MACRO __PUTD1EN
                 	LDI  R26,LOW(@0+(@1))
                 	LDI  R27,HIGH(@0+(@1))
                 	CALL __EEPROMWRD
                 	.ENDM
                 
                 	.MACRO __PUTBR0MN
                 	STS  @0+(@1),R0
                 	.ENDM
                 
                 	.MACRO __PUTBMRN
                 	STS  @0+(@1),R@2
                 	.ENDM
                 
                 	.MACRO __PUTWMRN
                 	STS  @0+(@1),R@2
                 	STS  @0+(@1)+1,R@3
                 	.ENDM
                 
                 	.MACRO __PUTBZR
                 	STD  Z+@1,R@0
                 	.ENDM
                 
                 	.MACRO __PUTWZR
                 	STD  Z+@2,R@0
                 	STD  Z+@2+1,R@1
                 	.ENDM
                 
                 	.MACRO __GETW1R
                 	MOV  R30,R@0
                 	MOV  R31,R@1
                 	.ENDM
                 
                 	.MACRO __GETW2R
                 	MOV  R26,R@0
                 	MOV  R27,R@1
                 	.ENDM
                 
                 	.MACRO __GETWRN
                 	LDI  R@0,LOW(@2)
                 	LDI  R@1,HIGH(@2)
                 	.ENDM
                 
                 	.MACRO __PUTW1R
                 	MOV  R@0,R30
                 	MOV  R@1,R31
                 	.ENDM
                 
                 	.MACRO __PUTW2R
                 	MOV  R@0,R26
                 	MOV  R@1,R27
                 	.ENDM
                 
                 	.MACRO __ADDWRN
                 	SUBI R@0,LOW(-@2)
                 	SBCI R@1,HIGH(-@2)
                 	.ENDM
                 
                 	.MACRO __ADDWRR
                 	ADD  R@0,R@2
                 	ADC  R@1,R@3
                 	.ENDM
                 
                 	.MACRO __SUBWRN
                 	SUBI R@0,LOW(@2)
                 	SBCI R@1,HIGH(@2)
                 	.ENDM
                 
                 	.MACRO __SUBWRR
                 	SUB  R@0,R@2
                 	SBC  R@1,R@3
                 	.ENDM
                 
                 	.MACRO __ANDWRN
                 	ANDI R@0,LOW(@2)
                 	ANDI R@1,HIGH(@2)
                 	.ENDM
                 
                 	.MACRO __ANDWRR
                 	AND  R@0,R@2
                 	AND  R@1,R@3
                 	.ENDM
                 
                 	.MACRO __ORWRN
                 	ORI  R@0,LOW(@2)
                 	ORI  R@1,HIGH(@2)
                 	.ENDM
                 
                 	.MACRO __ORWRR
                 	OR   R@0,R@2
                 	OR   R@1,R@3
                 	.ENDM
                 
                 	.MACRO __EORWRR
                 	EOR  R@0,R@2
                 	EOR  R@1,R@3
                 	.ENDM
                 
                 	.MACRO __GETWRS
                 	LDD  R@0,Y+@2
                 	LDD  R@1,Y+@2+1
                 	.ENDM
                 
                 	.MACRO __PUTBSR
                 	STD  Y+@1,R@0
                 	.ENDM
                 
                 	.MACRO __PUTWSR
                 	STD  Y+@2,R@0
                 	STD  Y+@2+1,R@1
                 	.ENDM
                 
                 	.MACRO __MOVEWRR
                 	MOV  R@0,R@2
                 	MOV  R@1,R@3
                 	.ENDM
                 
                 	.MACRO __INWR
                 	IN   R@0,@2
                 	IN   R@1,@2+1
                 	.ENDM
                 
                 	.MACRO __OUTWR
                 	OUT  @2+1,R@1
                 	OUT  @2,R@0
                 	.ENDM
                 
                 	.MACRO __CALL1MN
                 	LDS  R30,@0+(@1)
                 	LDS  R31,@0+(@1)+1
                 	ICALL
                 	.ENDM
                 
                 	.MACRO __CALL1FN
                 	LDI  R30,LOW(2*@0+(@1))
                 	LDI  R31,HIGH(2*@0+(@1))
                 	CALL __GETW1PF
                 	ICALL
                 	.ENDM
                 
                 	.MACRO __CALL2EN
                 	PUSH R26
                 	PUSH R27
                 	LDI  R26,LOW(@0+(@1))
                 	LDI  R27,HIGH(@0+(@1))
                 	CALL __EEPROMRDW
                 	POP  R27
                 	POP  R26
                 	ICALL
                 	.ENDM
                 
                 	.MACRO __CALL2EX
                 	SUBI R26,LOW(-@0)
                 	SBCI R27,HIGH(-@0)
                 	CALL __EEPROMRDD
                 	ICALL
                 	.ENDM
                 
                 	.MACRO __GETW1STACK
                 	IN   R30,SPL
                 	IN   R31,SPH
                 	ADIW R30,@0+1
                 	LD   R0,Z+
                 	LD   R31,Z
                 	MOV  R30,R0
                 	.ENDM
                 
                 	.MACRO __GETD1STACK
                 	IN   R30,SPL
                 	IN   R31,SPH
                 	ADIW R30,@0+1
                 	LD   R0,Z+
                 	LD   R1,Z+
                 	LD   R22,Z
                 	MOVW R30,R0
                 	.ENDM
                 
                 	.MACRO __NBST
                 	BST  R@0,@1
                 	IN   R30,SREG
                 	LDI  R31,0x40
                 	EOR  R30,R31
                 	OUT  SREG,R30
                 	.ENDM
                 
                 
                 	.MACRO __PUTB1SN
                 	LDD  R26,Y+@0
                 	LDD  R27,Y+@0+1
                 	SUBI R26,LOW(-@1)
                 	SBCI R27,HIGH(-@1)
                 	ST   X,R30
                 	.ENDM
                 
                 	.MACRO __PUTW1SN
                 	LDD  R26,Y+@0
                 	LDD  R27,Y+@0+1
                 	SUBI R26,LOW(-@1)
                 	SBCI R27,HIGH(-@1)
                 	ST   X+,R30
                 	ST   X,R31
                 	.ENDM
                 
                 	.MACRO __PUTD1SN
                 	LDD  R26,Y+@0
                 	LDD  R27,Y+@0+1
                 	SUBI R26,LOW(-@1)
                 	SBCI R27,HIGH(-@1)
                 	CALL __PUTDP1
                 	.ENDM
                 
                 	.MACRO __PUTB1SNS
                 	LDD  R26,Y+@0
                 	LDD  R27,Y+@0+1
                 	ADIW R26,@1
                 	ST   X,R30
                 	.ENDM
                 
                 	.MACRO __PUTW1SNS
                 	LDD  R26,Y+@0
                 	LDD  R27,Y+@0+1
                 	ADIW R26,@1
                 	ST   X+,R30
                 	ST   X,R31
                 	.ENDM
                 
                 	.MACRO __PUTD1SNS
                 	LDD  R26,Y+@0
                 	LDD  R27,Y+@0+1
                 	ADIW R26,@1
                 	CALL __PUTDP1
                 	.ENDM
                 
                 	.MACRO __PUTB1PMN
                 	LDS  R26,@0
                 	LDS  R27,@0+1
                 	SUBI R26,LOW(-@1)
                 	SBCI R27,HIGH(-@1)
                 	ST   X,R30
                 	.ENDM
                 
                 	.MACRO __PUTW1PMN
                 	LDS  R26,@0
                 	LDS  R27,@0+1
                 	SUBI R26,LOW(-@1)
                 	SBCI R27,HIGH(-@1)
                 	ST   X+,R30
                 	ST   X,R31
                 	.ENDM
                 
                 	.MACRO __PUTD1PMN
                 	LDS  R26,@0
                 	LDS  R27,@0+1
                 	SUBI R26,LOW(-@1)
                 	SBCI R27,HIGH(-@1)
                 	CALL __PUTDP1
                 	.ENDM
                 
                 	.MACRO __PUTB1PMNS
                 	LDS  R26,@0
                 	LDS  R27,@0+1
                 	ADIW R26,@1
                 	ST   X,R30
                 	.ENDM
                 
                 	.MACRO __PUTW1PMNS
                 	LDS  R26,@0
                 	LDS  R27,@0+1
                 	ADIW R26,@1
                 	ST   X+,R30
                 	ST   X,R31
                 	.ENDM
                 
                 	.MACRO __PUTD1PMNS
                 	LDS  R26,@0
                 	LDS  R27,@0+1
                 	ADIW R26,@1
                 	CALL __PUTDP1
                 	.ENDM
                 
                 	.MACRO __PUTB1RN
                 	MOVW R26,R@0
                 	SUBI R26,LOW(-@1)
                 	SBCI R27,HIGH(-@1)
                 	ST   X,R30
                 	.ENDM
                 
                 	.MACRO __PUTW1RN
                 	MOVW R26,R@0
                 	SUBI R26,LOW(-@1)
                 	SBCI R27,HIGH(-@1)
                 	ST   X+,R30
                 	ST   X,R31
                 	.ENDM
                 
                 	.MACRO __PUTD1RN
                 	MOVW R26,R@0
                 	SUBI R26,LOW(-@1)
                 	SBCI R27,HIGH(-@1)
                 	CALL __PUTDP1
                 	.ENDM
                 
                 	.MACRO __PUTB1RNS
                 	MOVW R26,R@0
                 	ADIW R26,@1
                 	ST   X,R30
                 	.ENDM
                 
                 	.MACRO __PUTW1RNS
                 	MOVW R26,R@0
                 	ADIW R26,@1
                 	ST   X+,R30
                 	ST   X,R31
                 	.ENDM
                 
                 	.MACRO __PUTD1RNS
                 	MOVW R26,R@0
                 	ADIW R26,@1
                 	CALL __PUTDP1
                 	.ENDM
                 
                 	.MACRO __PUTB1RON
                 	MOV  R26,R@0
                 	MOV  R27,R@1
                 	SUBI R26,LOW(-@2)
                 	SBCI R27,HIGH(-@2)
                 	ST   X,R30
                 	.ENDM
                 
                 	.MACRO __PUTW1RON
                 	MOV  R26,R@0
                 	MOV  R27,R@1
                 	SUBI R26,LOW(-@2)
                 	SBCI R27,HIGH(-@2)
                 	ST   X+,R30
                 	ST   X,R31
                 	.ENDM
                 
                 	.MACRO __PUTD1RON
                 	MOV  R26,R@0
                 	MOV  R27,R@1
                 	SUBI R26,LOW(-@2)
                 	SBCI R27,HIGH(-@2)
                 	CALL __PUTDP1
                 	.ENDM
                 
                 	.MACRO __PUTB1RONS
                 	MOV  R26,R@0
                 	MOV  R27,R@1
                 	ADIW R26,@2
                 	ST   X,R30
                 	.ENDM
                 
                 	.MACRO __PUTW1RONS
                 	MOV  R26,R@0
                 	MOV  R27,R@1
                 	ADIW R26,@2
                 	ST   X+,R30
                 	ST   X,R31
                 	.ENDM
                 
                 	.MACRO __PUTD1RONS
                 	MOV  R26,R@0
                 	MOV  R27,R@1
                 	ADIW R26,@2
                 	CALL __PUTDP1
                 	.ENDM
                 
                 
                 	.MACRO __GETB1SX
                 	MOVW R30,R28
                 	SUBI R30,LOW(-@0)
                 	SBCI R31,HIGH(-@0)
                 	LD   R30,Z
                 	.ENDM
                 
                 	.MACRO __GETB1HSX
                 	MOVW R30,R28
                 	SUBI R30,LOW(-@0)
                 	SBCI R31,HIGH(-@0)
                 	LD   R31,Z
                 	.ENDM
                 
                 	.MACRO __GETW1SX
                 	MOVW R30,R28
                 	SUBI R30,LOW(-@0)
                 	SBCI R31,HIGH(-@0)
                 	LD   R0,Z+
                 	LD   R31,Z
                 	MOV  R30,R0
                 	.ENDM
                 
                 	.MACRO __GETD1SX
                 	MOVW R30,R28
                 	SUBI R30,LOW(-@0)
                 	SBCI R31,HIGH(-@0)
                 	LD   R0,Z+
                 	LD   R1,Z+
                 	LD   R22,Z+
                 	LD   R23,Z
                 	MOVW R30,R0
                 	.ENDM
                 
                 	.MACRO __GETB2SX
                 	MOVW R26,R28
                 	SUBI R26,LOW(-@0)
                 	SBCI R27,HIGH(-@0)
                 	LD   R26,X
                 	.ENDM
                 
                 	.MACRO __GETW2SX
                 	MOVW R26,R28
                 	SUBI R26,LOW(-@0)
                 	SBCI R27,HIGH(-@0)
                 	LD   R0,X+
                 	LD   R27,X
                 	MOV  R26,R0
                 	.ENDM
                 
                 	.MACRO __GETD2SX
                 	MOVW R26,R28
                 	SUBI R26,LOW(-@0)
                 	SBCI R27,HIGH(-@0)
                 	LD   R0,X+
                 	LD   R1,X+
                 	LD   R24,X+
                 	LD   R25,X
                 	MOVW R26,R0
                 	.ENDM
                 
                 	.MACRO __GETBRSX
                 	MOVW R30,R28
                 	SUBI R30,LOW(-@1)
                 	SBCI R31,HIGH(-@1)
                 	LD   R@0,Z
                 	.ENDM
                 
                 	.MACRO __GETWRSX
                 	MOVW R30,R28
                 	SUBI R30,LOW(-@2)
                 	SBCI R31,HIGH(-@2)
                 	LD   R@0,Z+
                 	LD   R@1,Z
                 	.ENDM
                 
                 	.MACRO __GETBRSX2
                 	MOVW R26,R28
                 	SUBI R26,LOW(-@1)
                 	SBCI R27,HIGH(-@1)
                 	LD   R@0,X
                 	.ENDM
                 
                 	.MACRO __GETWRSX2
                 	MOVW R26,R28
                 	SUBI R26,LOW(-@2)
                 	SBCI R27,HIGH(-@2)
                 	LD   R@0,X+
                 	LD   R@1,X
                 	.ENDM
                 
                 	.MACRO __LSLW8SX
                 	MOVW R30,R28
                 	SUBI R30,LOW(-@0)
                 	SBCI R31,HIGH(-@0)
                 	LD   R31,Z
                 	CLR  R30
                 	.ENDM
                 
                 	.MACRO __PUTB1SX
                 	MOVW R26,R28
                 	SUBI R26,LOW(-@0)
                 	SBCI R27,HIGH(-@0)
                 	ST   X,R30
                 	.ENDM
                 
                 	.MACRO __PUTW1SX
                 	MOVW R26,R28
                 	SUBI R26,LOW(-@0)
                 	SBCI R27,HIGH(-@0)
                 	ST   X+,R30
                 	ST   X,R31
                 	.ENDM
                 
                 	.MACRO __PUTD1SX
                 	MOVW R26,R28
                 	SUBI R26,LOW(-@0)
                 	SBCI R27,HIGH(-@0)
                 	ST   X+,R30
                 	ST   X+,R31
                 	ST   X+,R22
                 	ST   X,R23
                 	.ENDM
                 
                 	.MACRO __CLRW1SX
                 	MOVW R26,R28
                 	SUBI R26,LOW(-@0)
                 	SBCI R27,HIGH(-@0)
                 	ST   X+,R30
                 	ST   X,R30
                 	.ENDM
                 
                 	.MACRO __CLRD1SX
                 	MOVW R26,R28
                 	SUBI R26,LOW(-@0)
                 	SBCI R27,HIGH(-@0)
                 	ST   X+,R30
                 	ST   X+,R30
                 	ST   X+,R30
                 	ST   X,R30
                 	.ENDM
                 
                 	.MACRO __PUTB2SX
                 	MOVW R30,R28
                 	SUBI R30,LOW(-@0)
                 	SBCI R31,HIGH(-@0)
                 	ST   Z,R26
                 	.ENDM
                 
                 	.MACRO __PUTW2SX
                 	MOVW R30,R28
                 	SUBI R30,LOW(-@0)
                 	SBCI R31,HIGH(-@0)
                 	ST   Z+,R26
                 	ST   Z,R27
                 	.ENDM
                 
                 	.MACRO __PUTD2SX
                 	MOVW R30,R28
                 	SUBI R30,LOW(-@0)
                 	SBCI R31,HIGH(-@0)
                 	ST   Z+,R26
                 	ST   Z+,R27
                 	ST   Z+,R24
                 	ST   Z,R25
                 	.ENDM
                 
                 	.MACRO __PUTBSRX
                 	MOVW R30,R28
                 	SUBI R30,LOW(-@1)
                 	SBCI R31,HIGH(-@1)
                 	ST   Z,R@0
                 	.ENDM
                 
                 	.MACRO __PUTWSRX
                 	MOVW R30,R28
                 	SUBI R30,LOW(-@2)
                 	SBCI R31,HIGH(-@2)
                 	ST   Z+,R@0
                 	ST   Z,R@1
                 	.ENDM
                 
                 	.MACRO __PUTB1SNX
                 	MOVW R26,R28
                 	SUBI R26,LOW(-@0)
                 	SBCI R27,HIGH(-@0)
                 	LD   R0,X+
                 	LD   R27,X
                 	MOV  R26,R0
                 	SUBI R26,LOW(-@1)
                 	SBCI R27,HIGH(-@1)
                 	ST   X,R30
                 	.ENDM
                 
                 	.MACRO __PUTW1SNX
                 	MOVW R26,R28
                 	SUBI R26,LOW(-@0)
                 	SBCI R27,HIGH(-@0)
                 	LD   R0,X+
                 	LD   R27,X
                 	MOV  R26,R0
                 	SUBI R26,LOW(-@1)
                 	SBCI R27,HIGH(-@1)
                 	ST   X+,R30
                 	ST   X,R31
                 	.ENDM
                 
                 	.MACRO __PUTD1SNX
                 	MOVW R26,R28
                 	SUBI R26,LOW(-@0)
                 	SBCI R27,HIGH(-@0)
                 	LD   R0,X+
                 	LD   R27,X
                 	MOV  R26,R0
                 	SUBI R26,LOW(-@1)
                 	SBCI R27,HIGH(-@1)
                 	ST   X+,R30
                 	ST   X+,R31
                 	ST   X+,R22
                 	ST   X,R23
                 	.ENDM
                 
                 	.MACRO __MULBRR
                 	MULS R@0,R@1
                 	MOVW R30,R0
                 	.ENDM
                 
                 	.MACRO __MULBRRU
                 	MUL  R@0,R@1
                 	MOVW R30,R0
                 	.ENDM
                 
                 	.MACRO __MULBRR0
                 	MULS R@0,R@1
                 	.ENDM
                 
                 	.MACRO __MULBRRU0
                 	MUL  R@0,R@1
                 	.ENDM
                 
                 	.MACRO __MULBNWRU
                 	LDI  R26,@2
                 	MUL  R26,R@0
                 	MOVW R30,R0
                 	MUL  R26,R@1
                 	ADD  R31,R0
                 	.ENDM
                 
                 ;GPIOR0 INITIALIZATION VALUE
                 	.EQU __GPIOR0_INIT=0x00
                 
                 	.CSEG
                 	.ORG 0x00
                 
                 ;START OF CODE MARKER
                 __START_OF_CODE:
                 
                 ;INTERRUPT VECTORS
000000 940c 05e8 	JMP  __RESET
000002 940c 0000 	JMP  0x00
000004 940c 0000 	JMP  0x00
000006 940c 0000 	JMP  0x00
000008 940c 0000 	JMP  0x00
00000a 940c 0000 	JMP  0x00
00000c 940c 0000 	JMP  0x00
00000e 940c 0000 	JMP  0x00
000010 940c 0000 	JMP  0x00
000012 940c 0000 	JMP  0x00
000014 940c 0000 	JMP  0x00
000016 940c 0000 	JMP  0x00
000018 940c 0000 	JMP  0x00
00001a 940c 0944 	JMP  _timer2_compa_isr
00001c 940c 0000 	JMP  0x00
00001e 940c 0000 	JMP  0x00
000020 940c 0000 	JMP  0x00
000022 940c 0927 	JMP  _timer1_compa_isr
000024 940c 0000 	JMP  0x00
000026 940c 0000 	JMP  0x00
000028 940c 0000 	JMP  0x00
00002a 940c 0922 	JMP  _timer0_compa_isr
00002c 940c 0000 	JMP  0x00
00002e 940c 0000 	JMP  0x00
000030 940c 0000 	JMP  0x00
000032 940c 0000 	JMP  0x00
000034 940c 0000 	JMP  0x00
000036 940c 0000 	JMP  0x00
000038 940c 0000 	JMP  0x00
00003a 940c 0000 	JMP  0x00
00003c 940c 0000 	JMP  0x00
00003e 940c 0000 	JMP  0x00
000040 940c 0000 	JMP  0x00
000042 940c 0000 	JMP  0x00
000044 940c 0000 	JMP  0x00
000046 940c 0000 	JMP  0x00
000048 940c 0000 	JMP  0x00
00004a 940c 0000 	JMP  0x00
                 
                 _sbox:
00004c 7c63
00004d 7b77
00004e 6bf2
00004f c56f      	.DB  0x63,0x7C,0x77,0x7B,0xF2,0x6B,0x6F,0xC5
000050 0130
000051 2b67
000052 d7fe
000053 76ab      	.DB  0x30,0x1,0x67,0x2B,0xFE,0xD7,0xAB,0x76
000054 82ca
000055 7dc9
000056 59fa
000057 f047      	.DB  0xCA,0x82,0xC9,0x7D,0xFA,0x59,0x47,0xF0
000058 d4ad
000059 afa2
00005a a49c
00005b c072      	.DB  0xAD,0xD4,0xA2,0xAF,0x9C,0xA4,0x72,0xC0
00005c fdb7
00005d 2693
00005e 3f36
00005f ccf7      	.DB  0xB7,0xFD,0x93,0x26,0x36,0x3F,0xF7,0xCC
000060 a534
000061 f1e5
000062 d871
000063 1531      	.DB  0x34,0xA5,0xE5,0xF1,0x71,0xD8,0x31,0x15
000064 c704
000065 c323
000066 9618
000067 9a05      	.DB  0x4,0xC7,0x23,0xC3,0x18,0x96,0x5,0x9A
000068 1207
000069 e280
00006a 27eb
00006b 75b2      	.DB  0x7,0x12,0x80,0xE2,0xEB,0x27,0xB2,0x75
00006c 8309
00006d 1a2c
00006e 6e1b
00006f a05a      	.DB  0x9,0x83,0x2C,0x1A,0x1B,0x6E,0x5A,0xA0
000070 3b52
000071 b3d6
000072 e329
000073 842f      	.DB  0x52,0x3B,0xD6,0xB3,0x29,0xE3,0x2F,0x84
000074 d153
000075 ed00
000076 fc20
000077 5bb1      	.DB  0x53,0xD1,0x0,0xED,0x20,0xFC,0xB1,0x5B
000078 cb6a
000079 39be
00007a 4c4a
00007b cf58      	.DB  0x6A,0xCB,0xBE,0x39,0x4A,0x4C,0x58,0xCF
00007c efd0
00007d fbaa
00007e 4d43
00007f 8533      	.DB  0xD0,0xEF,0xAA,0xFB,0x43,0x4D,0x33,0x85
000080 f945
000081 7f02
000082 3c50
000083 a89f      	.DB  0x45,0xF9,0x2,0x7F,0x50,0x3C,0x9F,0xA8
000084 a351
000085 8f40
000086 9d92
000087 f538      	.DB  0x51,0xA3,0x40,0x8F,0x92,0x9D,0x38,0xF5
000088 b6bc
000089 21da
00008a ff10
00008b d2f3      	.DB  0xBC,0xB6,0xDA,0x21,0x10,0xFF,0xF3,0xD2
00008c 0ccd
00008d ec13
00008e 975f
00008f 1744      	.DB  0xCD,0xC,0x13,0xEC,0x5F,0x97,0x44,0x17
000090 a7c4
000091 3d7e
000092 5d64
000093 7319      	.DB  0xC4,0xA7,0x7E,0x3D,0x64,0x5D,0x19,0x73
000094 8160
000095 dc4f
000096 2a22
000097 8890      	.DB  0x60,0x81,0x4F,0xDC,0x22,0x2A,0x90,0x88
000098 ee46
000099 14b8
00009a 5ede
00009b db0b      	.DB  0x46,0xEE,0xB8,0x14,0xDE,0x5E,0xB,0xDB
00009c 32e0
00009d 0a3a
00009e 0649
00009f 5c24      	.DB  0xE0,0x32,0x3A,0xA,0x49,0x6,0x24,0x5C
0000a0 d3c2
0000a1 62ac
0000a2 9591
0000a3 79e4      	.DB  0xC2,0xD3,0xAC,0x62,0x91,0x95,0xE4,0x79
0000a4 c8e7
0000a5 6d37
0000a6 d58d
0000a7 a94e      	.DB  0xE7,0xC8,0x37,0x6D,0x8D,0xD5,0x4E,0xA9
0000a8 566c
0000a9 eaf4
0000aa 7a65
0000ab 08ae      	.DB  0x6C,0x56,0xF4,0xEA,0x65,0x7A,0xAE,0x8
0000ac 78ba
0000ad 2e25
0000ae a61c
0000af c6b4      	.DB  0xBA,0x78,0x25,0x2E,0x1C,0xA6,0xB4,0xC6
0000b0 dde8
0000b1 1f74
0000b2 bd4b
0000b3 8a8b      	.DB  0xE8,0xDD,0x74,0x1F,0x4B,0xBD,0x8B,0x8A
0000b4 3e70
0000b5 66b5
0000b6 0348
0000b7 0ef6      	.DB  0x70,0x3E,0xB5,0x66,0x48,0x3,0xF6,0xE
0000b8 3561
0000b9 b957
0000ba c186
0000bb 9e1d      	.DB  0x61,0x35,0x57,0xB9,0x86,0xC1,0x1D,0x9E
0000bc f8e1
0000bd 1198
0000be d969
0000bf 948e      	.DB  0xE1,0xF8,0x98,0x11,0x69,0xD9,0x8E,0x94
0000c0 1e9b
0000c1 e987
0000c2 55ce
0000c3 df28      	.DB  0x9B,0x1E,0x87,0xE9,0xCE,0x55,0x28,0xDF
0000c4 a18c
0000c5 0d89
0000c6 e6bf
0000c7 6842      	.DB  0x8C,0xA1,0x89,0xD,0xBF,0xE6,0x42,0x68
0000c8 9941
0000c9 0f2d
0000ca 54b0
0000cb 16bb      	.DB  0x41,0x99,0x2D,0xF,0xB0,0x54,0xBB,0x16
                 _rsbox:
0000cc 0952
0000cd d56a
0000ce 3630
0000cf 38a5      	.DB  0x52,0x9,0x6A,0xD5,0x30,0x36,0xA5,0x38
0000d0 40bf
0000d1 9ea3
0000d2 f381
0000d3 fbd7      	.DB  0xBF,0x40,0xA3,0x9E,0x81,0xF3,0xD7,0xFB
0000d4 e37c
0000d5 8239
0000d6 2f9b
0000d7 87ff      	.DB  0x7C,0xE3,0x39,0x82,0x9B,0x2F,0xFF,0x87
0000d8 8e34
0000d9 4443
0000da dec4
0000db cbe9      	.DB  0x34,0x8E,0x43,0x44,0xC4,0xDE,0xE9,0xCB
0000dc 7b54
0000dd 3294
0000de c2a6
0000df 3d23      	.DB  0x54,0x7B,0x94,0x32,0xA6,0xC2,0x23,0x3D
0000e0 4cee
0000e1 0b95
0000e2 fa42
0000e3 4ec3      	.DB  0xEE,0x4C,0x95,0xB,0x42,0xFA,0xC3,0x4E
0000e4 2e08
0000e5 66a1
0000e6 d928
0000e7 b224      	.DB  0x8,0x2E,0xA1,0x66,0x28,0xD9,0x24,0xB2
0000e8 5b76
0000e9 49a2
0000ea 8b6d
0000eb 25d1      	.DB  0x76,0x5B,0xA2,0x49,0x6D,0x8B,0xD1,0x25
0000ec f872
0000ed 64f6
0000ee 6886
0000ef 1698      	.DB  0x72,0xF8,0xF6,0x64,0x86,0x68,0x98,0x16
0000f0 a4d4
0000f1 cc5c
0000f2 655d
0000f3 92b6      	.DB  0xD4,0xA4,0x5C,0xCC,0x5D,0x65,0xB6,0x92
0000f4 706c
0000f5 5048
0000f6 edfd
0000f7 dab9      	.DB  0x6C,0x70,0x48,0x50,0xFD,0xED,0xB9,0xDA
0000f8 155e
0000f9 5746
0000fa 8da7
0000fb 849d      	.DB  0x5E,0x15,0x46,0x57,0xA7,0x8D,0x9D,0x84
0000fc d890
0000fd 00ab
0000fe bc8c
0000ff 0ad3      	.DB  0x90,0xD8,0xAB,0x0,0x8C,0xBC,0xD3,0xA
000100 e4f7
000101 0558
000102 b3b8
000103 0645      	.DB  0xF7,0xE4,0x58,0x5,0xB8,0xB3,0x45,0x6
000104 2cd0
000105 8f1e
000106 3fca
000107 020f      	.DB  0xD0,0x2C,0x1E,0x8F,0xCA,0x3F,0xF,0x2
000108 afc1
000109 03bd
00010a 1301
00010b 6b8a      	.DB  0xC1,0xAF,0xBD,0x3,0x1,0x13,0x8A,0x6B
00010c 913a
00010d 4111
00010e 674f
00010f eadc      	.DB  0x3A,0x91,0x11,0x41,0x4F,0x67,0xDC,0xEA
000110 f297
000111 cecf
000112 b4f0
000113 73e6      	.DB  0x97,0xF2,0xCF,0xCE,0xF0,0xB4,0xE6,0x73
000114 ac96
000115 2274
000116 ade7
000117 8535      	.DB  0x96,0xAC,0x74,0x22,0xE7,0xAD,0x35,0x85
000118 f9e2
000119 e837
00011a 751c
00011b 6edf      	.DB  0xE2,0xF9,0x37,0xE8,0x1C,0x75,0xDF,0x6E
00011c f147
00011d 711a
00011e 291d
00011f 89c5      	.DB  0x47,0xF1,0x1A,0x71,0x1D,0x29,0xC5,0x89
000120 b76f
000121 0e62
000122 18aa
000123 1bbe      	.DB  0x6F,0xB7,0x62,0xE,0xAA,0x18,0xBE,0x1B
000124 56fc
000125 4b3e
000126 d2c6
000127 2079      	.DB  0xFC,0x56,0x3E,0x4B,0xC6,0xD2,0x79,0x20
000128 db9a
000129 fec0
00012a cd78
00012b f45a      	.DB  0x9A,0xDB,0xC0,0xFE,0x78,0xCD,0x5A,0xF4
00012c dd1f
00012d 33a8
00012e 0788
00012f 31c7      	.DB  0x1F,0xDD,0xA8,0x33,0x88,0x7,0xC7,0x31
000130 12b1
000131 5910
000132 8027
000133 5fec      	.DB  0xB1,0x12,0x10,0x59,0x27,0x80,0xEC,0x5F
000134 5160
000135 a97f
000136 b519
000137 0d4a      	.DB  0x60,0x51,0x7F,0xA9,0x19,0xB5,0x4A,0xD
000138 e52d
000139 9f7a
00013a c993
00013b ef9c      	.DB  0x2D,0xE5,0x7A,0x9F,0x93,0xC9,0x9C,0xEF
00013c e0a0
00013d 4d3b
00013e 2aae
00013f b0f5      	.DB  0xA0,0xE0,0x3B,0x4D,0xAE,0x2A,0xF5,0xB0
000140 ebc8
000141 3cbb
000142 5383
000143 6199      	.DB  0xC8,0xEB,0xBB,0x3C,0x83,0x53,0x99,0x61
000144 2b17
000145 7e04
000146 77ba
000147 26d6      	.DB  0x17,0x2B,0x4,0x7E,0xBA,0x77,0xD6,0x26
000148 69e1
000149 6314
00014a 2155
00014b 7d0c      	.DB  0xE1,0x69,0x14,0x63,0x55,0x21,0xC,0x7D
                 _rcon:
00014c 018d
00014d 0402
00014e 1008
00014f 4020      	.DB  0x8D,0x1,0x2,0x4,0x8,0x10,0x20,0x40
000150 1b80
Y:\Google Drive\ITESM\6.Cuarto Semestre\Arquitectura de Computadoras\FINAL\Debug\List\AES_128.asm(1207): warning: .cseg .db misalignment - padding zero byte
000151 0036      	.DB  0x80,0x1B,0x36
                 _x2:
000152 0200
000153 0604
000154 0a08
000155 0e0c      	.DB  0x0,0x2,0x4,0x6,0x8,0xA,0xC,0xE
000156 1210
000157 1614
000158 1a18
000159 1e1c      	.DB  0x10,0x12,0x14,0x16,0x18,0x1A,0x1C,0x1E
00015a 2220
00015b 2624
00015c 2a28
00015d 2e2c      	.DB  0x20,0x22,0x24,0x26,0x28,0x2A,0x2C,0x2E
00015e 3230
00015f 3634
000160 3a38
000161 3e3c      	.DB  0x30,0x32,0x34,0x36,0x38,0x3A,0x3C,0x3E
000162 4240
000163 4644
000164 4a48
000165 4e4c      	.DB  0x40,0x42,0x44,0x46,0x48,0x4A,0x4C,0x4E
000166 5250
000167 5654
000168 5a58
000169 5e5c      	.DB  0x50,0x52,0x54,0x56,0x58,0x5A,0x5C,0x5E
00016a 6260
00016b 6664
00016c 6a68
00016d 6e6c      	.DB  0x60,0x62,0x64,0x66,0x68,0x6A,0x6C,0x6E
00016e 7270
00016f 7674
000170 7a78
000171 7e7c      	.DB  0x70,0x72,0x74,0x76,0x78,0x7A,0x7C,0x7E
000172 8280
000173 8684
000174 8a88
000175 8e8c      	.DB  0x80,0x82,0x84,0x86,0x88,0x8A,0x8C,0x8E
000176 9290
000177 9694
000178 9a98
000179 9e9c      	.DB  0x90,0x92,0x94,0x96,0x98,0x9A,0x9C,0x9E
00017a a2a0
00017b a6a4
00017c aaa8
00017d aeac      	.DB  0xA0,0xA2,0xA4,0xA6,0xA8,0xAA,0xAC,0xAE
00017e b2b0
00017f b6b4
000180 bab8
000181 bebc      	.DB  0xB0,0xB2,0xB4,0xB6,0xB8,0xBA,0xBC,0xBE
000182 c2c0
000183 c6c4
000184 cac8
000185 cecc      	.DB  0xC0,0xC2,0xC4,0xC6,0xC8,0xCA,0xCC,0xCE
000186 d2d0
000187 d6d4
000188 dad8
000189 dedc      	.DB  0xD0,0xD2,0xD4,0xD6,0xD8,0xDA,0xDC,0xDE
00018a e2e0
00018b e6e4
00018c eae8
00018d eeec      	.DB  0xE0,0xE2,0xE4,0xE6,0xE8,0xEA,0xEC,0xEE
00018e f2f0
00018f f6f4
000190 faf8
000191 fefc      	.DB  0xF0,0xF2,0xF4,0xF6,0xF8,0xFA,0xFC,0xFE
000192 191b
000193 1d1f
000194 1113
000195 1517      	.DB  0x1B,0x19,0x1F,0x1D,0x13,0x11,0x17,0x15
000196 090b
000197 0d0f
000198 0103
000199 0507      	.DB  0xB,0x9,0xF,0xD,0x3,0x1,0x7,0x5
00019a 393b
00019b 3d3f
00019c 3133
00019d 3537      	.DB  0x3B,0x39,0x3F,0x3D,0x33,0x31,0x37,0x35
00019e 292b
00019f 2d2f
0001a0 2123
0001a1 2527      	.DB  0x2B,0x29,0x2F,0x2D,0x23,0x21,0x27,0x25
0001a2 595b
0001a3 5d5f
0001a4 5153
0001a5 5557      	.DB  0x5B,0x59,0x5F,0x5D,0x53,0x51,0x57,0x55
0001a6 494b
0001a7 4d4f
0001a8 4143
0001a9 4547      	.DB  0x4B,0x49,0x4F,0x4D,0x43,0x41,0x47,0x45
0001aa 797b
0001ab 7d7f
0001ac 7173
0001ad 7577      	.DB  0x7B,0x79,0x7F,0x7D,0x73,0x71,0x77,0x75
0001ae 696b
0001af 6d6f
0001b0 6163
0001b1 6567      	.DB  0x6B,0x69,0x6F,0x6D,0x63,0x61,0x67,0x65
0001b2 999b
0001b3 9d9f
0001b4 9193
0001b5 9597      	.DB  0x9B,0x99,0x9F,0x9D,0x93,0x91,0x97,0x95
0001b6 898b
0001b7 8d8f
0001b8 8183
0001b9 8587      	.DB  0x8B,0x89,0x8F,0x8D,0x83,0x81,0x87,0x85
0001ba b9bb
0001bb bdbf
0001bc b1b3
0001bd b5b7      	.DB  0xBB,0xB9,0xBF,0xBD,0xB3,0xB1,0xB7,0xB5
0001be a9ab
0001bf adaf
0001c0 a1a3
0001c1 a5a7      	.DB  0xAB,0xA9,0xAF,0xAD,0xA3,0xA1,0xA7,0xA5
0001c2 d9db
0001c3 dddf
0001c4 d1d3
0001c5 d5d7      	.DB  0xDB,0xD9,0xDF,0xDD,0xD3,0xD1,0xD7,0xD5
0001c6 c9cb
0001c7 cdcf
0001c8 c1c3
0001c9 c5c7      	.DB  0xCB,0xC9,0xCF,0xCD,0xC3,0xC1,0xC7,0xC5
0001ca f9fb
0001cb fdff
0001cc f1f3
0001cd f5f7      	.DB  0xFB,0xF9,0xFF,0xFD,0xF3,0xF1,0xF7,0xF5
0001ce e9eb
0001cf edef
0001d0 e1e3
0001d1 e5e7      	.DB  0xEB,0xE9,0xEF,0xED,0xE3,0xE1,0xE7,0xE5
                 _x3:
0001d2 0300
0001d3 0506
0001d4 0f0c
0001d5 090a      	.DB  0x0,0x3,0x6,0x5,0xC,0xF,0xA,0x9
0001d6 1b18
0001d7 1d1e
0001d8 1714
0001d9 1112      	.DB  0x18,0x1B,0x1E,0x1D,0x14,0x17,0x12,0x11
0001da 3330
0001db 3536
0001dc 3f3c
0001dd 393a      	.DB  0x30,0x33,0x36,0x35,0x3C,0x3F,0x3A,0x39
0001de 2b28
0001df 2d2e
0001e0 2724
0001e1 2122      	.DB  0x28,0x2B,0x2E,0x2D,0x24,0x27,0x22,0x21
0001e2 6360
0001e3 6566
0001e4 6f6c
0001e5 696a      	.DB  0x60,0x63,0x66,0x65,0x6C,0x6F,0x6A,0x69
0001e6 7b78
0001e7 7d7e
0001e8 7774
0001e9 7172      	.DB  0x78,0x7B,0x7E,0x7D,0x74,0x77,0x72,0x71
0001ea 5350
0001eb 5556
0001ec 5f5c
0001ed 595a      	.DB  0x50,0x53,0x56,0x55,0x5C,0x5F,0x5A,0x59
0001ee 4b48
0001ef 4d4e
0001f0 4744
0001f1 4142      	.DB  0x48,0x4B,0x4E,0x4D,0x44,0x47,0x42,0x41
0001f2 c3c0
0001f3 c5c6
0001f4 cfcc
0001f5 c9ca      	.DB  0xC0,0xC3,0xC6,0xC5,0xCC,0xCF,0xCA,0xC9
0001f6 dbd8
0001f7 ddde
0001f8 d7d4
0001f9 d1d2      	.DB  0xD8,0xDB,0xDE,0xDD,0xD4,0xD7,0xD2,0xD1
0001fa f3f0
0001fb f5f6
0001fc fffc
0001fd f9fa      	.DB  0xF0,0xF3,0xF6,0xF5,0xFC,0xFF,0xFA,0xF9
0001fe ebe8
0001ff edee
000200 e7e4
000201 e1e2      	.DB  0xE8,0xEB,0xEE,0xED,0xE4,0xE7,0xE2,0xE1
000202 a3a0
000203 a5a6
000204 afac
000205 a9aa      	.DB  0xA0,0xA3,0xA6,0xA5,0xAC,0xAF,0xAA,0xA9
000206 bbb8
000207 bdbe
000208 b7b4
000209 b1b2      	.DB  0xB8,0xBB,0xBE,0xBD,0xB4,0xB7,0xB2,0xB1
00020a 9390
00020b 9596
00020c 9f9c
00020d 999a      	.DB  0x90,0x93,0x96,0x95,0x9C,0x9F,0x9A,0x99
00020e 8b88
00020f 8d8e
000210 8784
000211 8182      	.DB  0x88,0x8B,0x8E,0x8D,0x84,0x87,0x82,0x81
000212 989b
000213 9e9d
000214 9497
000215 9291      	.DB  0x9B,0x98,0x9D,0x9E,0x97,0x94,0x91,0x92
000216 8083
000217 8685
000218 8c8f
000219 8a89      	.DB  0x83,0x80,0x85,0x86,0x8F,0x8C,0x89,0x8A
00021a a8ab
00021b aead
00021c a4a7
00021d a2a1      	.DB  0xAB,0xA8,0xAD,0xAE,0xA7,0xA4,0xA1,0xA2
00021e b0b3
00021f b6b5
000220 bcbf
000221 bab9      	.DB  0xB3,0xB0,0xB5,0xB6,0xBF,0xBC,0xB9,0xBA
000222 f8fb
000223 fefd
000224 f4f7
000225 f2f1      	.DB  0xFB,0xF8,0xFD,0xFE,0xF7,0xF4,0xF1,0xF2
000226 e0e3
000227 e6e5
000228 ecef
000229 eae9      	.DB  0xE3,0xE0,0xE5,0xE6,0xEF,0xEC,0xE9,0xEA
00022a c8cb
00022b cecd
00022c c4c7
00022d c2c1      	.DB  0xCB,0xC8,0xCD,0xCE,0xC7,0xC4,0xC1,0xC2
00022e d0d3
00022f d6d5
000230 dcdf
000231 dad9      	.DB  0xD3,0xD0,0xD5,0xD6,0xDF,0xDC,0xD9,0xDA
000232 585b
000233 5e5d
000234 5457
000235 5251      	.DB  0x5B,0x58,0x5D,0x5E,0x57,0x54,0x51,0x52
000236 4043
000237 4645
000238 4c4f
000239 4a49      	.DB  0x43,0x40,0x45,0x46,0x4F,0x4C,0x49,0x4A
00023a 686b
00023b 6e6d
00023c 6467
00023d 6261      	.DB  0x6B,0x68,0x6D,0x6E,0x67,0x64,0x61,0x62
00023e 7073
00023f 7675
000240 7c7f
000241 7a79      	.DB  0x73,0x70,0x75,0x76,0x7F,0x7C,0x79,0x7A
000242 383b
000243 3e3d
000244 3437
000245 3231      	.DB  0x3B,0x38,0x3D,0x3E,0x37,0x34,0x31,0x32
000246 2023
000247 2625
000248 2c2f
000249 2a29      	.DB  0x23,0x20,0x25,0x26,0x2F,0x2C,0x29,0x2A
00024a 080b
00024b 0e0d
00024c 0407
00024d 0201      	.DB  0xB,0x8,0xD,0xE,0x7,0x4,0x1,0x2
00024e 1013
00024f 1615
000250 1c1f
000251 1a19      	.DB  0x13,0x10,0x15,0x16,0x1F,0x1C,0x19,0x1A
                 _x9:
000252 0900
000253 1b12
000254 2d24
000255 3f36      	.DB  0x0,0x9,0x12,0x1B,0x24,0x2D,0x36,0x3F
000256 4148
000257 535a
000258 656c
000259 777e      	.DB  0x48,0x41,0x5A,0x53,0x6C,0x65,0x7E,0x77
00025a 9990
00025b 8b82
00025c bdb4
00025d afa6      	.DB  0x90,0x99,0x82,0x8B,0xB4,0xBD,0xA6,0xAF
00025e d1d8
00025f c3ca
000260 f5fc
000261 e7ee      	.DB  0xD8,0xD1,0xCA,0xC3,0xFC,0xF5,0xEE,0xE7
000262 323b
000263 2029
000264 161f
000265 040d      	.DB  0x3B,0x32,0x29,0x20,0x1F,0x16,0xD,0x4
000266 7a73
000267 6861
000268 5e57
000269 4c45      	.DB  0x73,0x7A,0x61,0x68,0x57,0x5E,0x45,0x4C
00026a a2ab
00026b b0b9
00026c 868f
00026d 949d      	.DB  0xAB,0xA2,0xB9,0xB0,0x8F,0x86,0x9D,0x94
00026e eae3
00026f f8f1
000270 cec7
000271 dcd5      	.DB  0xE3,0xEA,0xF1,0xF8,0xC7,0xCE,0xD5,0xDC
000272 7f76
000273 6d64
000274 5b52
000275 4940      	.DB  0x76,0x7F,0x64,0x6D,0x52,0x5B,0x40,0x49
000276 373e
000277 252c
000278 131a
000279 0108      	.DB  0x3E,0x37,0x2C,0x25,0x1A,0x13,0x8,0x1
00027a efe6
00027b fdf4
00027c cbc2
00027d d9d0      	.DB  0xE6,0xEF,0xF4,0xFD,0xC2,0xCB,0xD0,0xD9
00027e a7ae
00027f b5bc
000280 838a
000281 9198      	.DB  0xAE,0xA7,0xBC,0xB5,0x8A,0x83,0x98,0x91
000282 444d
000283 565f
000284 6069
000285 727b      	.DB  0x4D,0x44,0x5F,0x56,0x69,0x60,0x7B,0x72
000286 0c05
000287 1e17
000288 2821
000289 3a33      	.DB  0x5,0xC,0x17,0x1E,0x21,0x28,0x33,0x3A
00028a d4dd
00028b c6cf
00028c f0f9
00028d e2eb      	.DB  0xDD,0xD4,0xCF,0xC6,0xF9,0xF0,0xEB,0xE2
00028e 9c95
00028f 8e87
000290 b8b1
000291 aaa3      	.DB  0x95,0x9C,0x87,0x8E,0xB1,0xB8,0xA3,0xAA
000292 e5ec
000293 f7fe
000294 c1c8
000295 d3da      	.DB  0xEC,0xE5,0xFE,0xF7,0xC8,0xC1,0xDA,0xD3
000296 ada4
000297 bfb6
000298 8980
000299 9b92      	.DB  0xA4,0xAD,0xB6,0xBF,0x80,0x89,0x92,0x9B
00029a 757c
00029b 676e
00029c 5158
00029d 434a      	.DB  0x7C,0x75,0x6E,0x67,0x58,0x51,0x4A,0x43
00029e 3d34
00029f 2f26
0002a0 1910
0002a1 0b02      	.DB  0x34,0x3D,0x26,0x2F,0x10,0x19,0x2,0xB
0002a2 ded7
0002a3 ccc5
0002a4 faf3
0002a5 e8e1      	.DB  0xD7,0xDE,0xC5,0xCC,0xF3,0xFA,0xE1,0xE8
0002a6 969f
0002a7 848d
0002a8 b2bb
0002a9 a0a9      	.DB  0x9F,0x96,0x8D,0x84,0xBB,0xB2,0xA9,0xA0
0002aa 4e47
0002ab 5c55
0002ac 6a63
0002ad 7871      	.DB  0x47,0x4E,0x55,0x5C,0x63,0x6A,0x71,0x78
0002ae 060f
0002af 141d
0002b0 222b
0002b1 3039      	.DB  0xF,0x6,0x1D,0x14,0x2B,0x22,0x39,0x30
0002b2 939a
0002b3 8188
0002b4 b7be
0002b5 a5ac      	.DB  0x9A,0x93,0x88,0x81,0xBE,0xB7,0xAC,0xA5
0002b6 dbd2
0002b7 c9c0
0002b8 fff6
0002b9 ede4      	.DB  0xD2,0xDB,0xC0,0xC9,0xF6,0xFF,0xE4,0xED
0002ba 030a
0002bb 1118
0002bc 272e
0002bd 353c      	.DB  0xA,0x3,0x18,0x11,0x2E,0x27,0x3C,0x35
0002be 4b42
0002bf 5950
0002c0 6f66
0002c1 7d74      	.DB  0x42,0x4B,0x50,0x59,0x66,0x6F,0x74,0x7D
0002c2 a8a1
0002c3 bab3
0002c4 8c85
0002c5 9e97      	.DB  0xA1,0xA8,0xB3,0xBA,0x85,0x8C,0x97,0x9E
0002c6 e0e9
0002c7 f2fb
0002c8 c4cd
0002c9 d6df      	.DB  0xE9,0xE0,0xFB,0xF2,0xCD,0xC4,0xDF,0xD6
0002ca 3831
0002cb 2a23
0002cc 1c15
0002cd 0e07      	.DB  0x31,0x38,0x23,0x2A,0x15,0x1C,0x7,0xE
0002ce 7079
0002cf 626b
0002d0 545d
0002d1 464f      	.DB  0x79,0x70,0x6B,0x62,0x5D,0x54,0x4F,0x46
                 _x11:
0002d2 0b00
0002d3 1d16
0002d4 272c
0002d5 313a      	.DB  0x0,0xB,0x16,0x1D,0x2C,0x27,0x3A,0x31
0002d6 5358
0002d7 454e
0002d8 7f74
0002d9 6962      	.DB  0x58,0x53,0x4E,0x45,0x74,0x7F,0x62,0x69
0002da bbb0
0002db ada6
0002dc 979c
0002dd 818a      	.DB  0xB0,0xBB,0xA6,0xAD,0x9C,0x97,0x8A,0x81
0002de e3e8
0002df f5fe
0002e0 cfc4
0002e1 d9d2      	.DB  0xE8,0xE3,0xFE,0xF5,0xC4,0xCF,0xD2,0xD9
0002e2 707b
0002e3 666d
0002e4 5c57
0002e5 4a41      	.DB  0x7B,0x70,0x6D,0x66,0x57,0x5C,0x41,0x4A
0002e6 2823
0002e7 3e35
0002e8 040f
0002e9 1219      	.DB  0x23,0x28,0x35,0x3E,0xF,0x4,0x19,0x12
0002ea c0cb
0002eb d6dd
0002ec ece7
0002ed faf1      	.DB  0xCB,0xC0,0xDD,0xD6,0xE7,0xEC,0xF1,0xFA
0002ee 9893
0002ef 8e85
0002f0 b4bf
0002f1 a2a9      	.DB  0x93,0x98,0x85,0x8E,0xBF,0xB4,0xA9,0xA2
0002f2 fdf6
0002f3 ebe0
0002f4 d1da
0002f5 c7cc      	.DB  0xF6,0xFD,0xE0,0xEB,0xDA,0xD1,0xCC,0xC7
0002f6 a5ae
0002f7 b3b8
0002f8 8982
0002f9 9f94      	.DB  0xAE,0xA5,0xB8,0xB3,0x82,0x89,0x94,0x9F
0002fa 4d46
0002fb 5b50
0002fc 616a
0002fd 777c      	.DB  0x46,0x4D,0x50,0x5B,0x6A,0x61,0x7C,0x77
0002fe 151e
0002ff 0308
000300 3932
000301 2f24      	.DB  0x1E,0x15,0x8,0x3,0x32,0x39,0x24,0x2F
000302 868d
000303 909b
000304 aaa1
000305 bcb7      	.DB  0x8D,0x86,0x9B,0x90,0xA1,0xAA,0xB7,0xBC
000306 ded5
000307 c8c3
000308 f2f9
000309 e4ef      	.DB  0xD5,0xDE,0xC3,0xC8,0xF9,0xF2,0xEF,0xE4
00030a 363d
00030b 202b
00030c 1a11
00030d 0c07      	.DB  0x3D,0x36,0x2B,0x20,0x11,0x1A,0x7,0xC
00030e 6e65
00030f 7873
000310 4249
000311 545f      	.DB  0x65,0x6E,0x73,0x78,0x49,0x42,0x5F,0x54
000312 fcf7
000313 eae1
000314 d0db
000315 c6cd      	.DB  0xF7,0xFC,0xE1,0xEA,0xDB,0xD0,0xCD,0xC6
000316 a4af
000317 b2b9
000318 8883
000319 9e95      	.DB  0xAF,0xA4,0xB9,0xB2,0x83,0x88,0x95,0x9E
00031a 4c47
00031b 5a51
00031c 606b
00031d 767d      	.DB  0x47,0x4C,0x51,0x5A,0x6B,0x60,0x7D,0x76
00031e 141f
00031f 0209
000320 3833
000321 2e25      	.DB  0x1F,0x14,0x9,0x2,0x33,0x38,0x25,0x2E
000322 878c
000323 919a
000324 aba0
000325 bdb6      	.DB  0x8C,0x87,0x9A,0x91,0xA0,0xAB,0xB6,0xBD
000326 dfd4
000327 c9c2
000328 f3f8
000329 e5ee      	.DB  0xD4,0xDF,0xC2,0xC9,0xF8,0xF3,0xEE,0xE5
00032a 373c
00032b 212a
00032c 1b10
00032d 0d06      	.DB  0x3C,0x37,0x2A,0x21,0x10,0x1B,0x6,0xD
00032e 6f64
00032f 7972
000330 4348
000331 555e      	.DB  0x64,0x6F,0x72,0x79,0x48,0x43,0x5E,0x55
000332 0a01
000333 1c17
000334 262d
000335 303b      	.DB  0x1,0xA,0x17,0x1C,0x2D,0x26,0x3B,0x30
000336 5259
000337 444f
000338 7e75
000339 6863      	.DB  0x59,0x52,0x4F,0x44,0x75,0x7E,0x63,0x68
00033a bab1
00033b aca7
00033c 969d
00033d 808b      	.DB  0xB1,0xBA,0xA7,0xAC,0x9D,0x96,0x8B,0x80
00033e e2e9
00033f f4ff
000340 cec5
000341 d8d3      	.DB  0xE9,0xE2,0xFF,0xF4,0xC5,0xCE,0xD3,0xD8
000342 717a
000343 676c
000344 5d56
000345 4b40      	.DB  0x7A,0x71,0x6C,0x67,0x56,0x5D,0x40,0x4B
000346 2922
000347 3f34
000348 050e
000349 1318      	.DB  0x22,0x29,0x34,0x3F,0xE,0x5,0x18,0x13
00034a c1ca
00034b d7dc
00034c ede6
00034d fbf0      	.DB  0xCA,0xC1,0xDC,0xD7,0xE6,0xED,0xF0,0xFB
00034e 9992
00034f 8f84
000350 b5be
000351 a3a8      	.DB  0x92,0x99,0x84,0x8F,0xBE,0xB5,0xA8,0xA3
                 _x13:
000352 0d00
000353 171a
000354 3934
000355 232e      	.DB  0x0,0xD,0x1A,0x17,0x34,0x39,0x2E,0x23
000356 6568
000357 7f72
000358 515c
000359 4b46      	.DB  0x68,0x65,0x72,0x7F,0x5C,0x51,0x46,0x4B
00035a ddd0
00035b c7ca
00035c e9e4
00035d f3fe      	.DB  0xD0,0xDD,0xCA,0xC7,0xE4,0xE9,0xFE,0xF3
00035e b5b8
00035f afa2
000360 818c
000361 9b96      	.DB  0xB8,0xB5,0xA2,0xAF,0x8C,0x81,0x96,0x9B
000362 b6bb
000363 aca1
000364 828f
000365 9895      	.DB  0xBB,0xB6,0xA1,0xAC,0x8F,0x82,0x95,0x98
000366 ded3
000367 c4c9
000368 eae7
000369 f0fd      	.DB  0xD3,0xDE,0xC9,0xC4,0xE7,0xEA,0xFD,0xF0
00036a 666b
00036b 7c71
00036c 525f
00036d 4845      	.DB  0x6B,0x66,0x71,0x7C,0x5F,0x52,0x45,0x48
00036e 0e03
00036f 1419
000370 3a37
000371 202d      	.DB  0x3,0xE,0x19,0x14,0x37,0x3A,0x2D,0x20
000372 606d
000373 7a77
000374 5459
000375 4e43      	.DB  0x6D,0x60,0x77,0x7A,0x59,0x54,0x43,0x4E
000376 0805
000377 121f
000378 3c31
000379 262b      	.DB  0x5,0x8,0x1F,0x12,0x31,0x3C,0x2B,0x26
00037a b0bd
00037b aaa7
00037c 8489
00037d 9e93      	.DB  0xBD,0xB0,0xA7,0xAA,0x89,0x84,0x93,0x9E
00037e d8d5
00037f c2cf
000380 ece1
000381 f6fb      	.DB  0xD5,0xD8,0xCF,0xC2,0xE1,0xEC,0xFB,0xF6
000382 dbd6
000383 c1cc
000384 efe2
000385 f5f8      	.DB  0xD6,0xDB,0xCC,0xC1,0xE2,0xEF,0xF8,0xF5
000386 b3be
000387 a9a4
000388 878a
000389 9d90      	.DB  0xBE,0xB3,0xA4,0xA9,0x8A,0x87,0x90,0x9D
00038a 0b06
00038b 111c
00038c 3f32
00038d 2528      	.DB  0x6,0xB,0x1C,0x11,0x32,0x3F,0x28,0x25
00038e 636e
00038f 7974
000390 575a
000391 4d40      	.DB  0x6E,0x63,0x74,0x79,0x5A,0x57,0x40,0x4D
000392 d7da
000393 cdc0
000394 e3ee
000395 f9f4      	.DB  0xDA,0xD7,0xC0,0xCD,0xEE,0xE3,0xF4,0xF9
000396 bfb2
000397 a5a8
000398 8b86
000399 919c      	.DB  0xB2,0xBF,0xA8,0xA5,0x86,0x8B,0x9C,0x91
00039a 070a
00039b 1d10
00039c 333e
00039d 2924      	.DB  0xA,0x7,0x10,0x1D,0x3E,0x33,0x24,0x29
00039e 6f62
00039f 7578
0003a0 5b56
0003a1 414c      	.DB  0x62,0x6F,0x78,0x75,0x56,0x5B,0x4C,0x41
0003a2 6c61
0003a3 767b
0003a4 5855
0003a5 424f      	.DB  0x61,0x6C,0x7B,0x76,0x55,0x58,0x4F,0x42
0003a6 0409
0003a7 1e13
0003a8 303d
0003a9 2a27      	.DB  0x9,0x4,0x13,0x1E,0x3D,0x30,0x27,0x2A
0003aa bcb1
0003ab a6ab
0003ac 8885
0003ad 929f      	.DB  0xB1,0xBC,0xAB,0xA6,0x85,0x88,0x9F,0x92
0003ae d4d9
0003af cec3
0003b0 e0ed
0003b1 faf7      	.DB  0xD9,0xD4,0xC3,0xCE,0xED,0xE0,0xF7,0xFA
0003b2 bab7
0003b3 a0ad
0003b4 8e83
0003b5 9499      	.DB  0xB7,0xBA,0xAD,0xA0,0x83,0x8E,0x99,0x94
0003b6 d2df
0003b7 c8c5
0003b8 e6eb
0003b9 fcf1      	.DB  0xDF,0xD2,0xC5,0xC8,0xEB,0xE6,0xF1,0xFC
0003ba 6a67
0003bb 707d
0003bc 5e53
0003bd 4449      	.DB  0x67,0x6A,0x7D,0x70,0x53,0x5E,0x49,0x44
0003be 020f
0003bf 1815
0003c0 363b
0003c1 2c21      	.DB  0xF,0x2,0x15,0x18,0x3B,0x36,0x21,0x2C
0003c2 010c
0003c3 1b16
0003c4 3538
0003c5 2f22      	.DB  0xC,0x1,0x16,0x1B,0x38,0x35,0x22,0x2F
0003c6 6964
0003c7 737e
0003c8 5d50
0003c9 474a      	.DB  0x64,0x69,0x7E,0x73,0x50,0x5D,0x4A,0x47
0003ca d1dc
0003cb cbc6
0003cc e5e8
0003cd fff2      	.DB  0xDC,0xD1,0xC6,0xCB,0xE8,0xE5,0xF2,0xFF
0003ce b9b4
0003cf a3ae
0003d0 8d80
0003d1 979a      	.DB  0xB4,0xB9,0xAE,0xA3,0x80,0x8D,0x9A,0x97
                 _x14:
0003d2 0e00
0003d3 121c
0003d4 3638
0003d5 2a24      	.DB  0x0,0xE,0x1C,0x12,0x38,0x36,0x24,0x2A
0003d6 7e70
0003d7 626c
0003d8 4648
0003d9 5a54      	.DB  0x70,0x7E,0x6C,0x62,0x48,0x46,0x54,0x5A
0003da eee0
0003db f2fc
0003dc d6d8
0003dd cac4      	.DB  0xE0,0xEE,0xFC,0xF2,0xD8,0xD6,0xC4,0xCA
0003de 9e90
0003df 828c
0003e0 a6a8
0003e1 bab4      	.DB  0x90,0x9E,0x8C,0x82,0xA8,0xA6,0xB4,0xBA
0003e2 d5db
0003e3 c9c7
0003e4 ede3
0003e5 f1ff      	.DB  0xDB,0xD5,0xC7,0xC9,0xE3,0xED,0xFF,0xF1
0003e6 a5ab
0003e7 b9b7
0003e8 9d93
0003e9 818f      	.DB  0xAB,0xA5,0xB7,0xB9,0x93,0x9D,0x8F,0x81
0003ea 353b
0003eb 2927
0003ec 0d03
0003ed 111f      	.DB  0x3B,0x35,0x27,0x29,0x3,0xD,0x1F,0x11
0003ee 454b
0003ef 5957
0003f0 7d73
0003f1 616f      	.DB  0x4B,0x45,0x57,0x59,0x73,0x7D,0x6F,0x61
0003f2 a3ad
0003f3 bfb1
0003f4 9b95
0003f5 8789      	.DB  0xAD,0xA3,0xB1,0xBF,0x95,0x9B,0x89,0x87
0003f6 d3dd
0003f7 cfc1
0003f8 ebe5
0003f9 f7f9      	.DB  0xDD,0xD3,0xC1,0xCF,0xE5,0xEB,0xF9,0xF7
0003fa 434d
0003fb 5f51
0003fc 7b75
0003fd 6769      	.DB  0x4D,0x43,0x51,0x5F,0x75,0x7B,0x69,0x67
0003fe 333d
0003ff 2f21
000400 0b05
000401 1719      	.DB  0x3D,0x33,0x21,0x2F,0x5,0xB,0x19,0x17
000402 7876
000403 646a
000404 404e
000405 5c52      	.DB  0x76,0x78,0x6A,0x64,0x4E,0x40,0x52,0x5C
000406 0806
000407 141a
000408 303e
000409 2c22      	.DB  0x6,0x8,0x1A,0x14,0x3E,0x30,0x22,0x2C
00040a 9896
00040b 848a
00040c a0ae
00040d bcb2      	.DB  0x96,0x98,0x8A,0x84,0xAE,0xA0,0xB2,0xBC
00040e e8e6
00040f f4fa
000410 d0de
000411 ccc2      	.DB  0xE6,0xE8,0xFA,0xF4,0xDE,0xD0,0xC2,0xCC
000412 4f41
000413 535d
000414 7779
000415 6b65      	.DB  0x41,0x4F,0x5D,0x53,0x79,0x77,0x65,0x6B
000416 3f31
000417 232d
000418 0709
000419 1b15      	.DB  0x31,0x3F,0x2D,0x23,0x9,0x7,0x15,0x1B
00041a afa1
00041b b3bd
00041c 9799
00041d 8b85      	.DB  0xA1,0xAF,0xBD,0xB3,0x99,0x97,0x85,0x8B
00041e dfd1
00041f c3cd
000420 e7e9
000421 fbf5      	.DB  0xD1,0xDF,0xCD,0xC3,0xE9,0xE7,0xF5,0xFB
000422 949a
000423 8886
000424 aca2
000425 b0be      	.DB  0x9A,0x94,0x86,0x88,0xA2,0xAC,0xBE,0xB0
000426 e4ea
000427 f8f6
000428 dcd2
000429 c0ce      	.DB  0xEA,0xE4,0xF6,0xF8,0xD2,0xDC,0xCE,0xC0
00042a 747a
00042b 6866
00042c 4c42
00042d 505e      	.DB  0x7A,0x74,0x66,0x68,0x42,0x4C,0x5E,0x50
00042e 040a
00042f 1816
000430 3c32
000431 202e      	.DB  0xA,0x4,0x16,0x18,0x32,0x3C,0x2E,0x20
000432 e2ec
000433 fef0
000434 dad4
000435 c6c8      	.DB  0xEC,0xE2,0xF0,0xFE,0xD4,0xDA,0xC8,0xC6
000436 929c
000437 8e80
000438 aaa4
000439 b6b8      	.DB  0x9C,0x92,0x80,0x8E,0xA4,0xAA,0xB8,0xB6
00043a 020c
00043b 1e10
00043c 3a34
00043d 2628      	.DB  0xC,0x2,0x10,0x1E,0x34,0x3A,0x28,0x26
00043e 727c
00043f 6e60
000440 4a44
000441 5658      	.DB  0x7C,0x72,0x60,0x6E,0x44,0x4A,0x58,0x56
000442 3937
000443 252b
000444 010f
000445 1d13      	.DB  0x37,0x39,0x2B,0x25,0xF,0x1,0x13,0x1D
000446 4947
000447 555b
000448 717f
000449 6d63      	.DB  0x47,0x49,0x5B,0x55,0x7F,0x71,0x63,0x6D
00044a d9d7
00044b c5cb
00044c e1ef
00044d fdf3      	.DB  0xD7,0xD9,0xCB,0xC5,0xEF,0xE1,0xF3,0xFD
00044e a9a7
00044f b5bb
000450 919f
000451 8d83      	.DB  0xA7,0xA9,0xBB,0xB5,0x9F,0x91,0x83,0x8D
                 _k1:
000452 2220
000453 2b2a
000454 5b2c
000455 5d3d      	.DB  0x20,0x22,0x2A,0x2B,0x2C,0x5B,0x3D,0x5D
000456 7f7c
Y:\Google Drive\ITESM\6.Cuarto Semestre\Arquitectura de Computadoras\FINAL\Debug\List\AES_128.asm(1408): warning: .cseg .db misalignment - padding zero byte
000457 0000      	.DB  0x7C,0x7F,0x0
                 _vst_G101:
000458 0400
000459 0200
00045a 0100
00045b 0080      	.DB  0x0,0x4,0x0,0x2,0x0,0x1,0x80,0x0
00045c 0040
00045d 0020
00045e 0010
00045f 0008      	.DB  0x40,0x0,0x20,0x0,0x10,0x0,0x8,0x0
000460 0004
000461 0002
000462 0000      	.DB  0x4,0x0,0x2,0x0,0x0,0x0
                 _cst_G101:
000463 8000
000464 4000
000465 2000
000466 1000      	.DB  0x0,0x80,0x0,0x40,0x0,0x20,0x0,0x10
000467 0800
000468 4000
000469 2000
00046a 1000      	.DB  0x0,0x8,0x0,0x40,0x0,0x20,0x0,0x10
00046b 0800
00046c 0400
00046d 0200      	.DB  0x0,0x8,0x0,0x4,0x0,0x2
                 _tbl10_G102:
00046e 2710
00046f 03e8
000470 0064
000471 000a      	.DB  0x10,0x27,0xE8,0x3,0x64,0x0,0xA,0x0
000472 0001      	.DB  0x1,0x0
                 _tbl16_G102:
000473 1000
000474 0100
000475 0010
000476 0001      	.DB  0x0,0x10,0x0,0x1,0x10,0x0,0x1,0x0
                 
                 _0x3:
000477 0303
000478 0203
000479 0c02
00047a 0800      	.DB  0x3,0x3,0x3,0x2,0x2,0xC,0x0,0x8
00047b 0100
00047c 0600      	.DB  0x0,0x1,0x0,0x6
                 _0x0:
00047d 5942
00047e 4554
00047f 2f53
000480 4942      	.DB  0x42,0x59,0x54,0x45,0x53,0x2F,0x42,0x49
000481 5354
000482 5020
000483 524f
000484 4420      	.DB  0x54,0x53,0x20,0x50,0x4F,0x52,0x20,0x44
000485 4345
000486 4649
000487 4152
000488 3a52      	.DB  0x45,0x43,0x49,0x46,0x52,0x41,0x52,0x3A
000489 2520
00048a 2f69
00048b 6925
00048c 000a      	.DB  0x20,0x25,0x69,0x2F,0x25,0x69,0xA,0x0
00048d 554e
00048e 454d
00048f 4f52
000490 4420      	.DB  0x4E,0x55,0x4D,0x45,0x52,0x4F,0x20,0x44
000491 2045
000492 4c42
000493 514f
000494 4555      	.DB  0x45,0x20,0x42,0x4C,0x4F,0x51,0x55,0x45
000495 3a53
000496 2520
000497 0a69
000498 4200      	.DB  0x53,0x3A,0x20,0x25,0x69,0xA,0x0,0x42
000499 4f4c
00049a 4b43
00049b 2520
00049c 2f69      	.DB  0x4C,0x4F,0x43,0x4B,0x20,0x25,0x69,0x2F
00049d 7525
00049e 4d00
00049f 554f
0004a0 544e      	.DB  0x25,0x75,0x0,0x4D,0x4F,0x55,0x4E,0x54
0004a1 4e49
0004a2 0047
0004a3 5244
0004a4 5649      	.DB  0x49,0x4E,0x47,0x0,0x44,0x52,0x49,0x56
0004a5 2045
0004a6 4f46
0004a7 4e55
0004a8 2144      	.DB  0x45,0x20,0x46,0x4F,0x55,0x4E,0x44,0x21
0004a9 5700
0004aa 4c45
0004ab 4f43
0004ac 454d      	.DB  0x0,0x57,0x45,0x4C,0x43,0x4F,0x4D,0x45
0004ad 0a21
0004ae 4843
0004af 4f4f
0004b0 4553      	.DB  0x21,0xA,0x43,0x48,0x4F,0x4F,0x53,0x45
0004b1 4120
0004b2 204e
0004b3 504f
0004b4 4954      	.DB  0x20,0x41,0x4E,0x20,0x4F,0x50,0x54,0x49
0004b5 4e4f
0004b6 4620
0004b7 4f52
0004b8 204d      	.DB  0x4F,0x4E,0x20,0x46,0x52,0x4F,0x4D,0x20
0004b9 554f
0004ba 2052
0004bb 454d
0004bc 554e      	.DB  0x4F,0x55,0x52,0x20,0x4D,0x45,0x4E,0x55
0004bd 0a0a
0004be 3100
0004bf 202e
0004c0 4943      	.DB  0xA,0xA,0x0,0x31,0x2E,0x20,0x43,0x49
0004c1 4850
0004c2 5245
0004c3 000a
0004c4 2e32      	.DB  0x50,0x48,0x45,0x52,0xA,0x0,0x32,0x2E
0004c5 4420
0004c6 4345
0004c7 5049
0004c8 4548      	.DB  0x20,0x44,0x45,0x43,0x49,0x50,0x48,0x45
0004c9 0a52
0004ca 3300
0004cb 202e
0004cc 4843      	.DB  0x52,0xA,0x0,0x33,0x2E,0x20,0x43,0x48
0004cd 4e41
0004ce 4547
0004cf 4b20
0004d0 5945      	.DB  0x41,0x4E,0x47,0x45,0x20,0x4B,0x45,0x59
0004d1 000a
0004d2 0a0a
0004d3 5954
0004d4 4550      	.DB  0xA,0x0,0xA,0xA,0x54,0x59,0x50,0x45
0004d5 4e20
0004d6 4d41
0004d7 2045
0004d8 464f      	.DB  0x20,0x4E,0x41,0x4D,0x45,0x20,0x4F,0x46
0004d9 4620
0004da 4c49
0004db 2045
0004dc 5728      	.DB  0x20,0x46,0x49,0x4C,0x45,0x20,0x28,0x57
0004dd 5449
0004de 2048
0004df 5845
0004e0 4554      	.DB  0x49,0x54,0x48,0x20,0x45,0x58,0x54,0x45
0004e1 534e
0004e2 4f49
0004e3 294e
0004e4 003a      	.DB  0x4E,0x53,0x49,0x4F,0x4E,0x29,0x3A,0x0
0004e5 0a0a
0004e6 5954
0004e7 4550
0004e8 4e20      	.DB  0xA,0xA,0x54,0x59,0x50,0x45,0x20,0x4E
0004e9 4d41
0004ea 2045
0004eb 464f
0004ec 4f20      	.DB  0x41,0x4D,0x45,0x20,0x4F,0x46,0x20,0x4F
0004ed 5455
0004ee 5550
0004ef 2054
0004f0 4946      	.DB  0x55,0x54,0x50,0x55,0x54,0x20,0x46,0x49
0004f1 454c
0004f2 2820
0004f3 4957
0004f4 4854      	.DB  0x4C,0x45,0x20,0x28,0x57,0x49,0x54,0x48
0004f5 554f
0004f6 2054
0004f7 5845
0004f8 4554      	.DB  0x4F,0x55,0x54,0x20,0x45,0x58,0x54,0x45
0004f9 534e
0004fa 4f49
0004fb 294e
0004fc 003a      	.DB  0x4E,0x53,0x49,0x4F,0x4E,0x29,0x3A,0x0
0004fd 612e
0004fe 7365
0004ff 5200
000500 4145      	.DB  0x2E,0x61,0x65,0x73,0x0,0x52,0x45,0x41
000501 4944
000502 474e
000503 2e2e
000504 002e      	.DB  0x44,0x49,0x4E,0x47,0x2E,0x2E,0x2E,0x0
000505 5250
000506 434f
000507 5345
000508 4953      	.DB  0x50,0x52,0x4F,0x43,0x45,0x53,0x53,0x49
000509 474e
00050a 2e2e
00050b 002e
00050c 4c42      	.DB  0x4E,0x47,0x2E,0x2E,0x2E,0x0,0x42,0x4C
00050d 434f
00050e 204b
00050f 6925
000510 4200      	.DB  0x4F,0x43,0x4B,0x20,0x25,0x69,0x0,0x42
000511 5459
000512 5345
000513 422f
000514 5449      	.DB  0x59,0x54,0x45,0x53,0x2F,0x42,0x49,0x54
000515 2053
000516 5943
000517 4850
000518 5245      	.DB  0x53,0x20,0x43,0x59,0x50,0x48,0x45,0x52
000519 4445
00051a 203a
00051b 6925
00051c 252f      	.DB  0x45,0x44,0x3A,0x20,0x25,0x69,0x2F,0x25
00051d 0a69
00051e 4e00
00051f 4d55
000520 4542      	.DB  0x69,0xA,0x0,0x4E,0x55,0x4D,0x42,0x45
000521 2052
000522 464f
000523 4220
000524 4f4c      	.DB  0x52,0x20,0x4F,0x46,0x20,0x42,0x4C,0x4F
000525 4b43
000526 3a53
000527 2520
000528 0a69      	.DB  0x43,0x4B,0x53,0x3A,0x20,0x25,0x69,0xA
000529 5400
00052a 544f
00052b 4c41
00052c 5420      	.DB  0x0,0x54,0x4F,0x54,0x41,0x4C,0x20,0x54
00052d 4d49
00052e 3a45
00052f 2520
000530 0a66      	.DB  0x49,0x4D,0x45,0x3A,0x20,0x25,0x66,0xA
000531 4300
000532 5059
000533 4548
000534 2052      	.DB  0x0,0x43,0x59,0x50,0x48,0x45,0x52,0x20
000535 4954
000536 454d
000537 203a
000538 6625      	.DB  0x54,0x49,0x4D,0x45,0x3A,0x20,0x25,0x66
000539 000a
00053a 4946
00053b 454c
00053c 5320      	.DB  0xA,0x0,0x46,0x49,0x4C,0x45,0x20,0x53
00053d 5641
00053e 4445
00053f 4600
000540 4c49      	.DB  0x41,0x56,0x45,0x44,0x0,0x46,0x49,0x4C
000541 2045
000542 4f4e
000543 2054
000544 4f46      	.DB  0x45,0x20,0x4E,0x4F,0x54,0x20,0x46,0x4F
000545 4e55
000546 0044
000547 0a0a
000548 5954      	.DB  0x55,0x4E,0x44,0x0,0xA,0xA,0x54,0x59
000549 4550
00054a 4e20
00054b 4d41
00054c 2045      	.DB  0x50,0x45,0x20,0x4E,0x41,0x4D,0x45,0x20
00054d 464f
00054e 4620
00054f 4c49
000550 2045      	.DB  0x4F,0x46,0x20,0x46,0x49,0x4C,0x45,0x20
000551 5728
000552 5449
000553 4f48
000554 5455      	.DB  0x28,0x57,0x49,0x54,0x48,0x4F,0x55,0x54
000555 4520
000556 5458
000557 4e45
000558 4953      	.DB  0x20,0x45,0x58,0x54,0x45,0x4E,0x53,0x49
000559 4e4f
00055a 0029
00055b 5257
00055c 4e4f      	.DB  0x4F,0x4E,0x29,0x0,0x57,0x52,0x4F,0x4E
00055d 2047
00055e 4e49
00055f 5550
000560 0054      	.DB  0x47,0x20,0x49,0x4E,0x50,0x55,0x54,0x0
000561 4557
000562 434c
000563 4d4f
000564 2145      	.DB  0x57,0x45,0x4C,0x43,0x4F,0x4D,0x45,0x21
000565 200a
000566 4c50
000567 4145
000568 4553      	.DB  0xA,0x20,0x50,0x4C,0x45,0x41,0x53,0x45
000569 4520
00056a 544e
00056b 5245
00056c 5420      	.DB  0x20,0x45,0x4E,0x54,0x45,0x52,0x20,0x54
00056d 4548
00056e 4e20
00056f 4d41
000570 2045      	.DB  0x48,0x45,0x20,0x4E,0x41,0x4D,0x45,0x20
000571 464f
000572 5420
000573 4548
000574 4620      	.DB  0x4F,0x46,0x20,0x54,0x48,0x45,0x20,0x46
000575 4c49
000576 2045
000577 4957
000578 4854      	.DB  0x49,0x4C,0x45,0x20,0x57,0x49,0x54,0x48
000579 5420
00057a 4548
00057b 4b20
00057c 5945      	.DB  0x20,0x54,0x48,0x45,0x20,0x4B,0x45,0x59
00057d 2820
00057e 742e
00057f 7478
000580 4e20      	.DB  0x20,0x28,0x2E,0x74,0x78,0x74,0x20,0x4E
000581 204f
000582 5845
000583 4554
000584 534e      	.DB  0x4F,0x20,0x45,0x58,0x54,0x45,0x4E,0x53
000585 4f49
000586 294e
000587 0a0a
000588 2e00      	.DB  0x49,0x4F,0x4E,0x29,0xA,0xA,0x0,0x2E
000589 7874
00058a 0074
00058b 4946
00058c 454c      	.DB  0x74,0x78,0x74,0x0,0x46,0x49,0x4C,0x45
00058d 4620
00058e 554f
00058f 444e
000590 5200      	.DB  0x20,0x46,0x4F,0x55,0x4E,0x44,0x0,0x52
000591 4145
000592 4944
000593 474e
000594 2020      	.DB  0x45,0x41,0x44,0x49,0x4E,0x47,0x20,0x20
000595 2e2e
000596 002e
000597 454b
000598 2059      	.DB  0x2E,0x2E,0x2E,0x0,0x4B,0x45,0x59,0x20
000599 4552
00059a 4441
00059b 4400
00059c 4952      	.DB  0x52,0x45,0x41,0x44,0x0,0x44,0x52,0x49
00059d 4556
00059e 4e20
00059f 544f
0005a0 4620      	.DB  0x56,0x45,0x20,0x4E,0x4F,0x54,0x20,0x46
0005a1 554f
0005a2 444e
Y:\Google Drive\ITESM\6.Cuarto Semestre\Arquitectura de Computadoras\FINAL\Debug\List\AES_128.asm(1500): warning: .cseg .db misalignment - padding zero byte
0005a3 0000      	.DB  0x4F,0x55,0x4E,0x44,0x0
                 _0x2000003:
Y:\Google Drive\ITESM\6.Cuarto Semestre\Arquitectura de Computadoras\FINAL\Debug\List\AES_128.asm(1502): warning: .cseg .db misalignment - padding zero byte
0005a4 0001      	.DB  0x1
                 _0x20000FE:
Y:\Google Drive\ITESM\6.Cuarto Semestre\Arquitectura de Computadoras\FINAL\Debug\List\AES_128.asm(1504): warning: .cseg .db misalignment - padding zero byte
0005a5 0004      	.DB  0x4
                 _0x2020000:
0005a6 feeb
0005a7 4d90
0005a8 4453
0005a9 534f      	.DB  0xEB,0xFE,0x90,0x4D,0x53,0x44,0x4F,0x53
0005aa 2e35
0005ab 0030
0005ac 4f4e
0005ad 4e20      	.DB  0x35,0x2E,0x30,0x0,0x4E,0x4F,0x20,0x4E
0005ae 4d41
0005af 2045
0005b0 2020
0005b1 4620      	.DB  0x41,0x4D,0x45,0x20,0x20,0x20,0x20,0x46
0005b2 5441
0005b3 3233
0005b4 2020
0005b5 0020      	.DB  0x41,0x54,0x33,0x32,0x20,0x20,0x20,0x0
0005b6 4f4e
0005b7 4e20
0005b8 4d41
0005b9 2045      	.DB  0x4E,0x4F,0x20,0x4E,0x41,0x4D,0x45,0x20
0005ba 2020
0005bb 4620
0005bc 5441
0005bd 2020      	.DB  0x20,0x20,0x20,0x46,0x41,0x54,0x20,0x20
0005be 2020
0005bf 0020      	.DB  0x20,0x20,0x20,0x0
                 
                 __GLOBAL_INI_TBL:
0005c0 002a      	.DW  0x2A
0005c1 0900      	.DW  _0x8A
0005c2 0953      	.DW  _0x0*2+89
                 
0005c3 000b      	.DW  0x0B
0005c4 092a      	.DW  _0x8A+42
0005c5 097d      	.DW  _0x0*2+131
                 
0005c6 000d      	.DW  0x0D
0005c7 0935      	.DW  _0x8A+53
0005c8 0988      	.DW  _0x0*2+142
                 
0005c9 000f      	.DW  0x0F
0005ca 0942      	.DW  _0x8A+66
0005cb 0995      	.DW  _0x0*2+155
                 
0005cc 0026      	.DW  0x26
0005cd 0951      	.DW  _0x8A+81
0005ce 09a4      	.DW  _0x0*2+170
                 
0005cf 0030      	.DW  0x30
0005d0 0977      	.DW  _0x8A+119
0005d1 09ca      	.DW  _0x0*2+208
                 
0005d2 0005      	.DW  0x05
0005d3 09a7      	.DW  _0x8A+167
0005d4 09fa      	.DW  _0x0*2+256
                 
0005d5 0028      	.DW  0x28
0005d6 09ac      	.DW  _0x8A+172
0005d7 0a8e      	.DW  _0x0*2+404
                 
0005d8 000c      	.DW  0x0C
0005d9 09d4      	.DW  _0x8A+212
0005da 0ab6      	.DW  _0x0*2+444
                 
0005db 004f      	.DW  0x4F
0005dc 09e0      	.DW  _0x8A+224
0005dd 0ac2      	.DW  _0x0*2+456
                 
0005de 0005      	.DW  0x05
0005df 0a2f      	.DW  _0x8A+303
0005e0 0b11      	.DW  _0x0*2+535
                 
0005e1 0001      	.DW  0x01
0005e2 0f4a      	.DW  _status_G100
0005e3 0b48      	.DW  _0x2000003*2
                 
0005e4 0001      	.DW  0x01
0005e5 0f4e      	.DW  _flags_S100000C000
0005e6 0b4a      	.DW  _0x20000FE*2
                 
                 _0xFFFFFFFF:
0005e7 0000      	.DW  0
                 
                 #define __GLOBAL_INI_TBL_PRESENT 1
                 
                 __RESET:
0005e8 94f8      	CLI
0005e9 27ee      	CLR  R30
0005ea bbef      	OUT  EECR,R30
                 
                 ;INTERRUPT VECTORS ARE PLACED
                 ;AT THE START OF FLASH
0005eb e0f1      	LDI  R31,1
0005ec bff5      	OUT  MCUCR,R31
0005ed bfe5      	OUT  MCUCR,R30
                 
                 ;CLEAR R2-R14
0005ee e08d      	LDI  R24,(14-2)+1
0005ef e0a2      	LDI  R26,2
0005f0 27bb      	CLR  R27
                 __CLEAR_REG:
0005f1 93ed      	ST   X+,R30
0005f2 958a      	DEC  R24
0005f3 f7e9      	BRNE __CLEAR_REG
                 
                 ;CLEAR SRAM
0005f4 e080      	LDI  R24,LOW(__CLEAR_SRAM_SIZE)
0005f5 e290      	LDI  R25,HIGH(__CLEAR_SRAM_SIZE)
0005f6 e0a0      	LDI  R26,LOW(__SRAM_START)
0005f7 e0b1      	LDI  R27,HIGH(__SRAM_START)
                 __CLEAR_SRAM:
0005f8 93ed      	ST   X+,R30
0005f9 9701      	SBIW R24,1
0005fa f7e9      	BRNE __CLEAR_SRAM
                 
                 ;GLOBAL VARIABLES INITIALIZATION
0005fb e8e0      	LDI  R30,LOW(__GLOBAL_INI_TBL*2)
0005fc e0fb      	LDI  R31,HIGH(__GLOBAL_INI_TBL*2)
                 __GLOBAL_INI_NEXT:
0005fd 9185      	LPM  R24,Z+
0005fe 9195      	LPM  R25,Z+
0005ff 9700      	SBIW R24,0
000600 f061      	BREQ __GLOBAL_INI_END
000601 91a5      	LPM  R26,Z+
000602 91b5      	LPM  R27,Z+
000603 9005      	LPM  R0,Z+
000604 9015      	LPM  R1,Z+
000605 01bf      	MOVW R22,R30
000606 01f0      	MOVW R30,R0
                 __GLOBAL_INI_LOOP:
000607 9005      	LPM  R0,Z+
000608 920d      	ST   X+,R0
000609 9701      	SBIW R24,1
00060a f7e1      	BRNE __GLOBAL_INI_LOOP
00060b 01fb      	MOVW R30,R22
00060c cff0      	RJMP __GLOBAL_INI_NEXT
                 __GLOBAL_INI_END:
                 
00060d bf8b      	OUT  RAMPZ,R24
                 
                 ;GPIOR0 INITIALIZATION
00060e e0e0      	LDI  R30,__GPIOR0_INIT
00060f bbee      	OUT  GPIOR0,R30
                 
                 ;HARDWARE STACK POINTER INITIALIZATION
000610 efef      	LDI  R30,LOW(__SRAM_END-__HEAP_SIZE)
000611 bfed      	OUT  SPL,R30
000612 e2e0      	LDI  R30,HIGH(__SRAM_END-__HEAP_SIZE)
000613 bfee      	OUT  SPH,R30
                 
                 ;DATA STACK POINTER INITIALIZATION
000614 e0c0      	LDI  R28,LOW(__SRAM_START+__DSTACK_SIZE)
000615 e0d9      	LDI  R29,HIGH(__SRAM_START+__DSTACK_SIZE)
                 
000616 940c 096e 	JMP  _main
                 
                 	.ESEG
                 	.ORG 0
                 
                 	.DSEG
                 	.ORG 0x900
                 
                 	.CSEG
                 ;/*
                 ; * AES_128.c
                 ; *
                 ; * Created: 12/3/2017 6:33:24 PM
                 ; * Author: Juanpi
                 ; */
                 ;
                 ;#include <io.h>
                 	#ifndef __SLEEP_DEFINED__
                 	#define __SLEEP_DEFINED__
                 	.EQU __se_bit=0x01
                 	.EQU __sm_mask=0x0E
                 	.EQU __sm_powerdown=0x04
                 	.EQU __sm_powersave=0x06
                 	.EQU __sm_standby=0x0C
                 	.EQU __sm_ext_standby=0x0E
                 	.EQU __sm_adc_noise_red=0x02
                 	.SET power_ctrl_reg=smcr
                 	#endif
                 ;#include <stdio.h>
                 ;#include <string.h>
                 ;#include <delay.h>
                 ;#include <ff.h>
                 ;#include "display.h"
                 
                 	.CSEG
                 _SetupLCD:
                 ; .FSTART _SetupLCD
000618 972c      	SBIW R28,12
000619 e08c      	LDI  R24,12
00061a e0a0      	LDI  R26,LOW(0)
00061b e0b0      	LDI  R27,HIGH(0)
00061c eeee      	LDI  R30,LOW(_0x3*2)
00061d e0f8      	LDI  R31,HIGH(_0x3*2)
00061e 940e 2815 	CALL __INITLOCB
000620 930a      	ST   -Y,R16
                 ;	TableSetup -> Y+1
                 ;	i -> R16
                 ; 0000 000D     SBI __lcd_port-1,__lcd_EN
000621 9a84          SBI __lcd_port-1,__lcd_EN
000622 9a85          SBI __lcd_port-1,__lcd_RS
000623 9a80          SBI __lcd_port-1,__lcd_D4
000624 9a81          SBI __lcd_port-1,__lcd_D5
000625 9a82          SBI __lcd_port-1,__lcd_D6
000626 9a83          SBI __lcd_port-1,__lcd_D7
000627 e3a2      	LDI  R26,LOW(50)
000628 e0b0      	LDI  R27,0
000629 940e 262c 	CALL _delay_ms
00062b e000      	LDI  R16,LOW(0)
                 _0x5:
00062c 300c      	CPI  R16,12
00062d f458      	BRSH _0x6
00062e 940e 2122 	CALL SUBOPT_0x0
000630 2fe0      	MOV  R30,R16
000631 e0f0      	LDI  R31,0
000632 940e 2126 	CALL SUBOPT_0x1
000634 91ac      	LD   R26,X
000635 940e 212b 	CALL SUBOPT_0x2
000637 5f0f      	SUBI R16,-1
000638 cff3      	RJMP _0x5
                 _0x6:
000639 e0ec      	LDI  R30,LOW(12)
00063a 93e0 0a38 	STS  _cursor,R30
00063c 91a0 0a38 	LDS  R26,_cursor
00063e d021      	RCALL _WriteComandLCD
00063f 8108      	LDD  R16,Y+0
000640 962d      	ADIW R28,13
000641 9508      	RET
                 ; .FEND
                 _PulseEn:
                 ; .FSTART _PulseEn
000642 9a8c          SBI __lcd_port,__lcd_EN  // EN=1;
000643 988c          CBI __lcd_port,__lcd_EN // EN=0;
000644 9508      	RET
                 ; .FEND
                 _SendDataBitsLCD:
                 ; .FSTART _SendDataBitsLCD
000645 93aa      	ST   -Y,R26
                 ;	dato -> Y+0
000646 81e8      	LD   R30,Y
000647 70e8      	ANDI R30,LOW(0x8)
000648 f011      	BREQ _0x7
000649 9a8b      	SBI __lcd_port,__lcd_D7
00064a c001      	RJMP _0x8
                 _0x7:
00064b 988b      	CBI __lcd_port,__lcd_D7
                 _0x8:
00064c 81e8      	LD   R30,Y
00064d 70e4      	ANDI R30,LOW(0x4)
00064e f011      	BREQ _0x9
00064f 9a8a      	SBI __lcd_port,__lcd_D6
000650 c001      	RJMP _0xA
                 _0x9:
000651 988a      	CBI __lcd_port,__lcd_D6
                 _0xA:
000652 81e8      	LD   R30,Y
000653 70e2      	ANDI R30,LOW(0x2)
000654 f011      	BREQ _0xB
000655 9a89      	SBI __lcd_port,__lcd_D5
000656 c001      	RJMP _0xC
                 _0xB:
000657 9889      	CBI __lcd_port,__lcd_D5
                 _0xC:
000658 81e8      	LD   R30,Y
000659 70e1      	ANDI R30,LOW(0x1)
00065a f011      	BREQ _0xD
00065b 9a88      	SBI __lcd_port,__lcd_D4
00065c c001      	RJMP _0xE
                 _0xD:
00065d 9888      	CBI __lcd_port,__lcd_D4
                 _0xE:
00065e 9621      	ADIW R28,1
00065f 9508      	RET
                 ; .FEND
                 _WriteComandLCD:
                 ; .FSTART _WriteComandLCD
000660 93aa      	ST   -Y,R26
000661 930a      	ST   -Y,R16
                 ;	Comando -> Y+1
                 ;	tempComando -> R16
000662 988d      	CBI __lcd_port,__lcd_RS
000663 940e 2122 	CALL SUBOPT_0x0
000665 940e 212f 	CALL SUBOPT_0x3
000667 940e 2136 	CALL SUBOPT_0x4
000669 dfd8      	RCALL _PulseEn
00066a 8108      	LDD  R16,Y+0
00066b c04b      	RJMP _0x20A001F
                 ; .FEND
                 _CharLCD:
                 ; .FSTART _CharLCD
00066c 93aa      	ST   -Y,R26
00066d 930a      	ST   -Y,R16
                 ;	dato -> Y+1
                 ;	tempdato -> R16
00066e 9a8d      	SBI __lcd_port,__lcd_RS
00066f 940e 2122 	CALL SUBOPT_0x0
000671 940e 212f 	CALL SUBOPT_0x3
000673 940e 2136 	CALL SUBOPT_0x4
000675 dfcc      	RCALL _PulseEn
000676 8108      	LDD  R16,Y+0
000677 c03f      	RJMP _0x20A001F
                 ; .FEND
                 _StringLCD:
                 ; .FSTART _StringLCD
000678 940e 213d 	CALL SUBOPT_0x5
                 ;	i -> R16
                 _0x10:
00067a 2fe0      	MOV  R30,R16
00067b 5f0f      	SUBI R16,-1
00067c 940e 2142 	CALL SUBOPT_0x6
00067e 91a4      	LPM  R26,Z
00067f dfec      	RCALL _CharLCD
000680 2fe0      	MOV  R30,R16
000681 940e 2142 	CALL SUBOPT_0x6
000683 91e4      	LPM  R30,Z
000684 30e0      	CPI  R30,0
000685 f7a1      	BRNE _0x10
000686 c12d      	RJMP _0x20A001D
                 ; .FEND
                 ;	tiempo -> Y+1
                 ;	i -> R16
                 _StringLCDVar:
                 ; .FSTART _StringLCDVar
000687 940e 213d 	CALL SUBOPT_0x5
                 ;	Mensaje -> Y+1
                 ;	i -> R16
                 _0x16:
000689 2fe0      	MOV  R30,R16
00068a 5f0f      	SUBI R16,-1
00068b 81a9      	LDD  R26,Y+1
00068c 81ba      	LDD  R27,Y+1+1
00068d e0f0      	LDI  R31,0
00068e 0fae      	ADD  R26,R30
00068f 1fbf      	ADC  R27,R31
000690 91ac      	LD   R26,X
000691 dfda      	RCALL _CharLCD
000692 940e 2148 	CALL SUBOPT_0x7
000694 30e0      	CPI  R30,0
000695 f799      	BRNE _0x16
000696 c11d      	RJMP _0x20A001D
                 ; .FEND
                 _EraseLCD:
                 ; .FSTART _EraseLCD
000697 e0a1      	LDI  R26,LOW(1)
000698 dfc7      	RCALL _WriteComandLCD
000699 9508      	RET
                 ; .FEND
                 _MoveCursor:
                 ; .FSTART _MoveCursor
00069a 93aa      	ST   -Y,R26
                 ;	x -> Y+1
                 ;	y -> Y+0
00069b 81e8      	LD   R30,Y
00069c e0f0      	LDI  R31,0
00069d 9730      	SBIW R30,0
00069e f419      	BRNE _0x1B
00069f 81a9      	LDD  R26,Y+1
0006a0 58a0      	SUBI R26,-LOW(128)
0006a1 c014      	RJMP _0xA5
                 _0x1B:
0006a2 30e1      	CPI  R30,LOW(0x1)
0006a3 e0a0      	LDI  R26,HIGH(0x1)
0006a4 07fa      	CPC  R31,R26
0006a5 f419      	BRNE _0x1C
0006a6 81a9      	LDD  R26,Y+1
0006a7 54a0      	SUBI R26,-LOW(192)
0006a8 c00d      	RJMP _0xA5
                 _0x1C:
0006a9 30e2      	CPI  R30,LOW(0x2)
0006aa e0a0      	LDI  R26,HIGH(0x2)
0006ab 07fa      	CPC  R31,R26
0006ac f419      	BRNE _0x1D
0006ad 81a9      	LDD  R26,Y+1
0006ae 56ac      	SUBI R26,-LOW(148)
0006af c006      	RJMP _0xA5
                 _0x1D:
0006b0 30e3      	CPI  R30,LOW(0x3)
0006b1 e0a0      	LDI  R26,HIGH(0x3)
0006b2 07fa      	CPC  R31,R26
0006b3 f419      	BRNE _0x1A
0006b4 81a9      	LDD  R26,Y+1
0006b5 52ac      	SUBI R26,-LOW(212)
                 _0xA5:
0006b6 dfa9      	RCALL _WriteComandLCD
                 _0x1A:
                 _0x20A001F:
0006b7 9622      	ADIW R28,2
0006b8 9508      	RET
                 ; .FEND
                 ;	NoCaracter -> Y+3
                 ;	datos -> Y+1
                 ;	i -> R16
                 ;#include "AES.h"
                 __sub_array:
                 ; .FSTART __sub_array
0006b9 93aa      	ST   -Y,R26
0006ba 930a      	ST   -Y,R16
                 ;	array -> Y+5
                 ;	*word -> Y+3
                 ;	start -> Y+2
                 ;	end -> Y+1
                 ;	i -> R16
0006bb 810a      	LDD  R16,Y+2
                 _0x23:
0006bc 81e9      	LDD  R30,Y+1
0006bd 170e      	CP   R16,R30
0006be f498      	BRSH _0x24
0006bf 2fa0      	MOV  R26,R16
0006c0 27bb      	CLR  R27
0006c1 81ea      	LDD  R30,Y+2
0006c2 e0f0      	LDI  R31,0
0006c3 940e 214f 	CALL SUBOPT_0x8
0006c5 81ab      	LDD  R26,Y+3
0006c6 81bc      	LDD  R27,Y+3+1
0006c7 0fea      	ADD  R30,R26
0006c8 1ffb      	ADC  R31,R27
0006c9 010f      	MOVW R0,R30
0006ca 81ad      	LDD  R26,Y+5
0006cb 81be      	LDD  R27,Y+5+1
0006cc 940e 2154 	CALL SUBOPT_0x9
0006ce 01d0      	MOVW R26,R0
0006cf 93ec      	ST   X,R30
0006d0 5f0f      	SUBI R16,-1
0006d1 cfea      	RJMP _0x23
                 _0x24:
0006d2 8108      	LDD  R16,Y+0
0006d3 9627      	ADIW R28,7
0006d4 9508      	RET
                 ; .FEND
                 __rotate:
                 ; .FSTART __rotate
0006d5 940e 2159 	CALL SUBOPT_0xA
                 ;	word -> Y+2
                 ;	a -> R16
                 ;	c -> R17
0006d7 81aa      	LDD  R26,Y+2
0006d8 81bb      	LDD  R27,Y+2+1
0006d9 910c      	LD   R16,X
0006da e010      	LDI  R17,LOW(0)
                 _0x26:
0006db 3013      	CPI  R17,3
0006dc f468      	BRSH _0x27
0006dd 2fe1      	MOV  R30,R17
0006de 940e 215e 	CALL SUBOPT_0xB
0006e0 2fe1      	MOV  R30,R17
0006e1 e0f0      	LDI  R31,0
0006e2 9631      	ADIW R30,1
0006e3 81aa      	LDD  R26,Y+2
0006e4 81bb      	LDD  R27,Y+2+1
0006e5 940e 2165 	CALL SUBOPT_0xC
0006e7 93ec      	ST   X,R30
0006e8 5f1f      	SUBI R17,-1
0006e9 cff1      	RJMP _0x26
                 _0x27:
0006ea 81ea      	LDD  R30,Y+2
0006eb 81fb      	LDD  R31,Y+2+1
                +
0006ec 8303     +STD Z + 3 , R16
                 	__PUTBZR 16,3
0006ed 8119      	LDD  R17,Y+1
0006ee c01f      	RJMP _0x20A001E
                 ; .FEND
                 __schedule_core:
                 ; .FSTART __schedule_core
0006ef 93aa      	ST   -Y,R26
0006f0 930a      	ST   -Y,R16
                 ;	*word -> Y+2
                 ;	i -> Y+1
                 ;	a -> R16
0006f1 81aa      	LDD  R26,Y+2
0006f2 81bb      	LDD  R27,Y+2+1
0006f3 dfe1      	RCALL __rotate
0006f4 e000      	LDI  R16,LOW(0)
                 _0x29:
0006f5 3004      	CPI  R16,4
0006f6 f458      	BRSH _0x2A
0006f7 2fe0      	MOV  R30,R16
0006f8 940e 215e 	CALL SUBOPT_0xB
0006fa 81aa      	LDD  R26,Y+2
0006fb 81bb      	LDD  R27,Y+2+1
0006fc 940e 2154 	CALL SUBOPT_0x9
0006fe 940e 216a 	CALL SUBOPT_0xD
000700 5f0f      	SUBI R16,-1
000701 cff3      	RJMP _0x29
                 _0x2A:
000702 81aa      	LDD  R26,Y+2
000703 81bb      	LDD  R27,Y+2+1
000704 2e0a      	MOV  R0,R26
000705 91ac      	LD   R26,X
000706 81e9      	LDD  R30,Y+1
000707 e0f0      	LDI  R31,0
000708 56e8      	SUBI R30,LOW(-_rcon*2)
000709 4ffd      	SBCI R31,HIGH(-_rcon*2)
00070a 91e4      	LPM  R30,Z
00070b 27ea      	EOR  R30,R26
00070c 2da0      	MOV  R26,R0
00070d 93ec      	ST   X,R30
                 _0x20A001E:
00070e 8108      	LDD  R16,Y+0
00070f 9624      	ADIW R28,4
000710 9508      	RET
                 ; .FEND
                 _expand_key:
                 ; .FSTART _expand_key
000711 93ba      	ST   -Y,R27
000712 93aa      	ST   -Y,R26
000713 9724      	SBIW R28,4
000714 940e 280a 	CALL __SAVELOCR3
                 ;	key -> Y+9
                 ;	expanded_key -> Y+7
                 ;	t -> Y+3
                 ;	c -> R16
                 ;	i -> R17
                 ;	a -> R18
000716 e100      	LDI  R16,16
000717 e011      	LDI  R17,1
000718 e020      	LDI  R18,LOW(0)
                 _0x2C:
000719 3120      	CPI  R18,16
00071a f478      	BRSH _0x2D
00071b 2fe2      	MOV  R30,R18
00071c 81af      	LDD  R26,Y+7
00071d 85b8      	LDD  R27,Y+7+1
00071e 940e 2171 	CALL SUBOPT_0xE
000720 85a9      	LDD  R26,Y+9
000721 85ba      	LDD  R27,Y+9+1
000722 27ee      	CLR  R30
000723 0fa2      	ADD  R26,R18
000724 1fbe      	ADC  R27,R30
000725 91ec      	LD   R30,X
000726 01d0      	MOVW R26,R0
000727 93ec      	ST   X,R30
000728 5f2f      	SUBI R18,-1
000729 cfef      	RJMP _0x2C
                 _0x2D:
                 _0x2E:
00072a 3b00      	CPI  R16,176
00072b f008      	BRLO PC+2
00072c c045      	RJMP _0x30
00072d e020      	LDI  R18,LOW(0)
                 _0x32:
00072e 3024      	CPI  R18,4
00072f f4c8      	BRSH _0x33
000730 2fe2      	MOV  R30,R18
000731 e0f0      	LDI  R31,0
000732 01de      	MOVW R26,R28
000733 9613      	ADIW R26,3
000734 0fea      	ADD  R30,R26
000735 1ffb      	ADC  R31,R27
000736 01bf      	MOVW R22,R30
000737 2fa2      	MOV  R26,R18
000738 27bb      	CLR  R27
000739 27ee      	CLR  R30
00073a 0fa0      	ADD  R26,R16
00073b 1fbe      	ADC  R27,R30
00073c e0e4      	LDI  R30,LOW(4)
00073d e0f0      	LDI  R31,HIGH(4)
00073e 940e 214f 	CALL SUBOPT_0x8
000740 81af      	LDD  R26,Y+7
000741 85b8      	LDD  R27,Y+7+1
000742 0fae      	ADD  R26,R30
000743 1fbf      	ADC  R27,R31
000744 91ec      	LD   R30,X
000745 01db      	MOVW R26,R22
000746 93ec      	ST   X,R30
000747 5f2f      	SUBI R18,-1
000748 cfe5      	RJMP _0x32
                 _0x33:
000749 2fa0      	MOV  R26,R16
00074a 27bb      	CLR  R27
00074b e1e0      	LDI  R30,LOW(16)
00074c e0f0      	LDI  R31,HIGH(16)
00074d 940e 279d 	CALL __MODW21
00074f 9730      	SBIW R30,0
000750 f429      	BRNE _0x34
000751 940e 2176 	CALL SUBOPT_0xF
000753 2fa1      	MOV  R26,R17
000754 df9a      	RCALL __schedule_core
000755 5f1f      	SUBI R17,-1
                 _0x34:
000756 e020      	LDI  R18,LOW(0)
                 _0x36:
000757 3024      	CPI  R18,4
000758 f4c0      	BRSH _0x37
000759 2fe0      	MOV  R30,R16
00075a 81af      	LDD  R26,Y+7
00075b 85b8      	LDD  R27,Y+7+1
00075c e0f0      	LDI  R31,0
00075d 0fea      	ADD  R30,R26
00075e 1ffb      	ADC  R31,R27
00075f 01bf      	MOVW R22,R30
000760 2fe0      	MOV  R30,R16
000761 e0f0      	LDI  R31,0
000762 9770      	SBIW R30,16
000763 0fae      	ADD  R26,R30
000764 1fbf      	ADC  R27,R31
000765 900c      	LD   R0,X
000766 2fe2      	MOV  R30,R18
000767 e0f0      	LDI  R31,0
000768 01de      	MOVW R26,R28
000769 9613      	ADIW R26,3
00076a 0fae      	ADD  R26,R30
00076b 1fbf      	ADC  R27,R31
00076c 940e 217b 	CALL SUBOPT_0x10
00076e 5f0f      	SUBI R16,-1
00076f 5f2f      	SUBI R18,-1
000770 cfe6      	RJMP _0x36
                 _0x37:
000771 cfb8      	RJMP _0x2E
                 _0x30:
000772 940e 2811 	CALL __LOADLOCR3
000774 962b      	ADIW R28,11
000775 9508      	RET
                 ; .FEND
                 __rotate_key:
                 ; .FSTART __rotate_key
000776 940e 2180 	CALL SUBOPT_0x11
                 ;	round -> Y+18
                 ;	aux -> Y+2
                 ;	i -> R16
                 ;	j -> R17
                 _0x39:
000778 3100      	CPI  R16,16
000779 f430      	BRSH _0x3A
00077a 940e 2187 	CALL SUBOPT_0x12
00077c 01d0      	MOVW R26,R0
00077d 93ec      	ST   X,R30
00077e 5f0f      	SUBI R16,-1
00077f cff8      	RJMP _0x39
                 _0x3A:
000780 e000      	LDI  R16,LOW(0)
                 _0x3C:
000781 3004      	CPI  R16,4
000782 f510      	BRSH _0x3D
000783 e010      	LDI  R17,LOW(0)
                 _0x3F:
000784 3014      	CPI  R17,4
000785 f4e8      	BRSH _0x40
000786 e0e4      	LDI  R30,LOW(4)
000787 9fe0      	MUL  R30,R16
000788 01f0      	MOVW R30,R0
000789 01df      	MOVW R26,R30
00078a 2fe1      	MOV  R30,R17
00078b e0f0      	LDI  R31,0
00078c 0fea      	ADD  R30,R26
00078d 1ffb      	ADC  R31,R27
00078e 89aa      	LDD  R26,Y+18
00078f 89bb      	LDD  R27,Y+18+1
000790 0fea      	ADD  R30,R26
000791 1ffb      	ADC  R31,R27
000792 01bf      	MOVW R22,R30
000793 2fa0      	MOV  R26,R16
000794 27bb      	CLR  R27
000795 e0e4      	LDI  R30,LOW(4)
000796 9fe1      	MUL  R30,R17
000797 01f0      	MOVW R30,R0
000798 0fea      	ADD  R30,R26
000799 1ffb      	ADC  R31,R27
00079a 01de      	MOVW R26,R28
00079b 9612      	ADIW R26,2
00079c 0fae      	ADD  R26,R30
00079d 1fbf      	ADC  R27,R31
00079e 91ec      	LD   R30,X
00079f 01db      	MOVW R26,R22
0007a0 93ec      	ST   X,R30
0007a1 5f1f      	SUBI R17,-1
0007a2 cfe1      	RJMP _0x3F
                 _0x40:
0007a3 5f0f      	SUBI R16,-1
0007a4 cfdc      	RJMP _0x3C
                 _0x3D:
0007a5 c063      	RJMP _0x20A001C
                 ; .FEND
                 __sub_bytes:
                 ; .FSTART __sub_bytes
0007a6 940e 213d 	CALL SUBOPT_0x5
                 ;	state -> Y+1
                 ;	i -> R16
                 _0x42:
0007a8 3100      	CPI  R16,16
0007a9 f450      	BRSH _0x43
0007aa 2fe0      	MOV  R30,R16
0007ab 940e 2142 	CALL SUBOPT_0x6
0007ad 010f      	MOVW R0,R30
0007ae 940e 2148 	CALL SUBOPT_0x7
0007b0 940e 216a 	CALL SUBOPT_0xD
0007b2 5f0f      	SUBI R16,-1
0007b3 cff4      	RJMP _0x42
                 _0x43:
                 _0x20A001D:
0007b4 8108      	LDD  R16,Y+0
0007b5 9623      	ADIW R28,3
0007b6 9508      	RET
                 ; .FEND
                 ;	state -> Y+1
                 ;	i -> R16
                 __shift_rows:
                 ; .FSTART __shift_rows
0007b7 940e 2180 	CALL SUBOPT_0x11
                 ;	state -> Y+18
                 ;	aux -> Y+2
                 ;	i -> R16
                 ;	j -> R17
                 _0x48:
0007b9 3100      	CPI  R16,16
0007ba f430      	BRSH _0x49
0007bb 940e 2187 	CALL SUBOPT_0x12
0007bd 01d0      	MOVW R26,R0
0007be 93ec      	ST   X,R30
0007bf 5f0f      	SUBI R16,-1
0007c0 cff8      	RJMP _0x48
                 _0x49:
0007c1 e011      	LDI  R17,LOW(1)
                 _0x4B:
0007c2 3014      	CPI  R17,4
0007c3 f008      	BRLO PC+2
0007c4 c044      	RJMP _0x4C
0007c5 2fe1      	MOV  R30,R17
0007c6 0fee      	LSL  R30
0007c7 0fee      	LSL  R30
0007c8 2f0e      	MOV  R16,R30
                 _0x4E:
0007c9 e0e4      	LDI  R30,LOW(4)
0007ca 9fe1      	MUL  R30,R17
0007cb 01f0      	MOVW R30,R0
0007cc 9634      	ADIW R30,4
0007cd 2fa0      	MOV  R26,R16
0007ce e0b0      	LDI  R27,0
0007cf 17ae      	CP   R26,R30
0007d0 07bf      	CPC  R27,R31
0007d1 f5ac      	BRGE _0x4F
0007d2 2fa0      	MOV  R26,R16
0007d3 27bb      	CLR  R27
0007d4 e0e4      	LDI  R30,LOW(4)
0007d5 9fe1      	MUL  R30,R17
0007d6 01f0      	MOVW R30,R0
0007d7 1bae      	SUB  R26,R30
0007d8 0bbf      	SBC  R27,R31
0007d9 01bd      	MOVW R22,R26
0007da 940e 2191 	CALL SUBOPT_0x13
0007dc 176e      	CP   R22,R30
0007dd 077f      	CPC  R23,R31
0007de f484      	BRGE _0x50
0007df 2fe0      	MOV  R30,R16
0007e0 89aa      	LDD  R26,Y+18
0007e1 89bb      	LDD  R27,Y+18+1
0007e2 940e 2171 	CALL SUBOPT_0xE
0007e4 2fa0      	MOV  R26,R16
0007e5 27bb      	CLR  R27
0007e6 2fe1      	MOV  R30,R17
0007e7 e0f0      	LDI  R31,0
0007e8 0fea      	ADD  R30,R26
0007e9 1ffb      	ADC  R31,R27
0007ea 01de      	MOVW R26,R28
0007eb 9612      	ADIW R26,2
0007ec 940e 2165 	CALL SUBOPT_0xC
0007ee c015      	RJMP _0xA6
                 _0x50:
0007ef 2fe0      	MOV  R30,R16
0007f0 89aa      	LDD  R26,Y+18
0007f1 89bb      	LDD  R27,Y+18+1
0007f2 e0f0      	LDI  R31,0
0007f3 0fea      	ADD  R30,R26
0007f4 1ffb      	ADC  R31,R27
0007f5 01cf      	MOVW R24,R30
0007f6 2f60      	MOV  R22,R16
0007f7 2777      	CLR  R23
0007f8 940e 2191 	CALL SUBOPT_0x13
0007fa 01df      	MOVW R26,R30
0007fb 01fb      	MOVW R30,R22
0007fc 1bea      	SUB  R30,R26
0007fd 0bfb      	SBC  R31,R27
0007fe 01de      	MOVW R26,R28
0007ff 9612      	ADIW R26,2
000800 0fae      	ADD  R26,R30
000801 1fbf      	ADC  R27,R31
000802 91ec      	LD   R30,X
000803 01dc      	MOVW R26,R24
                 _0xA6:
000804 93ec      	ST   X,R30
000805 5f0f      	SUBI R16,-1
000806 cfc2      	RJMP _0x4E
                 _0x4F:
000807 5f1f      	SUBI R17,-1
000808 cfb9      	RJMP _0x4B
                 _0x4C:
                 _0x20A001C:
000809 8119      	LDD  R17,Y+1
00080a 8108      	LDD  R16,Y+0
00080b 9664      	ADIW R28,20
00080c 9508      	RET
                 ; .FEND
                 ;	state -> Y+18
                 ;	aux -> Y+2
                 ;	i -> R16
                 ;	j -> R17
                 __mix_columns:
                 ; .FSTART __mix_columns
00080d 93ba      	ST   -Y,R27
00080e 93aa      	ST   -Y,R26
00080f 9760      	SBIW R28,16
000810 930a      	ST   -Y,R16
                 ;	state -> Y+17
                 ;	aux -> Y+1
                 ;	col -> R16
000811 e000      	LDI  R16,LOW(0)
                 _0x5E:
000812 3100      	CPI  R16,16
000813 f478      	BRSH _0x5F
000814 2fe0      	MOV  R30,R16
000815 e0f0      	LDI  R31,0
000816 01de      	MOVW R26,R28
000817 9611      	ADIW R26,1
000818 0fea      	ADD  R30,R26
000819 1ffb      	ADC  R31,R27
00081a 010f      	MOVW R0,R30
00081b 89a9      	LDD  R26,Y+17
00081c 89ba      	LDD  R27,Y+17+1
00081d 940e 2154 	CALL SUBOPT_0x9
00081f 01d0      	MOVW R26,R0
000820 93ec      	ST   X,R30
000821 5f0f      	SUBI R16,-1
000822 cfef      	RJMP _0x5E
                 _0x5F:
000823 e000      	LDI  R16,LOW(0)
                 _0x61:
000824 3004      	CPI  R16,4
000825 f008      	BRLO PC+2
000826 c05a      	RJMP _0x62
000827 2fe0      	MOV  R30,R16
000828 e0f0      	LDI  R31,0
000829 9630      	ADIW R30,0
00082a 940e 2196 	CALL SUBOPT_0x14
00082c 940e 219e 	CALL SUBOPT_0x15
00082e 9634      	ADIW R30,4
00082f 940e 2126 	CALL SUBOPT_0x1
000831 940e 21a6 	CALL SUBOPT_0x16
000833 9638      	ADIW R30,8
000834 940e 2126 	CALL SUBOPT_0x1
000836 940e 21af 	CALL SUBOPT_0x17
000838 963c      	ADIW R30,12
000839 940e 2126 	CALL SUBOPT_0x1
00083b 940e 217b 	CALL SUBOPT_0x10
00083d 2fe0      	MOV  R30,R16
00083e e0f0      	LDI  R31,0
00083f 9634      	ADIW R30,4
000840 940e 2196 	CALL SUBOPT_0x14
000842 940e 219e 	CALL SUBOPT_0x15
000844 9638      	ADIW R30,8
000845 940e 2126 	CALL SUBOPT_0x1
000847 940e 21a6 	CALL SUBOPT_0x16
000849 963c      	ADIW R30,12
00084a 940e 2126 	CALL SUBOPT_0x1
00084c 940e 21af 	CALL SUBOPT_0x17
00084e 9630      	ADIW R30,0
00084f 940e 2126 	CALL SUBOPT_0x1
000851 940e 217b 	CALL SUBOPT_0x10
000853 2fe0      	MOV  R30,R16
000854 e0f0      	LDI  R31,0
000855 9638      	ADIW R30,8
000856 940e 2196 	CALL SUBOPT_0x14
000858 940e 219e 	CALL SUBOPT_0x15
00085a 963c      	ADIW R30,12
00085b 940e 2126 	CALL SUBOPT_0x1
00085d 940e 21a6 	CALL SUBOPT_0x16
00085f 9630      	ADIW R30,0
000860 940e 2126 	CALL SUBOPT_0x1
000862 940e 21af 	CALL SUBOPT_0x17
000864 9634      	ADIW R30,4
000865 940e 2126 	CALL SUBOPT_0x1
000867 940e 217b 	CALL SUBOPT_0x10
000869 2fe0      	MOV  R30,R16
00086a e0f0      	LDI  R31,0
00086b 963c      	ADIW R30,12
00086c 940e 2196 	CALL SUBOPT_0x14
00086e 940e 219e 	CALL SUBOPT_0x15
000870 9630      	ADIW R30,0
000871 940e 2126 	CALL SUBOPT_0x1
000873 940e 21a6 	CALL SUBOPT_0x16
000875 9634      	ADIW R30,4
000876 940e 2126 	CALL SUBOPT_0x1
000878 940e 21af 	CALL SUBOPT_0x17
00087a 9638      	ADIW R30,8
00087b 940e 2126 	CALL SUBOPT_0x1
00087d 940e 217b 	CALL SUBOPT_0x10
00087f 5f0f      	SUBI R16,-1
000880 cfa3      	RJMP _0x61
                 _0x62:
000881 8108      	LDD  R16,Y+0
000882 9663      	ADIW R28,19
000883 9508      	RET
                 ; .FEND
                 ;	state -> Y+17
                 ;	aux -> Y+1
                 ;	col -> R16
                 __add_round_key:
                 ; .FSTART __add_round_key
000884 940e 213d 	CALL SUBOPT_0x5
                 ;	state -> Y+3
                 ;	round_key -> Y+1
                 ;	i -> R16
                 _0x6A:
000886 3100      	CPI  R16,16
000887 f490      	BRSH _0x6B
000888 2fe0      	MOV  R30,R16
000889 81ab      	LDD  R26,Y+3
00088a 81bc      	LDD  R27,Y+3+1
00088b e0f0      	LDI  R31,0
00088c 0fea      	ADD  R30,R26
00088d 1ffb      	ADC  R31,R27
00088e 01bf      	MOVW R22,R30
00088f 27ee      	CLR  R30
000890 0fa0      	ADD  R26,R16
000891 1fbe      	ADC  R27,R30
000892 900c      	LD   R0,X
000893 940e 2148 	CALL SUBOPT_0x7
000895 25e0      	EOR  R30,R0
000896 01db      	MOVW R26,R22
000897 93ec      	ST   X,R30
000898 5f0f      	SUBI R16,-1
000899 cfec      	RJMP _0x6A
                 _0x6B:
00089a 8108      	LDD  R16,Y+0
00089b 9625      	ADIW R28,5
00089c 9508      	RET
                 ; .FEND
                 __block_cipher:
                 ; .FSTART __block_cipher
00089d 93ba      	ST   -Y,R27
00089e 93aa      	ST   -Y,R26
00089f 9760      	SBIW R28,16
0008a0 930a      	ST   -Y,R16
                 ;	state -> Y+19
                 ;	expanded_key -> Y+17
                 ;	i -> R16
                 ;	round -> Y+1
0008a1 940e 21b4 	CALL SUBOPT_0x18
0008a3 e0e0      	LDI  R30,LOW(0)
0008a4 93ea      	ST   -Y,R30
0008a5 e1a0      	LDI  R26,LOW(16)
0008a6 940e 21b9 	CALL SUBOPT_0x19
0008a8 e001      	LDI  R16,LOW(1)
                 _0x6D:
0008a9 300a      	CPI  R16,10
0008aa f490      	BRSH _0x6E
0008ab 940e 21c7 	CALL SUBOPT_0x1A
0008ad 89ab      	LDD  R26,Y+19
0008ae 89bc      	LDD  R27,Y+19+1
0008af df5d      	RCALL __mix_columns
0008b0 940e 21b4 	CALL SUBOPT_0x18
0008b2 e1a0      	LDI  R26,LOW(16)
0008b3 020a      	MULS R16,R26
0008b4 920a      	ST   -Y,R0
0008b5 020a      	MULS R16,R26
0008b6 01f0      	MOVW R30,R0
0008b7 5fe0      	SUBI R30,-LOW(16)
0008b8 2fae      	MOV  R26,R30
0008b9 940e 21b9 	CALL SUBOPT_0x19
0008bb 5f0f      	SUBI R16,-1
0008bc cfec      	RJMP _0x6D
                 _0x6E:
0008bd 940e 21c7 	CALL SUBOPT_0x1A
0008bf 940e 21b4 	CALL SUBOPT_0x18
0008c1 eae0      	LDI  R30,LOW(160)
0008c2 93ea      	ST   -Y,R30
0008c3 eba0      	LDI  R26,LOW(176)
0008c4 940e 21b9 	CALL SUBOPT_0x19
0008c6 8108      	LDD  R16,Y+0
0008c7 9665      	ADIW R28,21
0008c8 9508      	RET
                 ; .FEND
                 ;	state -> Y+19
                 ;	expanded_key -> Y+17
                 ;	i -> R16
                 ;	round -> Y+1
                 _cipher:
                 ; .FSTART _cipher
0008c9 93ba      	ST   -Y,R27
0008ca 93aa      	ST   -Y,R26
0008cb 97a4      	SBIW R28,36
0008cc 940e 280a 	CALL __SAVELOCR3
                 ;	*text -> Y+45
                 ;	count -> Y+43
                 ;	expanded_key -> Y+41
                 ;	*ciph -> Y+39
                 ;	i -> R16,R17
                 ;	j -> R18
                 ;	block -> Y+23
                 ;	aux -> Y+3
                +
0008ce a50b     +LDD R16 , Y + 43
0008cf a51c     +LDD R17 , Y + 43 + 1
                 	__GETWRS 16,17,43
                 _0x73:
0008d0 940e 21cf 	CALL SUBOPT_0x1B
0008d2 a5ab      	LDD  R26,Y+43
0008d3 a5bc      	LDD  R27,Y+43+1
0008d4 0fea      	ADD  R30,R26
0008d5 1ffb      	ADC  R31,R27
0008d6 170e      	CP   R16,R30
0008d7 071f      	CPC  R17,R31
0008d8 f450      	BRSH _0x74
0008d9 01f8      	MOVW R30,R16
0008da a1af      	LDD  R26,Y+39
0008db a5b8      	LDD  R27,Y+39+1
0008dc 0fae      	ADD  R26,R30
0008dd 1fbf      	ADC  R27,R31
0008de e0e0      	LDI  R30,LOW(0)
0008df 93ec      	ST   X,R30
                +
0008e0 5f0f     +SUBI R16 , LOW ( - 1 )
0008e1 4f1f     +SBCI R17 , HIGH ( - 1 )
                 	__ADDWRN 16,17,1
0008e2 cfed      	RJMP _0x73
                 _0x74:
                +
0008e3 e000     +LDI R16 , LOW ( 0 )
0008e4 e010     +LDI R17 , HIGH ( 0 )
                 	__GETWRN 16,17,0
                 _0x76:
0008e5 a5eb      	LDD  R30,Y+43
0008e6 a5fc      	LDD  R31,Y+43+1
0008e7 170e      	CP   R16,R30
0008e8 071f      	CPC  R17,R31
0008e9 f570      	BRSH _0x77
0008ea a5ed      	LDD  R30,Y+45
0008eb a5fe      	LDD  R31,Y+45+1
0008ec 93fa      	ST   -Y,R31
0008ed 93ea      	ST   -Y,R30
0008ee 01fe      	MOVW R30,R28
0008ef 9679      	ADIW R30,25
0008f0 93fa      	ST   -Y,R31
0008f1 93ea      	ST   -Y,R30
0008f2 930a      	ST   -Y,R16
0008f3 2fa0      	MOV  R26,R16
0008f4 5fa0      	SUBI R26,-LOW(16)
0008f5 ddc3      	RCALL __sub_array
0008f6 01fe      	MOVW R30,R28
0008f7 9677      	ADIW R30,23
0008f8 93fa      	ST   -Y,R31
0008f9 93ea      	ST   -Y,R30
0008fa a5ab      	LDD  R26,Y+43
0008fb a5bc      	LDD  R27,Y+43+1
0008fc dfa0      	RCALL __block_cipher
0008fd 2f20      	MOV  R18,R16
                 _0x79:
0008fe 01f8      	MOVW R30,R16
0008ff 9670      	ADIW R30,16
000900 2fa2      	MOV  R26,R18
000901 e0b0      	LDI  R27,0
000902 17ae      	CP   R26,R30
000903 07bf      	CPC  R27,R31
000904 f480      	BRSH _0x7A
000905 2fe2      	MOV  R30,R18
000906 a1af      	LDD  R26,Y+39
000907 a5b8      	LDD  R27,Y+39+1
000908 940e 2171 	CALL SUBOPT_0xE
00090a 2fe2      	MOV  R30,R18
00090b e0f0      	LDI  R31,0
00090c 1be0      	SUB  R30,R16
00090d 0bf1      	SBC  R31,R17
00090e 01de      	MOVW R26,R28
00090f 9657      	ADIW R26,23
000910 940e 2165 	CALL SUBOPT_0xC
000912 93ec      	ST   X,R30
000913 5f2f      	SUBI R18,-1
000914 cfe9      	RJMP _0x79
                 _0x7A:
                +
000915 5f00     +SUBI R16 , LOW ( - 16 )
000916 4f1f     +SBCI R17 , HIGH ( - 16 )
                 	__ADDWRN 16,17,16
000917 cfcd      	RJMP _0x76
                 _0x77:
000918 940e 21cf 	CALL SUBOPT_0x1B
00091a a5ab      	LDD  R26,Y+43
00091b a5bc      	LDD  R27,Y+43+1
00091c 0fea      	ADD  R30,R26
00091d 1ffb      	ADC  R31,R27
00091e 940e 2811 	CALL __LOADLOCR3
000920 96af      	ADIW R28,47
000921 9508      	RET
                 ; .FEND
                 ;	*ciph -> Y+45
                 ;	count -> Y+43
                 ;	expanded_key -> Y+41
                 ;	*text -> Y+39
                 ;	i -> R16,R17
                 ;	j -> R18
                 ;	block -> Y+23
                 ;	aux -> Y+3
                 ;
                 ;#asm
                     .equ __lcd_port=0x11
                     .equ __lcd_EN=4
                     .equ __lcd_RS=5
                     .equ __lcd_D4=0
                     .equ __lcd_D5=1
                     .equ __lcd_D6=2
                     .equ __lcd_D7=3
                 ; 0000 0018 #endasm
                 ;
                 ;unsigned int time_count_all;
                 ;unsigned int time_count_ciph;
                 ;unsigned int br, n;
                 ;unsigned char i;
                 ;unsigned char option, key_set = 0;
                 ;unsigned char file_name[50];
                 ;unsigned char key[16], expanded_key[176];
                 ;unsigned char aux[20];
                 ;
                 ;// TO READ AND WRITE 16 BLOCKS AT ONCE
                 ;unsigned char buffer_in[512];
                 ;unsigned char buffer_out[512];
                 ;
                 ;// Timer 0 output compare A interrupt service routine
                 ;interrupt [TIM0_COMPA] void timer0_compa_isr(void) {
                 ; 0000 0028 interrupt [22] void timer0_compa_isr(void) {
                 _timer0_compa_isr:
                 ; .FSTART _timer0_compa_isr
000922 940e 21d6 	CALL SUBOPT_0x1C
                 ; 0000 0029     // ONE COUNT = 1 ms
                 ; 0000 002A     time_count_ciph++;
000924 e3ab      	LDI  R26,LOW(_time_count_ciph)
000925 e0ba      	LDI  R27,HIGH(_time_count_ciph)
000926 c021      	RJMP _0xA9
                 ; 0000 002B }
                 ; .FEND
                 ;
                 ;// Timer1 output compare A interrupt service routine
                 ;interrupt [TIM1_COMPA] void timer1_compa_isr(void) {
                 ; 0000 002E interrupt [18] void timer1_compa_isr(void) {
                 _timer1_compa_isr:
                 ; .FSTART _timer1_compa_isr
000927 920a      	ST   -Y,R0
000928 921a      	ST   -Y,R1
000929 92fa      	ST   -Y,R15
00092a 936a      	ST   -Y,R22
00092b 937a      	ST   -Y,R23
00092c 938a      	ST   -Y,R24
00092d 939a      	ST   -Y,R25
00092e 93aa      	ST   -Y,R26
00092f 93ba      	ST   -Y,R27
000930 93ea      	ST   -Y,R30
000931 93fa      	ST   -Y,R31
000932 b7ef      	IN   R30,SREG
000933 93ea      	ST   -Y,R30
                 ; 0000 002F     disk_timerproc();
000934 940e 0ffe 	CALL _disk_timerproc
                 ; 0000 0030     /* MMC/SD/SD HC card access low level timing function */
                 ; 0000 0031 }
000936 91e9      	LD   R30,Y+
000937 bfef      	OUT  SREG,R30
000938 91f9      	LD   R31,Y+
000939 91e9      	LD   R30,Y+
00093a 91b9      	LD   R27,Y+
00093b 91a9      	LD   R26,Y+
00093c 9199      	LD   R25,Y+
00093d 9189      	LD   R24,Y+
00093e 9179      	LD   R23,Y+
00093f 9169      	LD   R22,Y+
000940 90f9      	LD   R15,Y+
000941 9019      	LD   R1,Y+
000942 9009      	LD   R0,Y+
000943 9518      	RETI
                 ; .FEND
                 ;
                 ;// Timer2 output compare interrupt service routine
                 ;interrupt [TIM2_COMPA] void timer2_compa_isr(void){
                 ; 0000 0034 interrupt [14] void timer2_compa_isr(void){
                 _timer2_compa_isr:
                 ; .FSTART _timer2_compa_isr
000944 940e 21d6 	CALL SUBOPT_0x1C
                 ; 0000 0035     time_count_all++;
000946 e3a9      	LDI  R26,LOW(_time_count_all)
000947 e0ba      	LDI  R27,HIGH(_time_count_all)
                 _0xA9:
000948 91ed      	LD   R30,X+
000949 91fd      	LD   R31,X+
00094a 9631      	ADIW R30,1
00094b 93fe      	ST   -X,R31
00094c 93ee      	ST   -X,R30
                 ; 0000 0036 }
00094d 91e9      	LD   R30,Y+
00094e bfef      	OUT  SREG,R30
00094f 91f9      	LD   R31,Y+
000950 91e9      	LD   R30,Y+
000951 91b9      	LD   R27,Y+
000952 91a9      	LD   R26,Y+
000953 9518      	RETI
                 ; .FEND
                 ;
                 ;void start_timer_all() {
                 ; 0000 0038 void start_timer_all() {
                 _start_timer_all:
                 ; .FSTART _start_timer_all
                 ; 0000 0039     TCCR2B=(0<<WGM22) | (0<<CS22) | (1<<CS21) | (1<<CS20);
000954 e0e3      	LDI  R30,LOW(3)
000955 c009      	RJMP _0x20A001B
                 ; 0000 003A }
                 ; .FEND
                 ;
                 ;void reset_timer_all() {
                 ; 0000 003C void reset_timer_all() {
                 _reset_timer_all:
                 ; .FSTART _reset_timer_all
                 ; 0000 003D     time_count_all = 0;
000956 e0e0      	LDI  R30,LOW(0)
000957 93e0 0a39 	STS  _time_count_all,R30
000959 93e0 0a3a 	STS  _time_count_all+1,R30
                 ; 0000 003E     TCNT2 = 0x00;
00095b 93e0 00b2 	STS  178,R30
                 ; 0000 003F }
00095d 9508      	RET
                 ; .FEND
                 ;
                 ;void stop_timer_all() {
                 ; 0000 0041 void stop_timer_all() {
                 _stop_timer_all:
                 ; .FSTART _stop_timer_all
                 ; 0000 0042     TCCR2B = 0x00;
00095e e0e0      	LDI  R30,LOW(0)
                 _0x20A001B:
00095f 93e0 00b1 	STS  177,R30
                 ; 0000 0043 }
000961 9508      	RET
                 ; .FEND
                 ;
                 ;void start_timer_ciph() {
                 ; 0000 0045 void start_timer_ciph() {
                 _start_timer_ciph:
                 ; .FSTART _start_timer_ciph
                 ; 0000 0046     TCCR0B = (0<<WGM02) | (0<<CS02) | (1<<CS01) | (1<<CS00);
000962 e0e3      	LDI  R30,LOW(3)
000963 c008      	RJMP _0x20A001A
                 ; 0000 0047 }
                 ; .FEND
                 ;
                 ;void reset_timer_ciph() {
                 ; 0000 0049 void reset_timer_ciph() {
                 _reset_timer_ciph:
                 ; .FSTART _reset_timer_ciph
                 ; 0000 004A     time_count_ciph = 0;
000964 e0e0      	LDI  R30,LOW(0)
000965 93e0 0a3b 	STS  _time_count_ciph,R30
000967 93e0 0a3c 	STS  _time_count_ciph+1,R30
                 ; 0000 004B     TCNT0 = 0;
000969 bde6      	OUT  0x26,R30
                 ; 0000 004C }
00096a 9508      	RET
                 ; .FEND
                 ;
                 ;void stop_timer_ciph() {
                 ; 0000 004E void stop_timer_ciph() {
                 _stop_timer_ciph:
                 ; .FSTART _stop_timer_ciph
                 ; 0000 004F     TCCR0B = 0x00;
00096b e0e0      	LDI  R30,LOW(0)
                 _0x20A001A:
00096c bde5      	OUT  0x25,R30
                 ; 0000 0050 }
00096d 9508      	RET
                 ; .FEND
                 ;
                 ;void main(void) {
                 ; 0000 0052 void main(void) {
                 _main:
                 ; .FSTART _main
                 ; 0000 0053     /* FAT function result */
                 ; 0000 0054     FRESULT res;
                 ; 0000 0055 
                 ; 0000 0056     /* will hold the information for logical drive 0: */
                 ; 0000 0057     FATFS drive;
                 ; 0000 0058     FIL file_in; // file objects
                 ; 0000 0059     FIL file_out;
                 ; 0000 005A 
                 ; 0000 005B     CLKPR=0x80;
00096e 97ef      	SBIW R28,63
00096f 97e3      	SBIW R28,51
000970 50d6      	SUBI R29,6
                 ;	res -> R16
                 ;	drive -> Y+1088
                 ;	file_in -> Y+544
                 ;	file_out -> Y+0
000971 e8e0      	LDI  R30,LOW(128)
000972 93e0 0061 	STS  97,R30
                 ; 0000 005C     CLKPR=0;    //Micro Trabajar a 16MHz
000974 e0e0      	LDI  R30,LOW(0)
000975 93e0 0061 	STS  97,R30
                 ; 0000 005D 
                 ; 0000 005E     /*Configurar el PORTB I/O*/
                 ; 0000 005F     DDRB=0b11101101;
000977 eeed      	LDI  R30,LOW(237)
000978 b9e4      	OUT  0x4,R30
                 ; 0000 0060 
                 ; 0000 0061     // Timer/Counter 0 initialization
                 ; 0000 0062     // Clock source: System Clock
                 ; 0000 0063     // Clock value: 125.000 kHz
                 ; 0000 0064     // Mode: CTC top=OCR0A
                 ; 0000 0065     // OC0A output: Disconnected
                 ; 0000 0066     // OC0B output: Disconnected
                 ; 0000 0067     // Timer Period: 1 ms
                 ; 0000 0068     TCCR0A=(0<<COM0A1) | (0<<COM0A0) | (0<<COM0B1) | (0<<COM0B0) | (1<<WGM01) | (0<<WGM00);
000979 e0e2      	LDI  R30,LOW(2)
00097a bde4      	OUT  0x24,R30
                 ; 0000 0069     TCCR0B=(0<<WGM02) | (0<<CS02) | (1<<CS01) | (1<<CS00);
00097b e0e3      	LDI  R30,LOW(3)
00097c bde5      	OUT  0x25,R30
                 ; 0000 006A     TCNT0=0x00;
00097d e0e0      	LDI  R30,LOW(0)
00097e bde6      	OUT  0x26,R30
                 ; 0000 006B     OCR0A=0x7C;
00097f e7ec      	LDI  R30,LOW(124)
000980 bde7      	OUT  0x27,R30
                 ; 0000 006C     OCR0B=0x00;
000981 e0e0      	LDI  R30,LOW(0)
000982 bde8      	OUT  0x28,R30
                 ; 0000 006D 
                 ; 0000 006E     // Timer/Counter 0 Interrupt(s) initialization
                 ; 0000 006F     TIMSK0=(0<<OCIE0B) | (1<<OCIE0A) | (0<<TOIE0);
000983 e0e2      	LDI  R30,LOW(2)
000984 93e0 006e 	STS  110,R30
                 ; 0000 0070 
                 ; 0000 0071 
                 ; 0000 0072     // Cdigo para hacer una interrupcin peridica cada 10ms
                 ; 0000 0073     // Timer/Counter 1 initialization
                 ; 0000 0074     // Clock source: System Clock
                 ; 0000 0075     // Clock value: 1000.000 kHz
                 ; 0000 0076     // Mode: CTC top=OCR1A
                 ; 0000 0077     // Compare A Match Interrupt: On
                 ; 0000 0078     TCCR1B=0x09;
000986 e0e9      	LDI  R30,LOW(9)
000987 93e0 0081 	STS  129,R30
                 ; 0000 0079     OCR1AH=0x27;
000989 e2e7      	LDI  R30,LOW(39)
00098a 93e0 0089 	STS  137,R30
                 ; 0000 007A     OCR1AL=0x10;
00098c e1e0      	LDI  R30,LOW(16)
00098d 93e0 0088 	STS  136,R30
                 ; 0000 007B     TIMSK1=0x02;
00098f e0e2      	LDI  R30,LOW(2)
000990 93e0 006f 	STS  111,R30
                 ; 0000 007C 
                 ; 0000 007D     // Timer/Counter 2 initialization
                 ; 0000 007E     // Clock source: System Clock
                 ; 0000 007F     // Clock value: 250.000 kHz
                 ; 0000 0080     // Mode: CTC top=OCR2A
                 ; 0000 0081     // OC2A output: Disconnected
                 ; 0000 0082     // OC2B output: Disconnected
                 ; 0000 0083     // Timer Period: 1 ms
                 ; 0000 0084     ASSR=(0<<EXCLK) | (0<<AS2);
000992 e0e0      	LDI  R30,LOW(0)
000993 93e0 00b6 	STS  182,R30
                 ; 0000 0085     TCCR2A=(0<<COM2A1) | (0<<COM2A0) | (0<<COM2B1) | (0<<COM2B0) | (1<<WGM21) | (0<<WGM20);
000995 e0e2      	LDI  R30,LOW(2)
000996 93e0 00b0 	STS  176,R30
                 ; 0000 0086     TCCR2B=(0<<WGM22) | (0<<CS22) | (1<<CS21) | (1<<CS20);
000998 e0e3      	LDI  R30,LOW(3)
000999 93e0 00b1 	STS  177,R30
                 ; 0000 0087     TCNT2=0x00;
00099b e0e0      	LDI  R30,LOW(0)
00099c 93e0 00b2 	STS  178,R30
                 ; 0000 0088     OCR2A=0xF9;
00099e efe9      	LDI  R30,LOW(249)
00099f 93e0 00b3 	STS  179,R30
                 ; 0000 0089     OCR2B=0x00;
0009a1 e0e0      	LDI  R30,LOW(0)
0009a2 93e0 00b4 	STS  180,R30
                 ; 0000 008A 
                 ; 0000 008B     // Timer/Counter 2 Interrupt(s) initialization
                 ; 0000 008C     TIMSK2=(0<<OCIE2B) | (1<<OCIE2A) | (0<<TOIE2);
0009a4 e0e2      	LDI  R30,LOW(2)
0009a5 93e0 0070 	STS  112,R30
                 ; 0000 008D 
                 ; 0000 008E 
                 ; 0000 008F     stop_timer_all();
0009a7 940e 21dd 	CALL SUBOPT_0x1D
                 ; 0000 0090     stop_timer_ciph();
                 ; 0000 0091     reset_timer_all();
                 ; 0000 0092     reset_timer_ciph();
                 ; 0000 0093 
                 ; 0000 0094     SetupLCD();
0009a9 940e 0618 	CALL _SetupLCD
                 ; 0000 0095 
                 ; 0000 0096     // USART1 initialization
                 ; 0000 0097     // Communication Parameters: 8 Data, 1 Stop, No Parity
                 ; 0000 0098     // USART1 Receiver: On
                 ; 0000 0099     // USART1 Transmitter: On
                 ; 0000 009A     // USART1 Mode: Asynchronous
                 ; 0000 009B     // USART1 Baud Rate: 9600 (Double Speed Mode)
                 ; 0000 009C     UCSR1A=(0<<RXC1) | (0<<TXC1) | (0<<UDRE1) | (0<<FE1) | (0<<DOR1) | (0<<UPE1) | (1<<U2X1) | (0<<MPCM1);
0009ab e0e2      	LDI  R30,LOW(2)
0009ac 93e0 00c8 	STS  200,R30
                 ; 0000 009D     UCSR1B=(0<<RXCIE1) | (0<<TXCIE1) | (0<<UDRIE1) | (1<<RXEN1) | (1<<TXEN1) | (0<<UCSZ12) | (0<<RXB81) | (0<<TXB81);
0009ae e1e8      	LDI  R30,LOW(24)
0009af 93e0 00c9 	STS  201,R30
                 ; 0000 009E     UCSR1C=(0<<UMSEL11) | (0<<UMSEL10) | (0<<UPM11) | (0<<UPM10) | (0<<USBS1) | (1<<UCSZ11) | (1<<UCSZ10) | (0<<UCPOL1);
0009b1 e0e6      	LDI  R30,LOW(6)
0009b2 93e0 00ca 	STS  202,R30
                 ; 0000 009F     UBRR1H=0x00;
0009b4 e0e0      	LDI  R30,LOW(0)
0009b5 93e0 00cd 	STS  205,R30
                 ; 0000 00A0     UBRR1L=0x67;
0009b7 e6e7      	LDI  R30,LOW(103)
0009b8 93e0 00cc 	STS  204,R30
                 ; 0000 00A1 
                 ; 0000 00A2     // Global enable interrupts
                 ; 0000 00A3     #asm("sei")
0009ba 9478      	sei
                 ; 0000 00A4 
                 ; 0000 00A5     MoveCursor(0,0);
0009bb 940e 21e5 	CALL SUBOPT_0x1E
                 ; 0000 00A6     StringLCD("MOUNTING");
                +
0009bd e3ad     +LDI R26 , LOW ( 2 * _0x0 + ( 67 ) )
0009be e0b9     +LDI R27 , HIGH ( 2 * _0x0 + ( 67 ) )
                 	__POINTW2FN _0x0,67
0009bf dcb8      	RCALL _StringLCD
                 ; 0000 00A7 
                 ; 0000 00A8     /* Inicia el puerto SPI para la SD */
                 ; 0000 00A9     disk_initialize(0);
0009c0 e0a0      	LDI  R26,LOW(0)
0009c1 d2f0      	RCALL _disk_initialize
                 ; 0000 00AA     delay_ms(200);
0009c2 eca8      	LDI  R26,LOW(200)
0009c3 e0b0      	LDI  R27,0
0009c4 940e 262c 	CALL _delay_ms
                 ; 0000 00AB 
                 ; 0000 00AC     /* mount logical drive 0: */
                 ; 0000 00AD     if ((res=f_mount(0,&drive))==FR_OK){
0009c6 e0e0      	LDI  R30,LOW(0)
0009c7 93ea      	ST   -Y,R30
0009c8 01de      	MOVW R26,R28
0009c9 5baf      	SUBI R26,LOW(-(1089))
0009ca 4fbb      	SBCI R27,HIGH(-(1089))
0009cb 940e 197d 	CALL _f_mount
0009cd 2f0e      	MOV  R16,R30
0009ce 30e0      	CPI  R30,0
0009cf f009      	BREQ PC+2
0009d0 c179      	RJMP _0x85
                 ; 0000 00AE         MoveCursor(0,0);
0009d1 940e 21e5 	CALL SUBOPT_0x1E
                 ; 0000 00AF         StringLCD("DRIVE FOUND!");
                +
0009d3 e4a6     +LDI R26 , LOW ( 2 * _0x0 + ( 76 ) )
0009d4 e0b9     +LDI R27 , HIGH ( 2 * _0x0 + ( 76 ) )
                 	__POINTW2FN _0x0,76
0009d5 940e 21ea 	CALL SUBOPT_0x1F
                 ; 0000 00B0         delay_ms(1500);
                 ; 0000 00B1 
                 ; 0000 00B2 
                 ; 0000 00B3         while (1) {
                 _0x86:
                 ; 0000 00B4             if (key_set == 1) {
0009d7 91a0 0a43 	LDS  R26,_key_set
0009d9 30a1      	CPI  R26,LOW(0x1)
0009da f009      	BREQ PC+2
0009db c115      	RJMP _0x89
                 ; 0000 00B5                 puts("WELCOME!\nCHOOSE AN OPTION FROM OUR MENU\n\n");
                +
0009dc e0a0     +LDI R26 , LOW ( _0x8A + ( 0 ) )
0009dd e0b9     +LDI R27 , HIGH ( _0x8A + ( 0 ) )
                 	__POINTW2MN _0x8A,0
0009de 940e 1ea5 	CALL _puts
                 ; 0000 00B6                 puts("1. CIPHER\n");
                +
0009e0 e2aa     +LDI R26 , LOW ( _0x8A + ( 42 ) )
0009e1 e0b9     +LDI R27 , HIGH ( _0x8A + ( 42 ) )
                 	__POINTW2MN _0x8A,42
0009e2 940e 1ea5 	CALL _puts
                 ; 0000 00B7                 puts("2. DECIPHER\n");
                +
0009e4 e3a5     +LDI R26 , LOW ( _0x8A + ( 53 ) )
0009e5 e0b9     +LDI R27 , HIGH ( _0x8A + ( 53 ) )
                 	__POINTW2MN _0x8A,53
0009e6 940e 1ea5 	CALL _puts
                 ; 0000 00B8                 puts("3. CHANGE KEY\n");
                +
0009e8 e4a2     +LDI R26 , LOW ( _0x8A + ( 66 ) )
0009e9 e0b9     +LDI R27 , HIGH ( _0x8A + ( 66 ) )
                 	__POINTW2MN _0x8A,66
0009ea 940e 1ea5 	CALL _puts
                 ; 0000 00B9 
                 ; 0000 00BA                 option = getchar();
0009ec 940e 1e94 	CALL _getchar
0009ee 93e0 0a42 	STS  _option,R30
                 ; 0000 00BB                 switch (option) {
0009f0 e0f0      	LDI  R31,0
                 ; 0000 00BC                     case '1':
0009f1 33e1      	CPI  R30,LOW(0x31)
0009f2 e0a0      	LDI  R26,HIGH(0x31)
0009f3 07fa      	CPC  R31,R26
0009f4 f009      	BREQ PC+2
0009f5 c0e7      	RJMP _0x8E
                 ; 0000 00BD                         stop_timer_all();
0009f6 940e 21dd 	CALL SUBOPT_0x1D
                 ; 0000 00BE                         stop_timer_ciph();
                 ; 0000 00BF                         reset_timer_all();
                 ; 0000 00C0                         reset_timer_ciph();
                 ; 0000 00C1 
                 ; 0000 00C2                         puts("\n\nTYPE NAME OF FILE (WITH EXTENSION):");
                +
0009f8 e5a1     +LDI R26 , LOW ( _0x8A + ( 81 ) )
0009f9 e0b9     +LDI R27 , HIGH ( _0x8A + ( 81 ) )
                 	__POINTW2MN _0x8A,81
0009fa 940e 21f0 	CALL SUBOPT_0x20
                 ; 0000 00C3                         gets(file_name, 100);
                 ; 0000 00C4 
                 ; 0000 00C5                         /*Lectura de Archivo*/
                 ; 0000 00C6                         res = f_open(&file_in, file_name, FA_OPEN_ALWAYS | FA_WRITE | FA_READ);
0009fc 940e 21fa 	CALL SUBOPT_0x21
0009fe 940e 2200 	CALL SUBOPT_0x22
000a00 940e 2205 	CALL SUBOPT_0x23
                 ; 0000 00C7 
                 ; 0000 00C8                         if (res==FR_OK) {
000a02 f009      	BREQ PC+2
000a03 c0d6      	RJMP _0x8F
                 ; 0000 00C9                             MoveCursor(0,0);
000a04 940e 21e5 	CALL SUBOPT_0x1E
                 ; 0000 00CA                             StringLCDVar(file_name);
000a06 e4a4      	LDI  R26,LOW(_file_name)
000a07 e0ba      	LDI  R27,HIGH(_file_name)
000a08 dc7e      	RCALL _StringLCDVar
                 ; 0000 00CB                             delay_ms(1500);
000a09 edac      	LDI  R26,LOW(1500)
000a0a e0b5      	LDI  R27,HIGH(1500)
000a0b 940e 262c 	CALL _delay_ms
                 ; 0000 00CC 
                 ; 0000 00CD                             puts("\n\nTYPE NAME OF OUTPUT FILE (WITHOUT EXTENSION):");
                +
000a0d e7a7     +LDI R26 , LOW ( _0x8A + ( 119 ) )
000a0e e0b9     +LDI R27 , HIGH ( _0x8A + ( 119 ) )
                 	__POINTW2MN _0x8A,119
000a0f 940e 21f0 	CALL SUBOPT_0x20
                 ; 0000 00CE                             gets(file_name, 100);
                 ; 0000 00CF                             strcat(file_name, ".aes");
000a11 940e 2200 	CALL SUBOPT_0x22
                +
000a13 eaa7     +LDI R26 , LOW ( _0x8A + ( 167 ) )
000a14 e0b9     +LDI R27 , HIGH ( _0x8A + ( 167 ) )
                 	__POINTW2MN _0x8A,167
000a15 940e 20f8 	CALL _strcat
                 ; 0000 00D0                             res = f_open(&file_out, file_name, FA_OPEN_ALWAYS | FA_WRITE | FA_READ);
000a17 01fe      	MOVW R30,R28
000a18 93fa      	ST   -Y,R31
000a19 93ea      	ST   -Y,R30
000a1a 940e 2200 	CALL SUBOPT_0x22
000a1c 940e 2205 	CALL SUBOPT_0x23
                 ; 0000 00D1 
                 ; 0000 00D2                             if (res==FR_OK) {
000a1e f009      	BREQ PC+2
000a1f c0b2      	RJMP _0x90
                 ; 0000 00D3                                 MoveCursor(0,0);
000a20 940e 21e5 	CALL SUBOPT_0x1E
                 ; 0000 00D4                                 StringLCDVar(file_name);
000a22 e4a4      	LDI  R26,LOW(_file_name)
000a23 e0ba      	LDI  R27,HIGH(_file_name)
000a24 dc62      	RCALL _StringLCDVar
                 ; 0000 00D5                                 puts(file_name);
000a25 e4a4      	LDI  R26,LOW(_file_name)
000a26 e0ba      	LDI  R27,HIGH(_file_name)
000a27 940e 1ea5 	CALL _puts
                 ; 0000 00D6                                 delay_ms(1500);
000a29 edac      	LDI  R26,LOW(1500)
000a2a e0b5      	LDI  R27,HIGH(1500)
000a2b 940e 262c 	CALL _delay_ms
                 ; 0000 00D7 
                 ; 0000 00D8                                 EraseLCD();
000a2d dc69      	RCALL _EraseLCD
                 ; 0000 00D9                                 MoveCursor(0,0);
000a2e 940e 21e5 	CALL SUBOPT_0x1E
                 ; 0000 00DA                                 StringLCD("READING...");
                +
000a30 efaf     +LDI R26 , LOW ( 2 * _0x0 + ( 261 ) )
000a31 e0b9     +LDI R27 , HIGH ( 2 * _0x0 + ( 261 ) )
                 	__POINTW2FN _0x0,261
000a32 940e 21ea 	CALL SUBOPT_0x1F
                 ; 0000 00DB                                 delay_ms(1500);
                 ; 0000 00DC 
                 ; 0000 00DD                                 EraseLCD();
000a34 dc62      	RCALL _EraseLCD
                 ; 0000 00DE                                 MoveCursor(0,0);
000a35 940e 21e5 	CALL SUBOPT_0x1E
                 ; 0000 00DF                                 StringLCD("PROCESSING...");
                +
000a37 e0aa     +LDI R26 , LOW ( 2 * _0x0 + ( 272 ) )
000a38 e0ba     +LDI R27 , HIGH ( 2 * _0x0 + ( 272 ) )
                 	__POINTW2FN _0x0,272
000a39 940e 21ea 	CALL SUBOPT_0x1F
                 ; 0000 00E0                                 delay_ms(1500);
                 ; 0000 00E1 
                 ; 0000 00E2 
                 ; 0000 00E3                                 expand_key(key, expanded_key);
000a3b e7e6      	LDI  R30,LOW(_key)
000a3c e0fa      	LDI  R31,HIGH(_key)
000a3d 93fa      	ST   -Y,R31
000a3e 93ea      	ST   -Y,R30
000a3f e8a6      	LDI  R26,LOW(_expanded_key)
000a40 e0ba      	LDI  R27,HIGH(_expanded_key)
000a41 dccf      	RCALL _expand_key
                 ; 0000 00E4                                 start_timer_all();
000a42 df11      	RCALL _start_timer_all
                 ; 0000 00E5                                 f_read(&file_in, buffer_in, 256,&br); //leer archivo
000a43 940e 21fa 	CALL SUBOPT_0x21
000a45 940e 220b 	CALL SUBOPT_0x24
000a47 940e 2210 	CALL SUBOPT_0x25
                 ; 0000 00E6                                 n = 0;
000a49 e0e0      	LDI  R30,LOW(0)
000a4a 93e0 0a3f 	STS  _n,R30
000a4c 93e0 0a40 	STS  _n+1,R30
                 ; 0000 00E7                                 while (br == 256) {
                 _0x91:
000a4e 91a0 0a3d 	LDS  R26,_br
000a50 91b0 0a3e 	LDS  R27,_br+1
000a52 30a0      	CPI  R26,LOW(0x100)
000a53 e0e1      	LDI  R30,HIGH(0x100)
000a54 07be      	CPC  R27,R30
000a55 f009      	BREQ PC+2
000a56 c041      	RJMP _0x93
                 ; 0000 00E8                                     n++;
000a57 e3af      	LDI  R26,LOW(_n)
000a58 e0ba      	LDI  R27,HIGH(_n)
000a59 940e 2218 	CALL SUBOPT_0x26
                 ; 0000 00E9                                     start_timer_ciph();
000a5b df06      	RCALL _start_timer_ciph
                 ; 0000 00EA                                     cipher(buffer_in, br, expanded_key, buffer_out);
000a5c 940e 220b 	CALL SUBOPT_0x24
000a5e 91e0 0a3d 	LDS  R30,_br
000a60 91f0 0a3e 	LDS  R31,_br+1
000a62 93fa      	ST   -Y,R31
000a63 93ea      	ST   -Y,R30
000a64 e8e6      	LDI  R30,LOW(_expanded_key)
000a65 e0fa      	LDI  R31,HIGH(_expanded_key)
000a66 93fa      	ST   -Y,R31
000a67 93ea      	ST   -Y,R30
000a68 e4aa      	LDI  R26,LOW(_buffer_out)
000a69 e0bd      	LDI  R27,HIGH(_buffer_out)
000a6a de5e      	RCALL _cipher
                 ; 0000 00EB                                     stop_timer_ciph();
000a6b deff      	RCALL _stop_timer_ciph
                 ; 0000 00EC                                     i = br;
000a6c 91e0 0a3d 	LDS  R30,_br
000a6e 93e0 0a41 	STS  _i,R30
                 ; 0000 00ED                                     f_write(&file_out, buffer_out, i, &br);
000a70 01fe      	MOVW R30,R28
000a71 93fa      	ST   -Y,R31
000a72 93ea      	ST   -Y,R30
000a73 e4ea      	LDI  R30,LOW(_buffer_out)
000a74 e0fd      	LDI  R31,HIGH(_buffer_out)
000a75 93fa      	ST   -Y,R31
000a76 93ea      	ST   -Y,R30
000a77 91e0 0a41 	LDS  R30,_i
000a79 e0f0      	LDI  R31,0
000a7a 93fa      	ST   -Y,R31
000a7b 93ea      	ST   -Y,R30
000a7c e3ad      	LDI  R26,LOW(_br)
000a7d e0ba      	LDI  R27,HIGH(_br)
000a7e 940e 1c4e 	CALL _f_write
                 ; 0000 00EE                                     f_read(&file_in, buffer_in, 256,&br); //leer archivo
000a80 940e 21fa 	CALL SUBOPT_0x21
000a82 940e 220b 	CALL SUBOPT_0x24
000a84 940e 2210 	CALL SUBOPT_0x25
                 ; 0000 00EF                                     sprintf(aux, "BLOCK %i", n*16);
000a86 e3e6      	LDI  R30,LOW(_aux)
000a87 e0fb      	LDI  R31,HIGH(_aux)
000a88 93fa      	ST   -Y,R31
000a89 93ea      	ST   -Y,R30
                +
000a8a e1e8     +LDI R30 , LOW ( 2 * _0x0 + ( 286 ) )
000a8b e0fa     +LDI R31 , HIGH ( 2 * _0x0 + ( 286 ) )
                 	__POINTW1FN _0x0,286
000a8c 940e 221e 	CALL SUBOPT_0x27
000a8e e084      	LDI  R24,4
000a8f 940e 2064 	CALL _sprintf
000a91 9628      	ADIW R28,8
                 ; 0000 00F0                                     MoveCursor(0,1);
000a92 940e 222c 	CALL SUBOPT_0x28
                 ; 0000 00F1                                     StringLCDVar(aux);
000a94 e3a6      	LDI  R26,LOW(_aux)
000a95 e0bb      	LDI  R27,HIGH(_aux)
000a96 dbf0      	RCALL _StringLCDVar
                 ; 0000 00F2                                 }
000a97 cfb6      	RJMP _0x91
                 _0x93:
                 ; 0000 00F3                                 stop_timer_all();
000a98 dec5      	RCALL _stop_timer_all
                 ; 0000 00F4 
                 ; 0000 00F5                                 // ANTES DE LLAMAR LA FUNCION IMPRIMIR EL NOMBRE DEL ARCHIVO
                 ; 0000 00F6                                 printf("BYTES/BITS CYPHERED: %i/%i\n", n*16, n*16*8);
                +
000a99 e2e1     +LDI R30 , LOW ( 2 * _0x0 + ( 295 ) )
000a9a e0fa     +LDI R31 , HIGH ( 2 * _0x0 + ( 295 ) )
                 	__POINTW1FN _0x0,295
000a9b 940e 221e 	CALL SUBOPT_0x27
000a9d 91a0 0a3f 	LDS  R26,_n
000a9f 91b0 0a40 	LDS  R27,_n+1
000aa1 e1e0      	LDI  R30,LOW(16)
000aa2 940e 275f 	CALL __MULB1W2U
000aa4 940e 271b 	CALL __LSLW3
000aa6 2766      	CLR  R22
000aa7 2777      	CLR  R23
000aa8 940e 27dc 	CALL __PUTPARD1
000aaa e088      	LDI  R24,8
000aab 940e 209a 	CALL _printf
000aad 962a      	ADIW R28,10
                 ; 0000 00F7                                 printf("NUMBER OF BLOCKS: %i\n", n*16);
                +
000aae e3ed     +LDI R30 , LOW ( 2 * _0x0 + ( 323 ) )
000aaf e0fa     +LDI R31 , HIGH ( 2 * _0x0 + ( 323 ) )
                 	__POINTW1FN _0x0,323
000ab0 940e 221e 	CALL SUBOPT_0x27
000ab2 940e 2231 	CALL SUBOPT_0x29
                 ; 0000 00F8                                 printf("TOTAL TIME: %f\n", time_count_all/0.001);
                +
000ab4 e5e3     +LDI R30 , LOW ( 2 * _0x0 + ( 345 ) )
000ab5 e0fa     +LDI R31 , HIGH ( 2 * _0x0 + ( 345 ) )
                 	__POINTW1FN _0x0,345
000ab6 93fa      	ST   -Y,R31
000ab7 93ea      	ST   -Y,R30
000ab8 91e0 0a39 	LDS  R30,_time_count_all
000aba 91f0 0a3a 	LDS  R31,_time_count_all+1
000abc 940e 2236 	CALL SUBOPT_0x2A
                 ; 0000 00F9                                 printf("CYPHER TIME: %f\n", time_count_ciph/0.001);
                +
000abe e6e3     +LDI R30 , LOW ( 2 * _0x0 + ( 361 ) )
000abf e0fa     +LDI R31 , HIGH ( 2 * _0x0 + ( 361 ) )
                 	__POINTW1FN _0x0,361
000ac0 93fa      	ST   -Y,R31
000ac1 93ea      	ST   -Y,R30
000ac2 91e0 0a3b 	LDS  R30,_time_count_ciph
000ac4 91f0 0a3c 	LDS  R31,_time_count_ciph+1
000ac6 940e 2236 	CALL SUBOPT_0x2A
                 ; 0000 00FA 
                 ; 0000 00FB                                 EraseLCD();
000ac8 940e 2245 	CALL SUBOPT_0x2B
                 ; 0000 00FC                                 MoveCursor(0,1);
                 ; 0000 00FD                                 StringLCD("FILE SAVED");
                +
000aca e7a4     +LDI R26 , LOW ( 2 * _0x0 + ( 378 ) )
000acb e0ba     +LDI R27 , HIGH ( 2 * _0x0 + ( 378 ) )
                 	__POINTW2FN _0x0,378
000acc 940e 21ea 	CALL SUBOPT_0x1F
                 ; 0000 00FE                                 delay_ms(1500);
                 ; 0000 00FF 
                 ; 0000 0100                                 f_close(&file_out);
000ace 01de      	MOVW R26,R28
000acf 940e 2248 	CALL SUBOPT_0x2C
                 ; 0000 0101                                 delay_ms(500);
                 ; 0000 0102                             } else
000ad1 c002      	RJMP _0x94
                 _0x90:
                 ; 0000 0103                                 StringLCD("FILE NOT FOUND");
000ad2 940e 224e 	CALL SUBOPT_0x2D
                 ; 0000 0104                             f_close(&file_in);
                 _0x94:
000ad4 01de      	MOVW R26,R28
000ad5 5ea0      	SUBI R26,LOW(-(544))
000ad6 4fbd      	SBCI R27,HIGH(-(544))
000ad7 940e 1e84 	CALL _f_close
                 ; 0000 0105                         } else
000ad9 c002      	RJMP _0x95
                 _0x8F:
                 ; 0000 0106                             StringLCD("FILE NOT FOUND");
000ada 940e 224e 	CALL SUBOPT_0x2D
                 ; 0000 0107                         break;
                 _0x95:
000adc c013      	RJMP _0x8D
                 ; 0000 0108                     case '2':
                 _0x8E:
000add 33e2      	CPI  R30,LOW(0x32)
000ade e0a0      	LDI  R26,HIGH(0x32)
000adf 07fa      	CPC  R31,R26
000ae0 f419      	BRNE _0x96
                 ; 0000 0109                         puts("\n\nTYPE NAME OF FILE (WITHOUT EXTENSION)");
                +
000ae1 eaac     +LDI R26 , LOW ( _0x8A + ( 172 ) )
000ae2 e0b9     +LDI R27 , HIGH ( _0x8A + ( 172 ) )
                 	__POINTW2MN _0x8A,172
000ae3 c00a      	RJMP _0xA8
                 ; 0000 010A                         break;
                 ; 0000 010B                     case '3':
                 _0x96:
000ae4 33e3      	CPI  R30,LOW(0x33)
000ae5 e0a0      	LDI  R26,HIGH(0x33)
000ae6 07fa      	CPC  R31,R26
000ae7 f421      	BRNE _0x98
                 ; 0000 010C                         key_set = 0;
000ae8 e0e0      	LDI  R30,LOW(0)
000ae9 93e0 0a43 	STS  _key_set,R30
                 ; 0000 010D                         break;
000aeb c004      	RJMP _0x8D
                 ; 0000 010E                     default:
                 _0x98:
                 ; 0000 010F                         puts("WRONG INPUT");
                +
000aec eda4     +LDI R26 , LOW ( _0x8A + ( 212 ) )
000aed e0b9     +LDI R27 , HIGH ( _0x8A + ( 212 ) )
                 	__POINTW2MN _0x8A,212
                 _0xA8:
000aee 940e 1ea5 	CALL _puts
                 ; 0000 0110                 }
                 _0x8D:
                 ; 0000 0111             } else {
000af0 c058      	RJMP _0x99
                 _0x89:
                 ; 0000 0112                 puts("WELCOME!\n PLEASE ENTER THE NAME OF THE FILE WITH THE KEY (.txt NO EXTENSION)\n\n");
                +
000af1 eea0     +LDI R26 , LOW ( _0x8A + ( 224 ) )
000af2 e0b9     +LDI R27 , HIGH ( _0x8A + ( 224 ) )
                 	__POINTW2MN _0x8A,224
000af3 940e 21f0 	CALL SUBOPT_0x20
                 ; 0000 0113                 gets(file_name,100);
                 ; 0000 0114                 strcat(file_name, ".txt");
000af5 940e 2200 	CALL SUBOPT_0x22
                +
000af7 e2af     +LDI R26 , LOW ( _0x8A + ( 303 ) )
000af8 e0ba     +LDI R27 , HIGH ( _0x8A + ( 303 ) )
                 	__POINTW2MN _0x8A,303
000af9 940e 20f8 	CALL _strcat
                 ; 0000 0115                 /*Lectura de Archivo*/
                 ; 0000 0116                 res = f_open(&file_in, file_name, FA_OPEN_ALWAYS | FA_WRITE | FA_READ);
000afb 940e 21fa 	CALL SUBOPT_0x21
000afd 940e 2200 	CALL SUBOPT_0x22
000aff 940e 2205 	CALL SUBOPT_0x23
                 ; 0000 0117                 if (res==FR_OK){
000b01 f009      	BREQ PC+2
000b02 c044      	RJMP _0x9A
                 ; 0000 0118                     MoveCursor(0,1);
000b03 940e 222c 	CALL SUBOPT_0x28
                 ; 0000 0119                     StringLCD("FILE FOUND");
                +
000b05 e1a6     +LDI R26 , LOW ( 2 * _0x0 + ( 540 ) )
000b06 e0bb     +LDI R27 , HIGH ( 2 * _0x0 + ( 540 ) )
                 	__POINTW2FN _0x0,540
000b07 940e 21ea 	CALL SUBOPT_0x1F
                 ; 0000 011A                     delay_ms(1500);
                 ; 0000 011B 
                 ; 0000 011C                     EraseLCD();
000b09 940e 2245 	CALL SUBOPT_0x2B
                 ; 0000 011D                     MoveCursor(0,1);
                 ; 0000 011E                     StringLCD("READING  ...");
                +
000b0b e2a1     +LDI R26 , LOW ( 2 * _0x0 + ( 551 ) )
000b0c e0bb     +LDI R27 , HIGH ( 2 * _0x0 + ( 551 ) )
                 	__POINTW2FN _0x0,551
000b0d 940e 21ea 	CALL SUBOPT_0x1F
                 ; 0000 011F                     delay_ms(1500);
                 ; 0000 0120 
                 ; 0000 0121                     f_read(&file_in, buffer_in, 16,&br); //leer archivo
000b0f 940e 21fa 	CALL SUBOPT_0x21
000b11 940e 220b 	CALL SUBOPT_0x24
000b13 e1e0      	LDI  R30,LOW(16)
000b14 e0f0      	LDI  R31,HIGH(16)
000b15 93fa      	ST   -Y,R31
000b16 93ea      	ST   -Y,R30
000b17 e3ad      	LDI  R26,LOW(_br)
000b18 e0ba      	LDI  R27,HIGH(_br)
000b19 940e 1ae3 	CALL _f_read
                 ; 0000 0122 
                 ; 0000 0123                     if (br == 16) {
000b1b 91a0 0a3d 	LDS  R26,_br
000b1d 91b0 0a3e 	LDS  R27,_br+1
000b1f 9750      	SBIW R26,16
000b20 f501      	BRNE _0x9B
                 ; 0000 0124                         for (i = 0; i < 16; i++) {
000b21 e0e0      	LDI  R30,LOW(0)
000b22 93e0 0a41 	STS  _i,R30
                 _0x9D:
000b24 91a0 0a41 	LDS  R26,_i
000b26 31a0      	CPI  R26,LOW(0x10)
000b27 f480      	BRSH _0x9E
                 ; 0000 0125                             key[i] = buffer_in[i];
000b28 e0b0      	LDI  R27,0
000b29 58aa      	SUBI R26,LOW(-_key)
000b2a 4fb5      	SBCI R27,HIGH(-_key)
000b2b 91e0 0a41 	LDS  R30,_i
000b2d e0f0      	LDI  R31,0
000b2e 5be6      	SUBI R30,LOW(-_buffer_in)
000b2f 4ff4      	SBCI R31,HIGH(-_buffer_in)
000b30 81e0      	LD   R30,Z
000b31 93ec      	ST   X,R30
                 ; 0000 0126                         }
000b32 91e0 0a41 	LDS  R30,_i
000b34 5fef      	SUBI R30,-LOW(1)
000b35 93e0 0a41 	STS  _i,R30
000b37 cfec      	RJMP _0x9D
                 _0x9E:
                 ; 0000 0127                         key_set = 1;
000b38 e0e1      	LDI  R30,LOW(1)
000b39 93e0 0a43 	STS  _key_set,R30
                 ; 0000 0128                         EraseLCD();
000b3b 940e 2245 	CALL SUBOPT_0x2B
                 ; 0000 0129                         MoveCursor(0,1);
                 ; 0000 012A                         StringLCD("KEY READ");
                +
000b3d e2ae     +LDI R26 , LOW ( 2 * _0x0 + ( 564 ) )
000b3e e0bb     +LDI R27 , HIGH ( 2 * _0x0 + ( 564 ) )
                 	__POINTW2FN _0x0,564
000b3f 940e 21ea 	CALL SUBOPT_0x1F
                 ; 0000 012B                         delay_ms(1500);
                 ; 0000 012C                     }
                 ; 0000 012D 
                 ; 0000 012E                     f_close(&file_in);
                 _0x9B:
000b41 01de      	MOVW R26,R28
000b42 5ea0      	SUBI R26,LOW(-(544))
000b43 4fbd      	SBCI R27,HIGH(-(544))
000b44 940e 2248 	CALL SUBOPT_0x2C
                 ; 0000 012F                     delay_ms(500);
                 ; 0000 0130                 } else
000b46 c002      	RJMP _0x9F
                 _0x9A:
                 ; 0000 0131                     StringLCD("FILE NOT FOUND");
000b47 940e 224e 	CALL SUBOPT_0x2D
                 ; 0000 0132             }
                 _0x9F:
                 _0x99:
                 ; 0000 0133         }
000b49 ce8d      	RJMP _0x86
                 ; 0000 0134     } else {
                 _0x85:
                 ; 0000 0135         StringLCD("DRIVE NOT FOUND");
                +
000b4a e3a7     +LDI R26 , LOW ( 2 * _0x0 + ( 573 ) )
000b4b e0bb     +LDI R27 , HIGH ( 2 * _0x0 + ( 573 ) )
                 	__POINTW2FN _0x0,573
000b4c 940e 0678 	CALL _StringLCD
                 ; 0000 0136     }
                 ; 0000 0137     f_mount(0, 0); //Cerrar drive de SD
000b4e e0e0      	LDI  R30,LOW(0)
000b4f 93ea      	ST   -Y,R30
000b50 e0a0      	LDI  R26,LOW(0)
000b51 e0b0      	LDI  R27,0
000b52 940e 197d 	CALL _f_mount
                 ; 0000 0138     while(1);
                 _0xA1:
000b54 cfff      	RJMP _0xA1
                 ; 0000 0139 }
                 _0xA4:
000b55 cfff      	RJMP _0xA4
                 ; .FEND
                 
                 	.DSEG
                 _0x8A:
000900           	.BYTE 0x134
                 	#ifndef __SLEEP_DEFINED__
                 	#endif
                 
                 	.DSEG
                 
                 	.CSEG
                 _crc7_G100:
                 ; .FSTART _crc7_G100
000b56 93aa      	ST   -Y,R26
000b57 940e 2809 	CALL __SAVELOCR4
000b59 e030      	LDI  R19,LOW(0)
000b5a 811c      	LDD  R17,Y+4
                 _0x2000005:
000b5b 81ad      	LDD  R26,Y+5
000b5c 81be      	LDD  R27,Y+5+1
000b5d 912d      	LD   R18,X+
000b5e 83ad      	STD  Y+5,R26
000b5f 83be      	STD  Y+5+1,R27
000b60 e008      	LDI  R16,LOW(8)
                 _0x2000008:
000b61 0f33      	LSL  R19
000b62 2fe3      	MOV  R30,R19
000b63 27e2      	EOR  R30,R18
000b64 78e0      	ANDI R30,LOW(0x80)
000b65 f011      	BREQ _0x200000A
000b66 e0e9      	LDI  R30,LOW(9)
000b67 273e      	EOR  R19,R30
                 _0x200000A:
000b68 0f22      	LSL  R18
000b69 5001      	SUBI R16,LOW(1)
000b6a f7b1      	BRNE _0x2000008
000b6b 5011      	SUBI R17,LOW(1)
000b6c f771      	BRNE _0x2000005
000b6d 2fe3      	MOV  R30,R19
000b6e 0fee      	LSL  R30
000b6f 60e1      	ORI  R30,1
000b70 940e 2810 	CALL __LOADLOCR4
000b72 c53e      	RJMP _0x20A0015
                 ; .FEND
                 _wait_ready_G100:
                 ; .FSTART _wait_ready_G100
000b73 930a      	ST   -Y,R16
000b74 e3e2      	LDI  R30,LOW(50)
000b75 93e0 0f4c 	STS  _timer2_G100,R30
000b77 efef      	LDI  R30,LOW(255)
000b78 bdee      	OUT  0x2E,R30
                 _0x200000B:
000b79 b5ed      	IN   R30,0x2D
000b7a ffe7      	SBRS R30,7
000b7b cffd      	RJMP _0x200000B
                 _0x200000F:
000b7c efef      	LDI  R30,LOW(255)
000b7d bdee      	OUT  0x2E,R30
                 _0x2000011:
000b7e b5ed      	IN   R30,0x2D
000b7f ffe7      	SBRS R30,7
000b80 cffd      	RJMP _0x2000011
000b81 b50e      	IN   R16,46
000b82 3f0f      	CPI  R16,255
000b83 f021      	BREQ _0x2000014
000b84 91e0 0f4c 	LDS  R30,_timer2_G100
000b86 30e0      	CPI  R30,0
000b87 f409      	BRNE _0x2000015
                 _0x2000014:
000b88 c001      	RJMP _0x2000010
                 _0x2000015:
000b89 cff2      	RJMP _0x200000F
                 _0x2000010:
000b8a 2fe0      	MOV  R30,R16
000b8b c4a6      	RJMP _0x20A0016
                 ; .FEND
                 _deselect_card_G100:
                 ; .FSTART _deselect_card_G100
000b8c 9a28      	SBI  0x5,0
000b8d efef      	LDI  R30,LOW(255)
000b8e bdee      	OUT  0x2E,R30
                 _0x2000016:
000b8f b5ed      	IN   R30,0x2D
000b90 ffe7      	SBRS R30,7
000b91 cffd      	RJMP _0x2000016
000b92 9508      	RET
                 ; .FEND
                 _rx_datablock_G100:
                 ; .FSTART _rx_datablock_G100
000b93 93ba      	ST   -Y,R27
000b94 93aa      	ST   -Y,R26
000b95 940e 280a 	CALL __SAVELOCR3
000b97 e1e4      	LDI  R30,LOW(20)
000b98 93e0 0f4b 	STS  _timer1_G100,R30
                 _0x200001A:
000b9a efef      	LDI  R30,LOW(255)
000b9b bdee      	OUT  0x2E,R30
                 _0x200001C:
000b9c b5ed      	IN   R30,0x2D
000b9d ffe7      	SBRS R30,7
000b9e cffd      	RJMP _0x200001C
000b9f b50e      	IN   R16,46
000ba0 3f0f      	CPI  R16,255
000ba1 f421      	BRNE _0x200001F
000ba2 91e0 0f4b 	LDS  R30,_timer1_G100
000ba4 30e0      	CPI  R30,0
000ba5 f409      	BRNE _0x2000020
                 _0x200001F:
000ba6 c001      	RJMP _0x200001B
                 _0x2000020:
000ba7 cff2      	RJMP _0x200001A
                 _0x200001B:
000ba8 3f0e      	CPI  R16,254
000ba9 f021      	BREQ _0x2000021
000baa e0e0      	LDI  R30,LOW(0)
000bab 940e 2811 	CALL __LOADLOCR3
000bad c503      	RJMP _0x20A0015
                 _0x2000021:
                +
000bae 811d     +LDD R17 , Y + 5
000baf 812e     +LDD R18 , Y + 5 + 1
                 	__GETWRS 17,18,5
                 _0x2000023:
000bb0 efef      	LDI  R30,LOW(255)
000bb1 bdee      	OUT  0x2E,R30
                 _0x2000025:
000bb2 b5ed      	IN   R30,0x2D
000bb3 ffe7      	SBRS R30,7
000bb4 cffd      	RJMP _0x2000025
000bb5 932f      	PUSH R18
000bb6 931f      	PUSH R17
                +
000bb7 5f1f     +SUBI R17 , LOW ( - 1 )
000bb8 4f2f     +SBCI R18 , HIGH ( - 1 )
                 	__ADDWRN 17,18,1
000bb9 b5ee      	IN   R30,0x2E
000bba 91af      	POP  R26
000bbb 91bf      	POP  R27
000bbc 93ec      	ST   X,R30
000bbd efef      	LDI  R30,LOW(255)
000bbe bdee      	OUT  0x2E,R30
                 _0x2000028:
000bbf b5ed      	IN   R30,0x2D
000bc0 ffe7      	SBRS R30,7
000bc1 cffd      	RJMP _0x2000028
000bc2 932f      	PUSH R18
000bc3 931f      	PUSH R17
                +
000bc4 5f1f     +SUBI R17 , LOW ( - 1 )
000bc5 4f2f     +SBCI R18 , HIGH ( - 1 )
                 	__ADDWRN 17,18,1
000bc6 b5ee      	IN   R30,0x2E
000bc7 91af      	POP  R26
000bc8 91bf      	POP  R27
000bc9 93ec      	ST   X,R30
000bca efef      	LDI  R30,LOW(255)
000bcb bdee      	OUT  0x2E,R30
                 _0x200002B:
000bcc b5ed      	IN   R30,0x2D
000bcd ffe7      	SBRS R30,7
000bce cffd      	RJMP _0x200002B
000bcf 932f      	PUSH R18
000bd0 931f      	PUSH R17
                +
000bd1 5f1f     +SUBI R17 , LOW ( - 1 )
000bd2 4f2f     +SBCI R18 , HIGH ( - 1 )
                 	__ADDWRN 17,18,1
000bd3 b5ee      	IN   R30,0x2E
000bd4 91af      	POP  R26
000bd5 91bf      	POP  R27
000bd6 93ec      	ST   X,R30
000bd7 efef      	LDI  R30,LOW(255)
000bd8 bdee      	OUT  0x2E,R30
                 _0x200002E:
000bd9 b5ed      	IN   R30,0x2D
000bda ffe7      	SBRS R30,7
000bdb cffd      	RJMP _0x200002E
000bdc 932f      	PUSH R18
000bdd 931f      	PUSH R17
                +
000bde 5f1f     +SUBI R17 , LOW ( - 1 )
000bdf 4f2f     +SBCI R18 , HIGH ( - 1 )
                 	__ADDWRN 17,18,1
000be0 b5ee      	IN   R30,0x2E
000be1 91af      	POP  R26
000be2 91bf      	POP  R27
000be3 93ec      	ST   X,R30
000be4 81eb      	LDD  R30,Y+3
000be5 81fc      	LDD  R31,Y+3+1
000be6 9734      	SBIW R30,4
000be7 83eb      	STD  Y+3,R30
000be8 83fc      	STD  Y+3+1,R31
000be9 f631      	BRNE _0x2000023
000bea efef      	LDI  R30,LOW(255)
000beb bdee      	OUT  0x2E,R30
                 _0x2000031:
000bec b5ed      	IN   R30,0x2D
000bed ffe7      	SBRS R30,7
000bee cffd      	RJMP _0x2000031
000bef efef      	LDI  R30,LOW(255)
000bf0 bdee      	OUT  0x2E,R30
                 _0x2000034:
000bf1 b5ed      	IN   R30,0x2D
000bf2 ffe7      	SBRS R30,7
000bf3 cffd      	RJMP _0x2000034
000bf4 e0e1      	LDI  R30,LOW(1)
000bf5 940e 2811 	CALL __LOADLOCR3
000bf7 c4b9      	RJMP _0x20A0015
                 ; .FEND
                 _tx_datablock_G100:
                 ; .FSTART _tx_datablock_G100
000bf8 93aa      	ST   -Y,R26
000bf9 940e 2809 	CALL __SAVELOCR4
000bfb df77      	RCALL _wait_ready_G100
000bfc 3fef      	CPI  R30,LOW(0xFF)
000bfd f021      	BREQ _0x2000037
000bfe e0e0      	LDI  R30,LOW(0)
000bff 940e 2810 	CALL __LOADLOCR4
000c01 c4af      	RJMP _0x20A0015
                 _0x2000037:
000c02 81ec      	LDD  R30,Y+4
000c03 bdee      	OUT  0x2E,R30
                 _0x2000038:
000c04 b5ed      	IN   R30,0x2D
000c05 ffe7      	SBRS R30,7
000c06 cffd      	RJMP _0x2000038
000c07 81ac      	LDD  R26,Y+4
000c08 3fad      	CPI  R26,LOW(0xFD)
000c09 f169      	BREQ _0x200003B
000c0a e010      	LDI  R17,LOW(0)
                +
000c0b 812d     +LDD R18 , Y + 5
000c0c 813e     +LDD R19 , Y + 5 + 1
                 	__GETWRS 18,19,5
                 _0x200003D:
000c0d 01d9      	MOVW R26,R18
                +
000c0e 5f2f     +SUBI R18 , LOW ( - 1 )
000c0f 4f3f     +SBCI R19 , HIGH ( - 1 )
                 	__ADDWRN 18,19,1
000c10 91ec      	LD   R30,X
000c11 bdee      	OUT  0x2E,R30
                 _0x200003F:
000c12 b5ed      	IN   R30,0x2D
000c13 ffe7      	SBRS R30,7
000c14 cffd      	RJMP _0x200003F
000c15 01d9      	MOVW R26,R18
                +
000c16 5f2f     +SUBI R18 , LOW ( - 1 )
000c17 4f3f     +SBCI R19 , HIGH ( - 1 )
                 	__ADDWRN 18,19,1
000c18 91ec      	LD   R30,X
000c19 bdee      	OUT  0x2E,R30
                 _0x2000042:
000c1a b5ed      	IN   R30,0x2D
000c1b ffe7      	SBRS R30,7
000c1c cffd      	RJMP _0x2000042
000c1d 5011      	SUBI R17,LOW(1)
000c1e f771      	BRNE _0x200003D
000c1f efef      	LDI  R30,LOW(255)
000c20 bdee      	OUT  0x2E,R30
                 _0x2000045:
000c21 b5ed      	IN   R30,0x2D
000c22 ffe7      	SBRS R30,7
000c23 cffd      	RJMP _0x2000045
000c24 efef      	LDI  R30,LOW(255)
000c25 bdee      	OUT  0x2E,R30
                 _0x2000048:
000c26 b5ed      	IN   R30,0x2D
000c27 ffe7      	SBRS R30,7
000c28 cffd      	RJMP _0x2000048
000c29 efef      	LDI  R30,LOW(255)
000c2a bdee      	OUT  0x2E,R30
                 _0x200004B:
000c2b b5ed      	IN   R30,0x2D
000c2c ffe7      	SBRS R30,7
000c2d cffd      	RJMP _0x200004B
000c2e b50e      	IN   R16,46
000c2f 2fe0      	MOV  R30,R16
000c30 71ef      	ANDI R30,LOW(0x1F)
000c31 30e5      	CPI  R30,LOW(0x5)
000c32 f021      	BREQ _0x200004E
000c33 e0e0      	LDI  R30,LOW(0)
000c34 940e 2810 	CALL __LOADLOCR4
000c36 c47a      	RJMP _0x20A0015
                 _0x200004E:
                 _0x200003B:
000c37 e0e1      	LDI  R30,LOW(1)
000c38 940e 2810 	CALL __LOADLOCR4
000c3a c476      	RJMP _0x20A0015
                 ; .FEND
                 _send_cmd_G100:
                 ; .FSTART _send_cmd_G100
000c3b 940e 27e1 	CALL __PUTPARD2
000c3d 931a      	ST   -Y,R17
000c3e 930a      	ST   -Y,R16
000c3f 81ee      	LDD  R30,Y+6
000c40 78e0      	ANDI R30,LOW(0x80)
000c41 f081      	BREQ _0x200004F
000c42 81ee      	LDD  R30,Y+6
000c43 77ef      	ANDI R30,0x7F
000c44 83ee      	STD  Y+6,R30
000c45 e7e7      	LDI  R30,LOW(119)
000c46 93ea      	ST   -Y,R30
                +
000c47 e0a0     +LDI R26 , LOW ( 0x0 )
000c48 e0b0     +LDI R27 , HIGH ( 0x0 )
000c49 e080     +LDI R24 , BYTE3 ( 0x0 )
000c4a e090     +LDI R25 , BYTE4 ( 0x0 )
                 	__GETD2N 0x0
000c4b dfef      	RCALL _send_cmd_G100
000c4c 2f1e      	MOV  R17,R30
000c4d 3012      	CPI  R17,2
000c4e f018      	BRLO _0x2000050
000c4f 8119      	LDD  R17,Y+1
000c50 8108      	LDD  R16,Y+0
000c51 c45f      	RJMP _0x20A0015
                 _0x2000050:
                 _0x200004F:
000c52 81ae      	LDD  R26,Y+6
000c53 34ac      	CPI  R26,LOW(0x4C)
000c54 f049      	BREQ _0x2000051
000c55 df36      	RCALL _deselect_card_G100
000c56 9828      	CBI  0x5,0
000c57 df1b      	RCALL _wait_ready_G100
000c58 3fef      	CPI  R30,LOW(0xFF)
000c59 f021      	BREQ _0x2000052
000c5a efef      	LDI  R30,LOW(255)
000c5b 8119      	LDD  R17,Y+1
000c5c 8108      	LDD  R16,Y+0
000c5d c453      	RJMP _0x20A0015
                 _0x2000052:
                 _0x2000051:
000c5e 81ee      	LDD  R30,Y+6
000c5f bdee      	OUT  0x2E,R30
                 _0x2000053:
000c60 b5ed      	IN   R30,0x2D
000c61 ffe7      	SBRS R30,7
000c62 cffd      	RJMP _0x2000053
000c63 81ed      	LDD  R30,Y+5
000c64 bdee      	OUT  0x2E,R30
                 _0x2000056:
000c65 b5ed      	IN   R30,0x2D
000c66 ffe7      	SBRS R30,7
000c67 cffd      	RJMP _0x2000056
000c68 81ec      	LDD  R30,Y+4
000c69 bdee      	OUT  0x2E,R30
                 _0x2000059:
000c6a b5ed      	IN   R30,0x2D
000c6b ffe7      	SBRS R30,7
000c6c cffd      	RJMP _0x2000059
000c6d 81eb      	LDD  R30,Y+3
000c6e bdee      	OUT  0x2E,R30
                 _0x200005C:
000c6f b5ed      	IN   R30,0x2D
000c70 ffe7      	SBRS R30,7
000c71 cffd      	RJMP _0x200005C
000c72 81ea      	LDD  R30,Y+2
000c73 bdee      	OUT  0x2E,R30
                 _0x200005F:
000c74 b5ed      	IN   R30,0x2D
000c75 ffe7      	SBRS R30,7
000c76 cffd      	RJMP _0x200005F
000c77 e001      	LDI  R16,LOW(1)
000c78 81ae      	LDD  R26,Y+6
000c79 34a0      	CPI  R26,LOW(0x40)
000c7a f411      	BRNE _0x2000062
000c7b e905      	LDI  R16,LOW(149)
000c7c c004      	RJMP _0x2000063
                 _0x2000062:
000c7d 81ae      	LDD  R26,Y+6
000c7e 34a8      	CPI  R26,LOW(0x48)
000c7f f409      	BRNE _0x2000064
000c80 e807      	LDI  R16,LOW(135)
                 _0x2000064:
                 _0x2000063:
000c81 bd0e      	OUT  0x2E,R16
                 _0x2000065:
000c82 b5ed      	IN   R30,0x2D
000c83 ffe7      	SBRS R30,7
000c84 cffd      	RJMP _0x2000065
000c85 81ae      	LDD  R26,Y+6
000c86 34ac      	CPI  R26,LOW(0x4C)
000c87 f429      	BRNE _0x2000068
000c88 efef      	LDI  R30,LOW(255)
000c89 bdee      	OUT  0x2E,R30
                 _0x2000069:
000c8a b5ed      	IN   R30,0x2D
000c8b ffe7      	SBRS R30,7
000c8c cffd      	RJMP _0x2000069
                 _0x2000068:
000c8d ef0f      	LDI  R16,LOW(255)
                 _0x200006D:
000c8e efef      	LDI  R30,LOW(255)
000c8f bdee      	OUT  0x2E,R30
                 _0x200006F:
000c90 b5ed      	IN   R30,0x2D
000c91 ffe7      	SBRS R30,7
000c92 cffd      	RJMP _0x200006F
000c93 b51e      	IN   R17,46
000c94 ff17      	SBRS R17,7
000c95 c002      	RJMP _0x2000072
000c96 5001      	SUBI R16,LOW(1)
000c97 f409      	BRNE _0x2000073
                 _0x2000072:
000c98 c001      	RJMP _0x200006E
                 _0x2000073:
000c99 cff4      	RJMP _0x200006D
                 _0x200006E:
000c9a 2fe1      	MOV  R30,R17
000c9b 8119      	LDD  R17,Y+1
000c9c 8108      	LDD  R16,Y+0
000c9d c413      	RJMP _0x20A0015
                 ; .FEND
                 _rx_spi4_G100:
                 ; .FSTART _rx_spi4_G100
000c9e 93ba      	ST   -Y,R27
000c9f 93aa      	ST   -Y,R26
000ca0 930a      	ST   -Y,R16
000ca1 e004      	LDI  R16,4
                 _0x2000075:
000ca2 efef      	LDI  R30,LOW(255)
000ca3 bdee      	OUT  0x2E,R30
                 _0x2000077:
000ca4 b5ed      	IN   R30,0x2D
000ca5 ffe7      	SBRS R30,7
000ca6 cffd      	RJMP _0x2000077
000ca7 81a9      	LDD  R26,Y+1
000ca8 81ba      	LDD  R27,Y+1+1
000ca9 9611      	ADIW R26,1
000caa 83a9      	STD  Y+1,R26
000cab 83ba      	STD  Y+1+1,R27
000cac 9711      	SBIW R26,1
000cad b5ee      	IN   R30,0x2E
000cae 93ec      	ST   X,R30
000caf 5001      	SUBI R16,LOW(1)
000cb0 f789      	BRNE _0x2000075
000cb1 c4e6      	RJMP _0x20A0014
                 ; .FEND
                 _disk_initialize:
                 ; .FSTART _disk_initialize
000cb2 93aa      	ST   -Y,R26
000cb3 9724      	SBIW R28,4
000cb4 940e 280a 	CALL __SAVELOCR3
000cb6 81ef      	LDD  R30,Y+7
000cb7 30e0      	CPI  R30,0
000cb8 f021      	BREQ _0x200007A
000cb9 e0e1      	LDI  R30,LOW(1)
000cba 940e 2811 	CALL __LOADLOCR3
000cbc c1aa      	RJMP _0x20A0018
                 _0x200007A:
000cbd 9824      	CBI  0x4,4
000cbe 9825      	CBI  0x4,5
000cbf e0ea      	LDI  R30,LOW(10)
000cc0 93e0 0f4b 	STS  _timer1_G100,R30
                 _0x200007B:
000cc2 91e0 0f4b 	LDS  R30,_timer1_G100
000cc4 30e0      	CPI  R30,0
000cc5 f7e1      	BRNE _0x200007B
000cc6 91e0 0f4a 	LDS  R30,_status_G100
000cc8 70e2      	ANDI R30,LOW(0x2)
000cc9 f029      	BREQ _0x200007E
000cca 91e0 0f4a 	LDS  R30,_status_G100
000ccc 940e 2811 	CALL __LOADLOCR3
000cce c198      	RJMP _0x20A0018
                 _0x200007E:
000ccf 9a20      	SBI  0x4,0
000cd0 9a28      	SBI  0x5,0
000cd1 b1e5      	IN   R30,0x5
000cd2 7fe9      	ANDI R30,LOW(0xF9)
000cd3 b9e5      	OUT  0x5,R30
000cd4 9a2b      	SBI  0x5,3
000cd5 9823      	CBI  0x4,3
000cd6 b1e4      	IN   R30,0x4
000cd7 60e7      	ORI  R30,LOW(0x7)
000cd8 b9e4      	OUT  0x4,R30
000cd9 e5e3      	LDI  R30,LOW(83)
000cda bdec      	OUT  0x2C,R30
000cdb e0e0      	LDI  R30,LOW(0)
000cdc bded      	OUT  0x2D,R30
000cdd ef2f      	LDI  R18,LOW(255)
                 _0x2000080:
000cde e00a      	LDI  R16,LOW(10)
                 _0x2000083:
000cdf efef      	LDI  R30,LOW(255)
000ce0 bdee      	OUT  0x2E,R30
                 _0x2000085:
000ce1 b5ed      	IN   R30,0x2D
000ce2 ffe7      	SBRS R30,7
000ce3 cffd      	RJMP _0x2000085
000ce4 5001      	SUBI R16,LOW(1)
000ce5 f7c9      	BRNE _0x2000083
000ce6 e4e0      	LDI  R30,LOW(64)
000ce7 93ea      	ST   -Y,R30
                +
000ce8 e0a0     +LDI R26 , LOW ( 0x0 )
000ce9 e0b0     +LDI R27 , HIGH ( 0x0 )
000cea e080     +LDI R24 , BYTE3 ( 0x0 )
000ceb e090     +LDI R25 , BYTE4 ( 0x0 )
                 	__GETD2N 0x0
000cec df4e      	RCALL _send_cmd_G100
000ced 2f1e      	MOV  R17,R30
000cee 5021      	SUBI R18,LOW(1)
000cef 3011      	CPI  R17,1
000cf0 f011      	BREQ _0x2000088
000cf1 3020      	CPI  R18,0
000cf2 f409      	BRNE _0x2000089
                 _0x2000088:
000cf3 c001      	RJMP _0x2000081
                 _0x2000089:
000cf4 cfe9      	RJMP _0x2000080
                 _0x2000081:
000cf5 e020      	LDI  R18,LOW(0)
000cf6 3011      	CPI  R17,1
000cf7 f009      	BREQ PC+2
000cf8 c068      	RJMP _0x200008A
000cf9 e6e4      	LDI  R30,LOW(100)
000cfa 93e0 0f4b 	STS  _timer1_G100,R30
000cfc e4e8      	LDI  R30,LOW(72)
000cfd 93ea      	ST   -Y,R30
                +
000cfe eaaa     +LDI R26 , LOW ( 0x1AA )
000cff e0b1     +LDI R27 , HIGH ( 0x1AA )
000d00 e080     +LDI R24 , BYTE3 ( 0x1AA )
000d01 e090     +LDI R25 , BYTE4 ( 0x1AA )
                 	__GETD2N 0x1AA
000d02 df38      	RCALL _send_cmd_G100
000d03 30e1      	CPI  R30,LOW(0x1)
000d04 f591      	BRNE _0x200008B
000d05 01de      	MOVW R26,R28
000d06 9613      	ADIW R26,3
000d07 df96      	RCALL _rx_spi4_G100
000d08 81ad      	LDD  R26,Y+5
000d09 30a1      	CPI  R26,LOW(0x1)
000d0a f419      	BRNE _0x200008D
000d0b 81ae      	LDD  R26,Y+6
000d0c 3aaa      	CPI  R26,LOW(0xAA)
000d0d f009      	BREQ _0x200008E
                 _0x200008D:
000d0e c027      	RJMP _0x200008C
                 _0x200008E:
                 _0x200008F:
000d0f 91e0 0f4b 	LDS  R30,_timer1_G100
000d11 30e0      	CPI  R30,0
000d12 f049      	BREQ _0x2000092
000d13 eee9      	LDI  R30,LOW(233)
000d14 93ea      	ST   -Y,R30
                +
000d15 e0a0     +LDI R26 , LOW ( 0x40000000 )
000d16 e0b0     +LDI R27 , HIGH ( 0x40000000 )
000d17 e080     +LDI R24 , BYTE3 ( 0x40000000 )
000d18 e490     +LDI R25 , BYTE4 ( 0x40000000 )
                 	__GETD2N 0x40000000
000d19 df21      	RCALL _send_cmd_G100
000d1a 30e0      	CPI  R30,0
000d1b f409      	BRNE _0x2000093
                 _0x2000092:
000d1c c001      	RJMP _0x2000091
                 _0x2000093:
000d1d cff1      	RJMP _0x200008F
                 _0x2000091:
000d1e 91e0 0f4b 	LDS  R30,_timer1_G100
000d20 30e0      	CPI  R30,0
000d21 f049      	BREQ _0x2000095
000d22 e7ea      	LDI  R30,LOW(122)
000d23 93ea      	ST   -Y,R30
                +
000d24 e0a0     +LDI R26 , LOW ( 0x0 )
000d25 e0b0     +LDI R27 , HIGH ( 0x0 )
000d26 e080     +LDI R24 , BYTE3 ( 0x0 )
000d27 e090     +LDI R25 , BYTE4 ( 0x0 )
                 	__GETD2N 0x0
000d28 df12      	RCALL _send_cmd_G100
000d29 30e0      	CPI  R30,0
000d2a f009      	BREQ _0x2000096
                 _0x2000095:
000d2b c00a      	RJMP _0x2000094
                 _0x2000096:
000d2c 01de      	MOVW R26,R28
000d2d 9613      	ADIW R26,3
000d2e df6f      	RCALL _rx_spi4_G100
000d2f 81eb      	LDD  R30,Y+3
000d30 74e0      	ANDI R30,LOW(0x40)
000d31 f011      	BREQ _0x2000097
000d32 e0ec      	LDI  R30,LOW(12)
000d33 c001      	RJMP _0x2000098
                 _0x2000097:
000d34 e0e4      	LDI  R30,LOW(4)
                 _0x2000098:
000d35 2f2e      	MOV  R18,R30
                 _0x2000094:
                 _0x200008C:
000d36 c02a      	RJMP _0x200009A
                 _0x200008B:
000d37 eee9      	LDI  R30,LOW(233)
000d38 93ea      	ST   -Y,R30
                +
000d39 e0a0     +LDI R26 , LOW ( 0x0 )
000d3a e0b0     +LDI R27 , HIGH ( 0x0 )
000d3b e080     +LDI R24 , BYTE3 ( 0x0 )
000d3c e090     +LDI R25 , BYTE4 ( 0x0 )
                 	__GETD2N 0x0
000d3d defd      	RCALL _send_cmd_G100
000d3e 30e2      	CPI  R30,LOW(0x2)
000d3f f418      	BRSH _0x200009B
000d40 e022      	LDI  R18,LOW(2)
000d41 ee19      	LDI  R17,LOW(233)
000d42 c002      	RJMP _0x200009C
                 _0x200009B:
000d43 e021      	LDI  R18,LOW(1)
000d44 e411      	LDI  R17,LOW(65)
                 _0x200009C:
                 _0x200009D:
000d45 91e0 0f4b 	LDS  R30,_timer1_G100
000d47 30e0      	CPI  R30,0
000d48 f041      	BREQ _0x20000A0
000d49 931a      	ST   -Y,R17
                +
000d4a e0a0     +LDI R26 , LOW ( 0x0 )
000d4b e0b0     +LDI R27 , HIGH ( 0x0 )
000d4c e080     +LDI R24 , BYTE3 ( 0x0 )
000d4d e090     +LDI R25 , BYTE4 ( 0x0 )
                 	__GETD2N 0x0
000d4e deec      	RCALL _send_cmd_G100
000d4f 30e0      	CPI  R30,0
000d50 f409      	BRNE _0x20000A1
                 _0x20000A0:
000d51 c001      	RJMP _0x200009F
                 _0x20000A1:
000d52 cff2      	RJMP _0x200009D
                 _0x200009F:
000d53 91e0 0f4b 	LDS  R30,_timer1_G100
000d55 30e0      	CPI  R30,0
000d56 f049      	BREQ _0x20000A3
000d57 e5e0      	LDI  R30,LOW(80)
000d58 93ea      	ST   -Y,R30
                +
000d59 e0a0     +LDI R26 , LOW ( 0x200 )
000d5a e0b2     +LDI R27 , HIGH ( 0x200 )
000d5b e080     +LDI R24 , BYTE3 ( 0x200 )
000d5c e090     +LDI R25 , BYTE4 ( 0x200 )
                 	__GETD2N 0x200
000d5d dedd      	RCALL _send_cmd_G100
000d5e 30e0      	CPI  R30,0
000d5f f009      	BREQ _0x20000A2
                 _0x20000A3:
000d60 e020      	LDI  R18,LOW(0)
                 _0x20000A2:
                 _0x200009A:
                 _0x200008A:
000d61 9320 0f4d 	STS  _card_type_G100,R18
000d63 de28      	RCALL _deselect_card_G100
000d64 3020      	CPI  R18,0
000d65 f041      	BREQ _0x20000A5
000d66 91e0 0f4a 	LDS  R30,_status_G100
000d68 7fee      	ANDI R30,0xFE
000d69 93e0 0f4a 	STS  _status_G100,R30
000d6b e5e0      	LDI  R30,LOW(80)
000d6c bdec      	OUT  0x2C,R30
000d6d c011      	RJMP _0x20000A6
                 _0x20000A5:
000d6e 9828      	CBI  0x5,0
000d6f de03      	RCALL _wait_ready_G100
000d70 de1b      	RCALL _deselect_card_G100
000d71 e0e0      	LDI  R30,LOW(0)
000d72 bdec      	OUT  0x2C,R30
000d73 b1e4      	IN   R30,0x4
000d74 7fe0      	ANDI R30,LOW(0xF0)
000d75 b9e4      	OUT  0x4,R30
000d76 b1e5      	IN   R30,0x5
000d77 7fe0      	ANDI R30,LOW(0xF0)
000d78 b9e5      	OUT  0x5,R30
000d79 9820      	CBI  0x4,0
000d7a 91e0 0f4a 	LDS  R30,_status_G100
000d7c 60e1      	ORI  R30,1
000d7d 93e0 0f4a 	STS  _status_G100,R30
                 _0x20000A6:
000d7f 91e0 0f4a 	LDS  R30,_status_G100
000d81 940e 2811 	CALL __LOADLOCR3
000d83 c0e3      	RJMP _0x20A0018
                 ; .FEND
                 _disk_status:
                 ; .FSTART _disk_status
000d84 93aa      	ST   -Y,R26
000d85 81e8      	LD   R30,Y
000d86 30e0      	CPI  R30,0
000d87 f011      	BREQ _0x20000A7
000d88 e0e1      	LDI  R30,LOW(1)
000d89 c002      	RJMP _0x20A0019
                 _0x20000A7:
000d8a 91e0 0f4a 	LDS  R30,_status_G100
                 _0x20A0019:
000d8c 9621      	ADIW R28,1
000d8d 9508      	RET
                 ; .FEND
                 _disk_read:
                 ; .FSTART _disk_read
000d8e 93aa      	ST   -Y,R26
000d8f 81ef      	LDD  R30,Y+7
000d90 30e0      	CPI  R30,0
000d91 f419      	BRNE _0x20000A9
000d92 81e8      	LD   R30,Y
000d93 30e0      	CPI  R30,0
000d94 f411      	BRNE _0x20000A8
                 _0x20000A9:
000d95 e0e4      	LDI  R30,LOW(4)
000d96 c0d0      	RJMP _0x20A0018
                 _0x20000A8:
000d97 91e0 0f4a 	LDS  R30,_status_G100
000d99 70e1      	ANDI R30,LOW(0x1)
000d9a f011      	BREQ _0x20000AB
000d9b e0e3      	LDI  R30,LOW(3)
000d9c c0ca      	RJMP _0x20A0018
                 _0x20000AB:
000d9d 91e0 0f4d 	LDS  R30,_card_type_G100
000d9f 70e8      	ANDI R30,LOW(0x8)
000da0 f471      	BRNE _0x20000AC
                +
000da1 81e9     +LDD R30 , Y + 1
000da2 81fa     +LDD R31 , Y + 1 + 1
000da3 816b     +LDD R22 , Y + 1 + 2
000da4 817c     +LDD R23 , Y + 1 + 3
                 	__GETD1S 1
                +
000da5 e0a0     +LDI R26 , LOW ( 0x200 )
000da6 e0b2     +LDI R27 , HIGH ( 0x200 )
000da7 e080     +LDI R24 , BYTE3 ( 0x200 )
000da8 e090     +LDI R25 , BYTE4 ( 0x200 )
                 	__GETD2N 0x200
000da9 940e 273f 	CALL __MULD12U
                +
000dab 83e9     +STD Y + 1 , R30
000dac 83fa     +STD Y + 1 + 1 , R31
000dad 836b     +STD Y + 1 + 2 , R22
000dae 837c     +STD Y + 1 + 3 , R23
                 	__PUTD1S 1
                 _0x20000AC:
000daf 81a8      	LD   R26,Y
000db0 30a1      	CPI  R26,LOW(0x1)
000db1 f4a9      	BRNE _0x20000AD
000db2 e5e1      	LDI  R30,LOW(81)
000db3 93ea      	ST   -Y,R30
                +
000db4 81aa     +LDD R26 , Y + 2
000db5 81bb     +LDD R27 , Y + 2 + 1
000db6 818c     +LDD R24 , Y + 2 + 2
000db7 819d     +LDD R25 , Y + 2 + 3
                 	__GETD2S 2
000db8 de82      	RCALL _send_cmd_G100
000db9 30e0      	CPI  R30,0
000dba f459      	BRNE _0x20000AE
000dbb 81ed      	LDD  R30,Y+5
000dbc 81fe      	LDD  R31,Y+5+1
000dbd 93fa      	ST   -Y,R31
000dbe 93ea      	ST   -Y,R30
000dbf e0a0      	LDI  R26,LOW(512)
000dc0 e0b2      	LDI  R27,HIGH(512)
000dc1 ddd1      	RCALL _rx_datablock_G100
000dc2 30e0      	CPI  R30,0
000dc3 f011      	BREQ _0x20000AF
000dc4 e0e0      	LDI  R30,LOW(0)
000dc5 83e8      	ST   Y,R30
                 _0x20000AF:
                 _0x20000AE:
000dc6 c023      	RJMP _0x20000B0
                 _0x20000AD:
000dc7 e5e2      	LDI  R30,LOW(82)
000dc8 93ea      	ST   -Y,R30
                +
000dc9 81aa     +LDD R26 , Y + 2
000dca 81bb     +LDD R27 , Y + 2 + 1
000dcb 818c     +LDD R24 , Y + 2 + 2
000dcc 819d     +LDD R25 , Y + 2 + 3
                 	__GETD2S 2
000dcd de6d      	RCALL _send_cmd_G100
000dce 30e0      	CPI  R30,0
000dcf f4d1      	BRNE _0x20000B1
                 _0x20000B3:
000dd0 81ed      	LDD  R30,Y+5
000dd1 81fe      	LDD  R31,Y+5+1
000dd2 93fa      	ST   -Y,R31
000dd3 93ea      	ST   -Y,R30
000dd4 e0a0      	LDI  R26,LOW(512)
000dd5 e0b2      	LDI  R27,HIGH(512)
000dd6 ddbc      	RCALL _rx_datablock_G100
000dd7 30e0      	CPI  R30,0
000dd8 f051      	BREQ _0x20000B4
000dd9 81ed      	LDD  R30,Y+5
000dda 81fe      	LDD  R31,Y+5+1
000ddb 50e0      	SUBI R30,LOW(-512)
000ddc 4ffe      	SBCI R31,HIGH(-512)
000ddd 83ed      	STD  Y+5,R30
000dde 83fe      	STD  Y+5+1,R31
000ddf 81e8      	LD   R30,Y
000de0 50e1      	SUBI R30,LOW(1)
000de1 83e8      	ST   Y,R30
000de2 f769      	BRNE _0x20000B3
                 _0x20000B4:
000de3 e4ec      	LDI  R30,LOW(76)
000de4 93ea      	ST   -Y,R30
                +
000de5 e0a0     +LDI R26 , LOW ( 0x0 )
000de6 e0b0     +LDI R27 , HIGH ( 0x0 )
000de7 e080     +LDI R24 , BYTE3 ( 0x0 )
000de8 e090     +LDI R25 , BYTE4 ( 0x0 )
                 	__GETD2N 0x0
000de9 de51      	RCALL _send_cmd_G100
                 _0x20000B1:
                 _0x20000B0:
000dea dda1      	RCALL _deselect_card_G100
000deb 81e8      	LD   R30,Y
000dec 30e0      	CPI  R30,0
000ded f011      	BREQ _0x20000B6
000dee e0e1      	LDI  R30,LOW(1)
000def c001      	RJMP _0x20000B7
                 _0x20000B6:
000df0 e0e0      	LDI  R30,LOW(0)
                 _0x20000B7:
000df1 c075      	RJMP _0x20A0018
                 ; .FEND
                 _disk_write:
                 ; .FSTART _disk_write
000df2 93aa      	ST   -Y,R26
000df3 81ef      	LDD  R30,Y+7
000df4 30e0      	CPI  R30,0
000df5 f419      	BRNE _0x20000BA
000df6 81e8      	LD   R30,Y
000df7 30e0      	CPI  R30,0
000df8 f411      	BRNE _0x20000B9
                 _0x20000BA:
000df9 e0e4      	LDI  R30,LOW(4)
000dfa c06c      	RJMP _0x20A0018
                 _0x20000B9:
000dfb 91e0 0f4a 	LDS  R30,_status_G100
000dfd 70e1      	ANDI R30,LOW(0x1)
000dfe f011      	BREQ _0x20000BC
000dff e0e3      	LDI  R30,LOW(3)
000e00 c066      	RJMP _0x20A0018
                 _0x20000BC:
000e01 91e0 0f4a 	LDS  R30,_status_G100
000e03 70e4      	ANDI R30,LOW(0x4)
000e04 f011      	BREQ _0x20000BD
000e05 e0e2      	LDI  R30,LOW(2)
000e06 c060      	RJMP _0x20A0018
                 _0x20000BD:
000e07 91e0 0f4d 	LDS  R30,_card_type_G100
000e09 70e8      	ANDI R30,LOW(0x8)
000e0a f471      	BRNE _0x20000BE
                +
000e0b 81e9     +LDD R30 , Y + 1
000e0c 81fa     +LDD R31 , Y + 1 + 1
000e0d 816b     +LDD R22 , Y + 1 + 2
000e0e 817c     +LDD R23 , Y + 1 + 3
                 	__GETD1S 1
                +
000e0f e0a0     +LDI R26 , LOW ( 0x200 )
000e10 e0b2     +LDI R27 , HIGH ( 0x200 )
000e11 e080     +LDI R24 , BYTE3 ( 0x200 )
000e12 e090     +LDI R25 , BYTE4 ( 0x200 )
                 	__GETD2N 0x200
000e13 940e 273f 	CALL __MULD12U
                +
000e15 83e9     +STD Y + 1 , R30
000e16 83fa     +STD Y + 1 + 1 , R31
000e17 836b     +STD Y + 1 + 2 , R22
000e18 837c     +STD Y + 1 + 3 , R23
                 	__PUTD1S 1
                 _0x20000BE:
000e19 81a8      	LD   R26,Y
000e1a 30a1      	CPI  R26,LOW(0x1)
000e1b f4a1      	BRNE _0x20000BF
000e1c e5e8      	LDI  R30,LOW(88)
000e1d 93ea      	ST   -Y,R30
                +
000e1e 81aa     +LDD R26 , Y + 2
000e1f 81bb     +LDD R27 , Y + 2 + 1
000e20 818c     +LDD R24 , Y + 2 + 2
000e21 819d     +LDD R25 , Y + 2 + 3
                 	__GETD2S 2
000e22 de18      	RCALL _send_cmd_G100
000e23 30e0      	CPI  R30,0
000e24 f451      	BRNE _0x20000C0
000e25 81ed      	LDD  R30,Y+5
000e26 81fe      	LDD  R31,Y+5+1
000e27 93fa      	ST   -Y,R31
000e28 93ea      	ST   -Y,R30
000e29 efae      	LDI  R26,LOW(254)
000e2a ddcd      	RCALL _tx_datablock_G100
000e2b 30e0      	CPI  R30,0
000e2c f011      	BREQ _0x20000C1
000e2d e0e0      	LDI  R30,LOW(0)
000e2e 83e8      	ST   Y,R30
                 _0x20000C1:
                 _0x20000C0:
000e2f c030      	RJMP _0x20000C2
                 _0x20000BF:
000e30 91e0 0f4d 	LDS  R30,_card_type_G100
000e32 70e6      	ANDI R30,LOW(0x6)
000e33 f039      	BREQ _0x20000C3
000e34 ede7      	LDI  R30,LOW(215)
000e35 93ea      	ST   -Y,R30
000e36 81a9      	LDD  R26,Y+1
000e37 27bb      	CLR  R27
000e38 2788      	CLR  R24
000e39 2799      	CLR  R25
000e3a de00      	RCALL _send_cmd_G100
                 _0x20000C3:
000e3b e5e9      	LDI  R30,LOW(89)
000e3c 93ea      	ST   -Y,R30
                +
000e3d 81aa     +LDD R26 , Y + 2
000e3e 81bb     +LDD R27 , Y + 2 + 1
000e3f 818c     +LDD R24 , Y + 2 + 2
000e40 819d     +LDD R25 , Y + 2 + 3
                 	__GETD2S 2
000e41 ddf9      	RCALL _send_cmd_G100
000e42 30e0      	CPI  R30,0
000e43 f4e1      	BRNE _0x20000C4
                 _0x20000C6:
000e44 81ed      	LDD  R30,Y+5
000e45 81fe      	LDD  R31,Y+5+1
000e46 93fa      	ST   -Y,R31
000e47 93ea      	ST   -Y,R30
000e48 efac      	LDI  R26,LOW(252)
000e49 ddae      	RCALL _tx_datablock_G100
000e4a 30e0      	CPI  R30,0
000e4b f051      	BREQ _0x20000C7
000e4c 81ed      	LDD  R30,Y+5
000e4d 81fe      	LDD  R31,Y+5+1
000e4e 50e0      	SUBI R30,LOW(-512)
000e4f 4ffe      	SBCI R31,HIGH(-512)
000e50 83ed      	STD  Y+5,R30
000e51 83fe      	STD  Y+5+1,R31
000e52 81e8      	LD   R30,Y
000e53 50e1      	SUBI R30,LOW(1)
000e54 83e8      	ST   Y,R30
000e55 f771      	BRNE _0x20000C6
                 _0x20000C7:
000e56 e0e0      	LDI  R30,LOW(0)
000e57 e0f0      	LDI  R31,HIGH(0)
000e58 93fa      	ST   -Y,R31
000e59 93ea      	ST   -Y,R30
000e5a efad      	LDI  R26,LOW(253)
000e5b dd9c      	RCALL _tx_datablock_G100
000e5c 30e0      	CPI  R30,0
000e5d f411      	BRNE _0x20000C9
000e5e e0e1      	LDI  R30,LOW(1)
000e5f 83e8      	ST   Y,R30
                 _0x20000C9:
                 _0x20000C4:
                 _0x20000C2:
000e60 dd2b      	RCALL _deselect_card_G100
000e61 81e8      	LD   R30,Y
000e62 30e0      	CPI  R30,0
000e63 f011      	BREQ _0x20000CA
000e64 e0e1      	LDI  R30,LOW(1)
000e65 c001      	RJMP _0x20000CB
                 _0x20000CA:
000e66 e0e0      	LDI  R30,LOW(0)
                 _0x20000CB:
                 _0x20A0018:
000e67 9628      	ADIW R28,8
000e68 9508      	RET
                 ; .FEND
                 _disk_ioctl:
                 ; .FSTART _disk_ioctl
000e69 93ba      	ST   -Y,R27
000e6a 93aa      	ST   -Y,R26
000e6b 9760      	SBIW R28,16
000e6c 940e 2809 	CALL __SAVELOCR4
000e6e 89ef      	LDD  R30,Y+23
000e6f 30e0      	CPI  R30,0
000e70 f011      	BREQ _0x20000CD
000e71 e0e4      	LDI  R30,LOW(4)
000e72 c187      	RJMP _0x20A0017
                 _0x20000CD:
000e73 91e0 0f4a 	LDS  R30,_status_G100
000e75 70e1      	ANDI R30,LOW(0x1)
000e76 f011      	BREQ _0x20000CE
000e77 e0e3      	LDI  R30,LOW(3)
000e78 c181      	RJMP _0x20A0017
                 _0x20000CE:
000e79 e001      	LDI  R16,LOW(1)
000e7a 89ee      	LDD  R30,Y+22
000e7b 30e0      	CPI  R30,0
000e7c f431      	BRNE _0x20000D2
000e7d 9828      	CBI  0x5,0
000e7e dcf4      	RCALL _wait_ready_G100
000e7f 3fef      	CPI  R30,LOW(0xFF)
000e80 f409      	BRNE _0x20000D3
000e81 e000      	LDI  R16,LOW(0)
                 _0x20000D3:
000e82 c175      	RJMP _0x20000D1
                 _0x20000D2:
000e83 30e1      	CPI  R30,LOW(0x1)
000e84 f009      	BREQ PC+2
000e85 c05f      	RJMP _0x20000D4
000e86 e4e9      	LDI  R30,LOW(73)
000e87 93ea      	ST   -Y,R30
                +
000e88 e0a0     +LDI R26 , LOW ( 0x0 )
000e89 e0b0     +LDI R27 , HIGH ( 0x0 )
000e8a e080     +LDI R24 , BYTE3 ( 0x0 )
000e8b e090     +LDI R25 , BYTE4 ( 0x0 )
                 	__GETD2N 0x0
000e8c ddae      	RCALL _send_cmd_G100
000e8d 30e0      	CPI  R30,0
000e8e f449      	BRNE _0x20000D6
000e8f 01fe      	MOVW R30,R28
000e90 9634      	ADIW R30,4
000e91 93fa      	ST   -Y,R31
000e92 93ea      	ST   -Y,R30
000e93 e1a0      	LDI  R26,LOW(16)
000e94 e0b0      	LDI  R27,0
000e95 dcfd      	RCALL _rx_datablock_G100
000e96 30e0      	CPI  R30,0
000e97 f409      	BRNE _0x20000D7
                 _0x20000D6:
000e98 c04b      	RJMP _0x20000D5
                 _0x20000D7:
000e99 81ec      	LDD  R30,Y+4
000e9a 95e2      	SWAP R30
000e9b 70ef      	ANDI R30,0xF
000e9c 95e6      	LSR  R30
000e9d 95e6      	LSR  R30
000e9e 30e1      	CPI  R30,LOW(0x1)
000e9f f479      	BRNE _0x20000D8
000ea0 e0e0      	LDI  R30,0
000ea1 85fc      	LDD  R31,Y+12
000ea2 85ad      	LDD  R26,Y+13
000ea3 e0b0      	LDI  R27,0
000ea4 0fea      	ADD  R30,R26
000ea5 1ffb      	ADC  R31,R27
000ea6 9631      	ADIW R30,1
                +
000ea7 2f1e     +MOV R17 , R30
000ea8 2f2f     +MOV R18 , R31
                 	__PUTW1R 17,18
                +
000ea9 2fa1     +MOV R26 , R17
000eaa 2fb2     +MOV R27 , R18
                 	__GETW2R 17,18
000eab 2788      	CLR  R24
000eac 2799      	CLR  R25
000ead e0ea      	LDI  R30,LOW(10)
000eae c02e      	RJMP _0x2000109
                 _0x20000D8:
000eaf 85e9      	LDD  R30,Y+9
000eb0 70ef      	ANDI R30,LOW(0xF)
000eb1 2fae      	MOV  R26,R30
000eb2 85ee      	LDD  R30,Y+14
000eb3 78e0      	ANDI R30,LOW(0x80)
000eb4 1fee      	ROL  R30
000eb5 e0e0      	LDI  R30,0
000eb6 1fee      	ROL  R30
000eb7 0fae      	ADD  R26,R30
000eb8 85ed      	LDD  R30,Y+13
000eb9 70e3      	ANDI R30,LOW(0x3)
000eba 0fee      	LSL  R30
000ebb 0fea      	ADD  R30,R26
000ebc 5fee      	SUBI R30,-LOW(2)
000ebd 2f3e      	MOV  R19,R30
000ebe 85ec      	LDD  R30,Y+12
000ebf 95e2      	SWAP R30
000ec0 70ef      	ANDI R30,0xF
000ec1 95e6      	LSR  R30
000ec2 95e6      	LSR  R30
000ec3 2fae      	MOV  R26,R30
000ec4 85eb      	LDD  R30,Y+11
000ec5 e0f0      	LDI  R31,0
000ec6 940e 271d 	CALL __LSLW2
000ec8 e0b0      	LDI  R27,0
000ec9 0fae      	ADD  R26,R30
000eca 1fbf      	ADC  R27,R31
000ecb 85ea      	LDD  R30,Y+10
000ecc 70e3      	ANDI R30,LOW(0x3)
000ecd e0f0      	LDI  R31,0
000ece 940e 271d 	CALL __LSLW2
000ed0 2ffe      	MOV  R31,R30
000ed1 e0e0      	LDI  R30,0
000ed2 0fea      	ADD  R30,R26
000ed3 1ffb      	ADC  R31,R27
000ed4 9631      	ADIW R30,1
                +
000ed5 2f1e     +MOV R17 , R30
000ed6 2f2f     +MOV R18 , R31
                 	__PUTW1R 17,18
                +
000ed7 2fa1     +MOV R26 , R17
000ed8 2fb2     +MOV R27 , R18
                 	__GETW2R 17,18
000ed9 2788      	CLR  R24
000eda 2799      	CLR  R25
000edb 2fe3      	MOV  R30,R19
000edc 50e9      	SUBI R30,LOW(9)
                 _0x2000109:
000edd 940e 2701 	CALL __LSLD12
000edf 89ac      	LDD  R26,Y+20
000ee0 89bd      	LDD  R27,Y+20+1
000ee1 940e 27ba 	CALL __PUTDP1
000ee3 e000      	LDI  R16,LOW(0)
                 _0x20000D5:
000ee4 c113      	RJMP _0x20000D1
                 _0x20000D4:
000ee5 30e2      	CPI  R30,LOW(0x2)
000ee6 f441      	BRNE _0x20000DA
000ee7 89ac      	LDD  R26,Y+20
000ee8 89bd      	LDD  R27,Y+20+1
000ee9 e0e0      	LDI  R30,LOW(512)
000eea e0f2      	LDI  R31,HIGH(512)
000eeb 93ed      	ST   X+,R30
000eec 93fc      	ST   X,R31
000eed e000      	LDI  R16,LOW(0)
000eee c109      	RJMP _0x20000D1
                 _0x20000DA:
000eef 30e3      	CPI  R30,LOW(0x3)
000ef0 f009      	BREQ PC+2
000ef1 c0ab      	RJMP _0x20000DB
000ef2 91e0 0f4d 	LDS  R30,_card_type_G100
000ef4 70e4      	ANDI R30,LOW(0x4)
000ef5 f181      	BREQ _0x20000DC
000ef6 eced      	LDI  R30,LOW(205)
000ef7 93ea      	ST   -Y,R30
                +
000ef8 e0a0     +LDI R26 , LOW ( 0x0 )
000ef9 e0b0     +LDI R27 , HIGH ( 0x0 )
000efa e080     +LDI R24 , BYTE3 ( 0x0 )
000efb e090     +LDI R25 , BYTE4 ( 0x0 )
                 	__GETD2N 0x0
000efc dd3e      	RCALL _send_cmd_G100
000efd 30e0      	CPI  R30,0
000efe f531      	BRNE _0x20000DD
000eff efef      	LDI  R30,LOW(255)
000f00 bdee      	OUT  0x2E,R30
                 _0x20000DE:
000f01 b5ed      	IN   R30,0x2D
000f02 ffe7      	SBRS R30,7
000f03 cffd      	RJMP _0x20000DE
000f04 01fe      	MOVW R30,R28
000f05 9634      	ADIW R30,4
000f06 93fa      	ST   -Y,R31
000f07 93ea      	ST   -Y,R30
000f08 e1a0      	LDI  R26,LOW(16)
000f09 e0b0      	LDI  R27,0
000f0a dc88      	RCALL _rx_datablock_G100
000f0b 30e0      	CPI  R30,0
000f0c f0c1      	BREQ _0x20000E1
000f0d e330      	LDI  R19,LOW(48)
                 _0x20000E3:
000f0e 3030      	CPI  R19,0
000f0f f039      	BREQ _0x20000E4
000f10 efef      	LDI  R30,LOW(255)
000f11 bdee      	OUT  0x2E,R30
                 _0x20000E5:
000f12 b5ed      	IN   R30,0x2D
000f13 ffe7      	SBRS R30,7
000f14 cffd      	RJMP _0x20000E5
000f15 5031      	SUBI R19,1
000f16 cff7      	RJMP _0x20000E3
                 _0x20000E4:
000f17 85ee      	LDD  R30,Y+14
000f18 95e2      	SWAP R30
000f19 70ef      	ANDI R30,0xF
                +
000f1a e1a0     +LDI R26 , LOW ( 0x10 )
000f1b e0b0     +LDI R27 , HIGH ( 0x10 )
000f1c e080     +LDI R24 , BYTE3 ( 0x10 )
000f1d e090     +LDI R25 , BYTE4 ( 0x10 )
                 	__GETD2N 0x10
000f1e 940e 2701 	CALL __LSLD12
000f20 89ac      	LDD  R26,Y+20
000f21 89bd      	LDD  R27,Y+20+1
000f22 940e 27ba 	CALL __PUTDP1
000f24 e000      	LDI  R16,LOW(0)
                 _0x20000E1:
                 _0x20000DD:
000f25 c076      	RJMP _0x20000E8
                 _0x20000DC:
000f26 e4e9      	LDI  R30,LOW(73)
000f27 93ea      	ST   -Y,R30
                +
000f28 e0a0     +LDI R26 , LOW ( 0x0 )
000f29 e0b0     +LDI R27 , HIGH ( 0x0 )
000f2a e080     +LDI R24 , BYTE3 ( 0x0 )
000f2b e090     +LDI R25 , BYTE4 ( 0x0 )
                 	__GETD2N 0x0
000f2c dd0e      	RCALL _send_cmd_G100
000f2d 30e0      	CPI  R30,0
000f2e f009      	BREQ PC+2
000f2f c06c      	RJMP _0x20000E9
000f30 01fe      	MOVW R30,R28
000f31 9634      	ADIW R30,4
000f32 93fa      	ST   -Y,R31
000f33 93ea      	ST   -Y,R30
000f34 e1a0      	LDI  R26,LOW(16)
000f35 e0b0      	LDI  R27,0
000f36 dc5c      	RCALL _rx_datablock_G100
000f37 30e0      	CPI  R30,0
000f38 f409      	BRNE PC+2
000f39 c062      	RJMP _0x20000EA
000f3a 91e0 0f4d 	LDS  R30,_card_type_G100
000f3c 70e2      	ANDI R30,LOW(0x2)
000f3d f151      	BREQ _0x20000EB
000f3e 85ee      	LDD  R30,Y+14
000f3f 73ef      	ANDI R30,LOW(0x3F)
000f40 27ff      	CLR  R31
000f41 2766      	CLR  R22
000f42 2777      	CLR  R23
000f43 940e 272b 	CALL __LSLD1
000f45 937f      	PUSH R23
000f46 936f      	PUSH R22
000f47 93ff      	PUSH R31
000f48 93ef      	PUSH R30
000f49 85ef      	LDD  R30,Y+15
000f4a 78e0      	ANDI R30,LOW(0x80)
000f4b 27ff      	CLR  R31
000f4c 2766      	CLR  R22
000f4d 2777      	CLR  R23
000f4e 01df      	MOVW R26,R30
000f4f 01cb      	MOVW R24,R22
000f50 e0e7      	LDI  R30,LOW(7)
000f51 940e 270d 	CALL __LSRD12
000f53 91af      	POP  R26
000f54 91bf      	POP  R27
000f55 918f      	POP  R24
000f56 919f      	POP  R25
000f57 940e 26dc 	CALL __ADDD12
                +
000f59 5fef     +SUBI R30 , LOW ( - 1 )
000f5a 4fff     +SBCI R31 , HIGH ( - 1 )
000f5b 4f6f     +SBCI R22 , BYTE3 ( - 1 )
000f5c 4f7f     +SBCI R23 , BYTE4 ( - 1 )
                 	__ADDD1N 1
000f5d 01df      	MOVW R26,R30
000f5e 01cb      	MOVW R24,R22
000f5f 89e9      	LDD  R30,Y+17
000f60 95e2      	SWAP R30
000f61 70ef      	ANDI R30,0xF
000f62 95e6      	LSR  R30
000f63 95e6      	LSR  R30
000f64 50e1      	SUBI R30,LOW(1)
000f65 940e 2701 	CALL __LSLD12
000f67 c02f      	RJMP _0x200010A
                 _0x20000EB:
000f68 85ee      	LDD  R30,Y+14
000f69 77ec      	ANDI R30,LOW(0x7C)
000f6a 95e6      	LSR  R30
000f6b 95e6      	LSR  R30
000f6c 27ff      	CLR  R31
000f6d 2766      	CLR  R22
000f6e 2777      	CLR  R23
                +
000f6f 5fef     +SUBI R30 , LOW ( - 1 )
000f70 4fff     +SBCI R31 , HIGH ( - 1 )
000f71 4f6f     +SBCI R22 , BYTE3 ( - 1 )
000f72 4f7f     +SBCI R23 , BYTE4 ( - 1 )
                 	__ADDD1N 1
000f73 937f      	PUSH R23
000f74 936f      	PUSH R22
000f75 93ff      	PUSH R31
000f76 93ef      	PUSH R30
000f77 85ef      	LDD  R30,Y+15
000f78 70e3      	ANDI R30,LOW(0x3)
000f79 27ff      	CLR  R31
000f7a 2766      	CLR  R22
000f7b 2777      	CLR  R23
000f7c 01df      	MOVW R26,R30
000f7d 01cb      	MOVW R24,R22
000f7e e0e3      	LDI  R30,LOW(3)
000f7f 940e 2701 	CALL __LSLD12
000f81 01df      	MOVW R26,R30
000f82 01cb      	MOVW R24,R22
000f83 85ef      	LDD  R30,Y+15
000f84 7ee0      	ANDI R30,LOW(0xE0)
000f85 95e2      	SWAP R30
000f86 70ef      	ANDI R30,0xF
000f87 95e6      	LSR  R30
000f88 27ff      	CLR  R31
000f89 2766      	CLR  R22
000f8a 2777      	CLR  R23
000f8b 940e 26dc 	CALL __ADDD12
                +
000f8d 5fef     +SUBI R30 , LOW ( - 1 )
000f8e 4fff     +SBCI R31 , HIGH ( - 1 )
000f8f 4f6f     +SBCI R22 , BYTE3 ( - 1 )
000f90 4f7f     +SBCI R23 , BYTE4 ( - 1 )
                 	__ADDD1N 1
000f91 91af      	POP  R26
000f92 91bf      	POP  R27
000f93 918f      	POP  R24
000f94 919f      	POP  R25
000f95 940e 273f 	CALL __MULD12U
                 _0x200010A:
000f97 89ac      	LDD  R26,Y+20
000f98 89bd      	LDD  R27,Y+20+1
000f99 940e 27ba 	CALL __PUTDP1
000f9b e000      	LDI  R16,LOW(0)
                 _0x20000EA:
                 _0x20000E9:
                 _0x20000E8:
000f9c c05b      	RJMP _0x20000D1
                 _0x20000DB:
000f9d 30ea      	CPI  R30,LOW(0xA)
000f9e f439      	BRNE _0x20000ED
000f9f 91e0 0f4d 	LDS  R30,_card_type_G100
000fa1 89ac      	LDD  R26,Y+20
000fa2 89bd      	LDD  R27,Y+20+1
000fa3 93ec      	ST   X,R30
000fa4 e000      	LDI  R16,LOW(0)
000fa5 c052      	RJMP _0x20000D1
                 _0x20000ED:
000fa6 30eb      	CPI  R30,LOW(0xB)
000fa7 f411      	BRNE _0x20000EE
000fa8 e439      	LDI  R19,LOW(73)
000fa9 c003      	RJMP _0x20000EF
                 _0x20000EE:
000faa 30ec      	CPI  R30,LOW(0xC)
000fab f501      	BRNE _0x20000F1
000fac e43a      	LDI  R19,LOW(74)
                 _0x20000EF:
000fad 933a      	ST   -Y,R19
                +
000fae e0a0     +LDI R26 , LOW ( 0x0 )
000faf e0b0     +LDI R27 , HIGH ( 0x0 )
000fb0 e080     +LDI R24 , BYTE3 ( 0x0 )
000fb1 e090     +LDI R25 , BYTE4 ( 0x0 )
                 	__GETD2N 0x0
000fb2 dc88      	RCALL _send_cmd_G100
000fb3 30e0      	CPI  R30,0
000fb4 f4b1      	BRNE _0x20000F2
000fb5 89ec      	LDD  R30,Y+20
000fb6 89fd      	LDD  R31,Y+20+1
000fb7 93fa      	ST   -Y,R31
000fb8 93ea      	ST   -Y,R30
000fb9 e1a0      	LDI  R26,LOW(16)
000fba e0b0      	LDI  R27,0
000fbb dbd7      	RCALL _rx_datablock_G100
000fbc 30e0      	CPI  R30,0
000fbd f069      	BREQ _0x20000F3
000fbe 89ec      	LDD  R30,Y+20
000fbf 89fd      	LDD  R31,Y+20+1
000fc0 93fa      	ST   -Y,R31
000fc1 93ea      	ST   -Y,R30
000fc2 e0af      	LDI  R26,LOW(15)
000fc3 db92      	RCALL _crc7_G100
000fc4 2fae      	MOV  R26,R30
000fc5 89ec      	LDD  R30,Y+20
000fc6 89fd      	LDD  R31,Y+20+1
000fc7 85e7      	LDD  R30,Z+15
000fc8 17ea      	CP   R30,R26
000fc9 f409      	BRNE _0x20000F4
000fca e000      	LDI  R16,LOW(0)
                 _0x20000F4:
                 _0x20000F3:
                 _0x20000F2:
000fcb c02c      	RJMP _0x20000D1
                 _0x20000F1:
000fcc 30ed      	CPI  R30,LOW(0xD)
000fcd f471      	BRNE _0x20000F5
000fce e7ea      	LDI  R30,LOW(122)
000fcf 93ea      	ST   -Y,R30
                +
000fd0 e0a0     +LDI R26 , LOW ( 0x0 )
000fd1 e0b0     +LDI R27 , HIGH ( 0x0 )
000fd2 e080     +LDI R24 , BYTE3 ( 0x0 )
000fd3 e090     +LDI R25 , BYTE4 ( 0x0 )
                 	__GETD2N 0x0
000fd4 dc66      	RCALL _send_cmd_G100
000fd5 30e0      	CPI  R30,0
000fd6 f421      	BRNE _0x20000F6
000fd7 89ac      	LDD  R26,Y+20
000fd8 89bd      	LDD  R27,Y+20+1
000fd9 dcc4      	RCALL _rx_spi4_G100
000fda e000      	LDI  R16,LOW(0)
                 _0x20000F6:
000fdb c01c      	RJMP _0x20000D1
                 _0x20000F5:
000fdc 30ee      	CPI  R30,LOW(0xE)
000fdd f4c9      	BRNE _0x20000FD
000fde eced      	LDI  R30,LOW(205)
000fdf 93ea      	ST   -Y,R30
                +
000fe0 e0a0     +LDI R26 , LOW ( 0x0 )
000fe1 e0b0     +LDI R27 , HIGH ( 0x0 )
000fe2 e080     +LDI R24 , BYTE3 ( 0x0 )
000fe3 e090     +LDI R25 , BYTE4 ( 0x0 )
                 	__GETD2N 0x0
000fe4 dc56      	RCALL _send_cmd_G100
000fe5 30e0      	CPI  R30,0
000fe6 f479      	BRNE _0x20000F8
000fe7 efef      	LDI  R30,LOW(255)
000fe8 bdee      	OUT  0x2E,R30
                 _0x20000F9:
000fe9 b5ed      	IN   R30,0x2D
000fea ffe7      	SBRS R30,7
000feb cffd      	RJMP _0x20000F9
000fec 89ec      	LDD  R30,Y+20
000fed 89fd      	LDD  R31,Y+20+1
000fee 93fa      	ST   -Y,R31
000fef 93ea      	ST   -Y,R30
000ff0 e4a0      	LDI  R26,LOW(64)
000ff1 e0b0      	LDI  R27,0
000ff2 dba0      	RCALL _rx_datablock_G100
000ff3 30e0      	CPI  R30,0
000ff4 f009      	BREQ _0x20000FC
000ff5 e000      	LDI  R16,LOW(0)
                 _0x20000FC:
                 _0x20000F8:
000ff6 c001      	RJMP _0x20000D1
                 _0x20000FD:
000ff7 e004      	LDI  R16,LOW(4)
                 _0x20000D1:
000ff8 db93      	RCALL _deselect_card_G100
000ff9 2fe0      	MOV  R30,R16
                 _0x20A0017:
000ffa 940e 2810 	CALL __LOADLOCR4
000ffc 9668      	ADIW R28,24
000ffd 9508      	RET
                 ; .FEND
                 _disk_timerproc:
                 ; .FSTART _disk_timerproc
                 
                 	.DSEG
                 
                 	.CSEG
000ffe 930a      	ST   -Y,R16
000fff 9100 0f4b 	LDS  R16,_timer1_G100
001001 3000      	CPI  R16,0
001002 f019      	BREQ _0x20000FF
001003 5001      	SUBI R16,LOW(1)
001004 9300 0f4b 	STS  _timer1_G100,R16
                 _0x20000FF:
001006 9100 0f4c 	LDS  R16,_timer2_G100
001008 3000      	CPI  R16,0
001009 f019      	BREQ _0x2000100
00100a 5001      	SUBI R16,LOW(1)
00100b 9300 0f4c 	STS  _timer2_G100,R16
                 _0x2000100:
00100d 9100 0f4e 	LDS  R16,_flags_S100000C000
00100f e0e0      	LDI  R30,LOW(0)
001010 93e0 0f4e 	STS  _flags_S100000C000,R30
001012 991c      	SBIC 0x3,4
001013 c003      	RJMP _0x2000101
001014 e0e1      	LDI  R30,LOW(1)
001015 93e0 0f4e 	STS  _flags_S100000C000,R30
                 _0x2000101:
001017 9b1d      	SBIS 0x3,5
001018 c005      	RJMP _0x2000102
001019 91e0 0f4e 	LDS  R30,_flags_S100000C000
00101b 60e2      	ORI  R30,2
00101c 93e0 0f4e 	STS  _flags_S100000C000,R30
                 _0x2000102:
00101e 91e0 0f4e 	LDS  R30,_flags_S100000C000
001020 17e0      	CP   R30,R16
001021 f481      	BRNE _0x2000103
001022 9100 0f4a 	LDS  R16,_status_G100
001024 70e1      	ANDI R30,LOW(0x1)
001025 f011      	BREQ _0x2000104
001026 7f0d      	ANDI R16,LOW(253)
001027 c001      	RJMP _0x2000105
                 _0x2000104:
001028 6003      	ORI  R16,LOW(3)
                 _0x2000105:
001029 91e0 0f4e 	LDS  R30,_flags_S100000C000
00102b 70e2      	ANDI R30,LOW(0x2)
00102c f011      	BREQ _0x2000106
00102d 6004      	ORI  R16,LOW(4)
00102e c001      	RJMP _0x2000107
                 _0x2000106:
00102f 7f0b      	ANDI R16,LOW(251)
                 _0x2000107:
001030 9300 0f4a 	STS  _status_G100,R16
                 _0x2000103:
                 _0x20A0016:
001032 9109      	LD   R16,Y+
001033 9508      	RET
                 ; .FEND
                 
                 	.CSEG
                 _get_fattime:
                 ; .FSTART _get_fattime
001034 9727      	SBIW R28,7
001035 91a0 0a34 	LDS  R26,_prtc_get_time
001037 91b0 0a35 	LDS  R27,_prtc_get_time+1
001039 9710      	SBIW R26,0
00103a f031      	BREQ _0x2020004
00103b 91a0 0a36 	LDS  R26,_prtc_get_date
00103d 91b0 0a37 	LDS  R27,_prtc_get_date+1
00103f 9710      	SBIW R26,0
001040 f429      	BRNE _0x2020003
                 _0x2020004:
                +
001041 e0e0     +LDI R30 , LOW ( 0x3A210000 )
001042 e0f0     +LDI R31 , HIGH ( 0x3A210000 )
001043 e261     +LDI R22 , BYTE3 ( 0x3A210000 )
001044 e37a     +LDI R23 , BYTE4 ( 0x3A210000 )
                 	__GETD1N 0x3A210000
001045 c06b      	RJMP _0x20A0015
                 _0x2020003:
001046 01fe      	MOVW R30,R28
001047 9636      	ADIW R30,6
001048 93fa      	ST   -Y,R31
001049 93ea      	ST   -Y,R30
00104a 01fe      	MOVW R30,R28
00104b 9637      	ADIW R30,7
00104c 93fa      	ST   -Y,R31
00104d 93ea      	ST   -Y,R30
00104e 01de      	MOVW R26,R28
00104f 9618      	ADIW R26,8
                +
001050 91e0 0a34+LDS R30 , _prtc_get_time + ( 0 )
001052 91f0 0a35+LDS R31 , _prtc_get_time + ( 0 ) + 1
001054 9509     +ICALL
                 	__CALL1MN _prtc_get_time,0
001055 940e 2176 	CALL SUBOPT_0xF
001057 01fe      	MOVW R30,R28
001058 9634      	ADIW R30,4
001059 93fa      	ST   -Y,R31
00105a 93ea      	ST   -Y,R30
00105b 01de      	MOVW R26,R28
00105c 9614      	ADIW R26,4
                +
00105d 91e0 0a36+LDS R30 , _prtc_get_date + ( 0 )
00105f 91f0 0a37+LDS R31 , _prtc_get_date + ( 0 ) + 1
001061 9509     +ICALL
                 	__CALL1MN _prtc_get_date,0
001062 81e8      	LD   R30,Y
001063 81f9      	LDD  R31,Y+1
001064 5bec      	SUBI R30,LOW(1980)
001065 40f7      	SBCI R31,HIGH(1980)
001066 2766      	CLR  R22
001067 2777      	CLR  R23
001068 01df      	MOVW R26,R30
001069 01cb      	MOVW R24,R22
00106a e1e9      	LDI  R30,LOW(25)
00106b 940e 2701 	CALL __LSLD12
00106d 937f      	PUSH R23
00106e 936f      	PUSH R22
00106f 93ff      	PUSH R31
001070 93ef      	PUSH R30
001071 81ea      	LDD  R30,Y+2
001072 940e 2252 	CALL SUBOPT_0x2E
001074 e1e5      	LDI  R30,LOW(21)
001075 940e 2701 	CALL __LSLD12
001077 91af      	POP  R26
001078 91bf      	POP  R27
001079 918f      	POP  R24
00107a 919f      	POP  R25
00107b 940e 26f0 	CALL __ORD12
00107d 01df      	MOVW R26,R30
00107e 01cb      	MOVW R24,R22
00107f 81eb      	LDD  R30,Y+3
001080 e0f0      	LDI  R31,0
001081 940e 273a 	CALL __CWD1
001083 940e 2735 	CALL __LSLD16
001085 940e 26f0 	CALL __ORD12
001087 937f      	PUSH R23
001088 936f      	PUSH R22
001089 93ff      	PUSH R31
00108a 93ef      	PUSH R30
00108b 81ee      	LDD  R30,Y+6
00108c 940e 2252 	CALL SUBOPT_0x2E
00108e e0eb      	LDI  R30,LOW(11)
00108f 940e 2701 	CALL __LSLD12
001091 91af      	POP  R26
001092 91bf      	POP  R27
001093 918f      	POP  R24
001094 919f      	POP  R25
001095 940e 26f0 	CALL __ORD12
001097 937f      	PUSH R23
001098 936f      	PUSH R22
001099 93ff      	PUSH R31
00109a 93ef      	PUSH R30
00109b 81ed      	LDD  R30,Y+5
00109c 940e 2252 	CALL SUBOPT_0x2E
00109e e0e5      	LDI  R30,LOW(5)
00109f 940e 2701 	CALL __LSLD12
0010a1 91af      	POP  R26
0010a2 91bf      	POP  R27
0010a3 918f      	POP  R24
0010a4 919f      	POP  R25
0010a5 940e 26f0 	CALL __ORD12
0010a7 01df      	MOVW R26,R30
0010a8 01cb      	MOVW R24,R22
0010a9 81ec      	LDD  R30,Y+4
0010aa e0f0      	LDI  R31,0
0010ab 95f5      	ASR  R31
0010ac 95e7      	ROR  R30
0010ad 940e 273a 	CALL __CWD1
0010af 940e 26f0 	CALL __ORD12
                 _0x20A0015:
0010b1 9627      	ADIW R28,7
0010b2 9508      	RET
                 ; .FEND
                 _chk_chrf_G101:
                 ; .FSTART _chk_chrf_G101
0010b3 93aa      	ST   -Y,R26
0010b4 930a      	ST   -Y,R16
                 _0x2020006:
0010b5 81ea      	LDD  R30,Y+2
0010b6 81fb      	LDD  R31,Y+2+1
0010b7 91e4      	LPM  R30,Z
0010b8 2f0e      	MOV  R16,R30
0010b9 30e0      	CPI  R30,0
0010ba f019      	BREQ _0x2020009
0010bb 81e9      	LDD  R30,Y+1
0010bc 17e0      	CP   R30,R16
0010bd f409      	BRNE _0x202000A
                 _0x2020009:
0010be c006      	RJMP _0x2020008
                 _0x202000A:
0010bf 81ea      	LDD  R30,Y+2
0010c0 81fb      	LDD  R31,Y+2+1
0010c1 9631      	ADIW R30,1
0010c2 83ea      	STD  Y+2,R30
0010c3 83fb      	STD  Y+2+1,R31
0010c4 cff0      	RJMP _0x2020006
                 _0x2020008:
0010c5 2fe0      	MOV  R30,R16
0010c6 e0f0      	LDI  R31,0
0010c7 8108      	LDD  R16,Y+0
0010c8 9624      	ADIW R28,4
0010c9 9508      	RET
                 ; .FEND
                 _move_window_G101:
                 ; .FSTART _move_window_G101
0010ca 940e 27e1 	CALL __PUTPARD2
0010cc 9724      	SBIW R28,4
0010cd 930a      	ST   -Y,R16
0010ce 85a9      	LDD  R26,Y+9
0010cf 85ba      	LDD  R27,Y+9+1
0010d0 969e      	ADIW R26,46
0010d1 940e 27af 	CALL __GETD1P
0010d3 940e 2258 	CALL SUBOPT_0x2F
0010d5 940e 225d 	CALL SUBOPT_0x30
0010d7 940e 2262 	CALL SUBOPT_0x31
0010d9 940e 27fd 	CALL __CPD12
0010db f409      	BRNE PC+2
0010dc c052      	RJMP _0x202000B
0010dd 85e9      	LDD  R30,Y+9
0010de 85fa      	LDD  R31,Y+9+1
0010df 81e4      	LDD  R30,Z+4
0010e0 30e0      	CPI  R30,0
0010e1 f189      	BREQ _0x202000C
0010e2 940e 2267 	CALL SUBOPT_0x32
0010e4 30e0      	CPI  R30,0
0010e5 f011      	BREQ _0x202000D
0010e6 e0e1      	LDI  R30,LOW(1)
0010e7 c227      	RJMP _0x20A0012
                 _0x202000D:
0010e8 85a9      	LDD  R26,Y+9
0010e9 85ba      	LDD  R27,Y+9+1
0010ea 9614      	ADIW R26,4
0010eb e0e0      	LDI  R30,LOW(0)
0010ec 93ec      	ST   X,R30
0010ed 85e9      	LDD  R30,Y+9
0010ee 85fa      	LDD  R31,Y+9+1
0010ef 940e 2279 	CALL SUBOPT_0x33
0010f1 010d      	MOVW R0,R26
0010f2 85a9      	LDD  R26,Y+9
0010f3 85ba      	LDD  R27,Y+9+1
0010f4 965a      	ADIW R26,26
0010f5 940e 27af 	CALL __GETD1P
0010f7 01d0      	MOVW R26,R0
0010f8 940e 26dc 	CALL __ADDD12
0010fa 940e 2262 	CALL SUBOPT_0x31
0010fc 940e 2802 	CALL __CPD21
0010fe f4a0      	BRSH _0x202000E
0010ff 85e9      	LDD  R30,Y+9
001100 85fa      	LDD  R31,Y+9+1
001101 8103      	LDD  R16,Z+3
                 _0x2020010:
001102 3002      	CPI  R16,2
001103 f078      	BRLO _0x2020011
001104 85a9      	LDD  R26,Y+9
001105 85ba      	LDD  R27,Y+9+1
001106 965a      	ADIW R26,26
001107 940e 27af 	CALL __GETD1P
001109 940e 2262 	CALL SUBOPT_0x31
00110b 940e 26dc 	CALL __ADDD12
00110d 940e 2258 	CALL SUBOPT_0x2F
00110f 940e 2267 	CALL SUBOPT_0x32
001111 5001      	SUBI R16,1
001112 cfef      	RJMP _0x2020010
                 _0x2020011:
                 _0x202000E:
                 _0x202000C:
001113 940e 225d 	CALL SUBOPT_0x30
001115 940e 27f3 	CALL __CPD10
001117 f0b9      	BREQ _0x2020012
001118 85e9      	LDD  R30,Y+9
001119 85fa      	LDD  R31,Y+9+1
00111a 81a1      	LDD  R26,Z+1
00111b 93aa      	ST   -Y,R26
00111c 85ea      	LDD  R30,Y+10
00111d 85fb      	LDD  R31,Y+10+1
00111e 96f2      	ADIW R30,50
00111f 93fa      	ST   -Y,R31
001120 93ea      	ST   -Y,R30
001121 940e 227e 	CALL SUBOPT_0x34
001123 940e 2283 	CALL SUBOPT_0x35
001125 f011      	BREQ _0x2020013
001126 e0e1      	LDI  R30,LOW(1)
001127 c1e7      	RJMP _0x20A0012
                 _0x2020013:
001128 940e 225d 	CALL SUBOPT_0x30
                +
00112a 85a9     +LDD R26 , Y + 9
00112b 85ba     +LDD R27 , Y + 9 + 1
00112c 969e     +ADIW R26 , 46
00112d 940e 27ba+CALL __PUTDP1
                 	__PUTD1SNS 9,46
                 _0x2020012:
                 _0x202000B:
00112f e0e0      	LDI  R30,LOW(0)
001130 c1de      	RJMP _0x20A0012
                 ; .FEND
                 _sync_G101:
                 ; .FSTART _sync_G101
001131 93ba      	ST   -Y,R27
001132 93aa      	ST   -Y,R26
001133 930a      	ST   -Y,R16
001134 81e9      	LDD  R30,Y+1
001135 81fa      	LDD  R31,Y+1+1
001136 940e 228a 	CALL SUBOPT_0x36
001138 2f0e      	MOV  R16,R30
001139 3000      	CPI  R16,0
00113a f009      	BREQ PC+2
00113b c05b      	RJMP _0x2020014
00113c 81a9      	LDD  R26,Y+1
00113d 81ba      	LDD  R27,Y+1+1
00113e 91ac      	LD   R26,X
00113f 30a3      	CPI  R26,LOW(0x3)
001140 f429      	BRNE _0x2020016
001141 81e9      	LDD  R30,Y+1
001142 81fa      	LDD  R31,Y+1+1
001143 81e5      	LDD  R30,Z+5
001144 30e0      	CPI  R30,0
001145 f409      	BRNE _0x2020017
                 _0x2020016:
001146 c044      	RJMP _0x2020015
                 _0x2020017:
001147 81a9      	LDD  R26,Y+1
001148 81ba      	LDD  R27,Y+1+1
001149 940e 2292 	CALL SUBOPT_0x37
00114b 81e9      	LDD  R30,Y+1
00114c 81fa      	LDD  R31,Y+1+1
00114d 940e 229a 	CALL SUBOPT_0x38
00114f 81e9      	LDD  R30,Y+1
001150 81fa      	LDD  R31,Y+1+1
001151 96f2      	ADIW R30,50
001152 50e2      	SUBI R30,LOW(-510)
001153 4ffe      	SBCI R31,HIGH(-510)
001154 e5a5      	LDI  R26,LOW(43605)
001155 eaba      	LDI  R27,HIGH(43605)
001156 83a0      	STD  Z+0,R26
001157 83b1      	STD  Z+1,R27
001158 81e9      	LDD  R30,Y+1
001159 81fa      	LDD  R31,Y+1+1
00115a 96f2      	ADIW R30,50
                +
00115b e5a2     +LDI R26 , LOW ( 0x41615252 )
00115c e5b2     +LDI R27 , HIGH ( 0x41615252 )
00115d e681     +LDI R24 , BYTE3 ( 0x41615252 )
00115e e491     +LDI R25 , BYTE4 ( 0x41615252 )
                 	__GETD2N 0x41615252
00115f 940e 22a3 	CALL SUBOPT_0x39
001161 51ec      	SUBI R30,LOW(-484)
001162 4ffe      	SBCI R31,HIGH(-484)
                +
001163 e7a2     +LDI R26 , LOW ( 0x61417272 )
001164 e7b2     +LDI R27 , HIGH ( 0x61417272 )
001165 e481     +LDI R24 , BYTE3 ( 0x61417272 )
001166 e691     +LDI R25 , BYTE4 ( 0x61417272 )
                 	__GETD2N 0x61417272
001167 940e 22a3 	CALL SUBOPT_0x39
001169 51e8      	SUBI R30,LOW(-488)
00116a 4ffe      	SBCI R31,HIGH(-488)
00116b 010f      	MOVW R0,R30
00116c 81a9      	LDD  R26,Y+1
00116d 81ba      	LDD  R27,Y+1+1
00116e 961e      	ADIW R26,14
00116f 940e 22a9 	CALL SUBOPT_0x3A
001171 96f2      	ADIW R30,50
001172 51e4      	SUBI R30,LOW(-492)
001173 4ffe      	SBCI R31,HIGH(-492)
001174 010f      	MOVW R0,R30
001175 81a9      	LDD  R26,Y+1
001176 81ba      	LDD  R27,Y+1+1
001177 961a      	ADIW R26,10
001178 940e 22a9 	CALL SUBOPT_0x3A
00117a 81a1      	LDD  R26,Z+1
00117b 93aa      	ST   -Y,R26
00117c 81ea      	LDD  R30,Y+2
00117d 81fb      	LDD  R31,Y+2+1
00117e 96f2      	ADIW R30,50
00117f 93fa      	ST   -Y,R31
001180 93ea      	ST   -Y,R30
001181 81ec      	LDD  R30,Y+4
001182 81fd      	LDD  R31,Y+4+1
001183 940e 22b1 	CALL SUBOPT_0x3B
001185 dc6c      	RCALL _disk_write
001186 81a9      	LDD  R26,Y+1
001187 81ba      	LDD  R27,Y+1+1
001188 9615      	ADIW R26,5
001189 e0e0      	LDI  R30,LOW(0)
00118a 93ec      	ST   X,R30
                 _0x2020015:
00118b 81e9      	LDD  R30,Y+1
00118c 81fa      	LDD  R31,Y+1+1
00118d 81a1      	LDD  R26,Z+1
00118e 93aa      	ST   -Y,R26
00118f e0e0      	LDI  R30,LOW(0)
001190 93ea      	ST   -Y,R30
001191 e0a0      	LDI  R26,LOW(0)
001192 e0b0      	LDI  R27,HIGH(0)
001193 dcd5      	RCALL _disk_ioctl
001194 30e0      	CPI  R30,0
001195 f009      	BREQ _0x2020018
001196 e001      	LDI  R16,LOW(1)
                 _0x2020018:
                 _0x2020014:
001197 2fe0      	MOV  R30,R16
                 _0x20A0014:
001198 8108      	LDD  R16,Y+0
001199 9623      	ADIW R28,3
00119a 9508      	RET
                 ; .FEND
                 _get_fat:
                 ; .FSTART _get_fat
00119b 940e 27e1 	CALL __PUTPARD2
00119d 9724      	SBIW R28,4
00119e 940e 2809 	CALL __SAVELOCR4
0011a0 940e 22b9 	CALL SUBOPT_0x3C
0011a2 940e 22be 	CALL SUBOPT_0x3D
0011a4 f050      	BRLO _0x202001A
0011a5 85ac      	LDD  R26,Y+12
0011a6 85bd      	LDD  R27,Y+12+1
0011a7 965e      	ADIW R26,30
0011a8 940e 27af 	CALL __GETD1P
0011aa 940e 22b9 	CALL SUBOPT_0x3C
0011ac 940e 2802 	CALL __CPD21
0011ae f018      	BRLO _0x2020019
                 _0x202001A:
0011af 940e 22c6 	CALL SUBOPT_0x3E
0011b1 c060      	RJMP _0x20A0013
                 _0x2020019:
0011b2 85ac      	LDD  R26,Y+12
0011b3 85bd      	LDD  R27,Y+12+1
0011b4 9692      	ADIW R26,34
0011b5 940e 22cb 	CALL SUBOPT_0x3F
0011b7 85ac      	LDD  R26,Y+12
0011b8 85bd      	LDD  R27,Y+12+1
0011b9 91ec      	LD   R30,X
0011ba e0f0      	LDI  R31,0
0011bb 30e1      	CPI  R30,LOW(0x1)
0011bc e0a0      	LDI  R26,HIGH(0x1)
0011bd 07fa      	CPC  R31,R26
0011be f539      	BRNE _0x202001F
                +
0011bf 8528     +LDD R18 , Y + 8
0011c0 8539     +LDD R19 , Y + 8 + 1
                 	__GETWRS 18,19,8
0011c1 01f9      	MOVW R30,R18
0011c2 95f6      	LSR  R31
0011c3 95e7      	ROR  R30
                +
0011c4 0f2e     +ADD R18 , R30
0011c5 1f3f     +ADC R19 , R31
                 	__ADDWRR 18,19,30,31
0011c6 940e 22d2 	CALL SUBOPT_0x40
0011c8 f009      	BREQ _0x2020020
0011c9 c046      	RJMP _0x202001E
                 _0x2020020:
0011ca 940e 22e7 	CALL SUBOPT_0x41
0011cc 910c      	LD   R16,X
0011cd 2711      	CLR  R17
                +
0011ce 5f2f     +SUBI R18 , LOW ( - 1 )
0011cf 4f3f     +SBCI R19 , HIGH ( - 1 )
                 	__ADDWRN 18,19,1
0011d0 940e 22d2 	CALL SUBOPT_0x40
0011d2 f5e9      	BRNE _0x202001E
0011d3 940e 22e7 	CALL SUBOPT_0x41
0011d5 91ec      	LD   R30,X
0011d6 2ffe      	MOV  R31,R30
0011d7 e0e0      	LDI  R30,0
                +
0011d8 2b0e     +OR R16 , R30
0011d9 2b1f     +OR R17 , R31
                 	__ORWRR 16,17,30,31
0011da 85e8      	LDD  R30,Y+8
0011db 70e1      	ANDI R30,LOW(0x1)
0011dc f021      	BREQ _0x2020022
0011dd 01f8      	MOVW R30,R16
0011de 940e 2722 	CALL __LSRW4
0011e0 c002      	RJMP _0x202027A
                 _0x2020022:
0011e1 01f8      	MOVW R30,R16
0011e2 70ff      	ANDI R31,HIGH(0xFFF)
                 _0x202027A:
0011e3 2766      	CLR  R22
0011e4 2777      	CLR  R23
0011e5 c02c      	RJMP _0x20A0013
                 _0x202001F:
0011e6 30e2      	CPI  R30,LOW(0x2)
0011e7 e0a0      	LDI  R26,HIGH(0x2)
0011e8 07fa      	CPC  R31,R26
0011e9 f479      	BRNE _0x2020025
0011ea 940e 22ef 	CALL SUBOPT_0x42
0011ec 940e 22f8 	CALL SUBOPT_0x43
0011ee 940e 22ff 	CALL SUBOPT_0x44
0011f0 f4f9      	BRNE _0x202001E
0011f1 85a8      	LDD  R26,Y+8
0011f2 85b9      	LDD  R27,Y+8+1
0011f3 e0e2      	LDI  R30,LOW(2)
0011f4 940e 2309 	CALL SUBOPT_0x45
0011f6 940e 2312 	CALL SUBOPT_0x46
0011f8 c019      	RJMP _0x20A0013
                 _0x2020025:
0011f9 30e3      	CPI  R30,LOW(0x3)
0011fa e0a0      	LDI  R26,HIGH(0x3)
0011fb 07fa      	CPC  R31,R26
0011fc f499      	BRNE _0x202001E
0011fd 940e 22ef 	CALL SUBOPT_0x42
0011ff 940e 2317 	CALL SUBOPT_0x47
001201 940e 22ff 	CALL SUBOPT_0x44
001203 f461      	BRNE _0x202001E
001204 85a8      	LDD  R26,Y+8
001205 85b9      	LDD  R27,Y+8+1
001206 e0e4      	LDI  R30,LOW(4)
001207 940e 2309 	CALL SUBOPT_0x45
001209 940e 27af 	CALL __GETD1P
                +
00120b 7fef     +ANDI R30 , LOW ( 0xFFFFFFF )
00120c 7fff     +ANDI R31 , HIGH ( 0xFFFFFFF )
00120d 7f6f     +ANDI R22 , BYTE3 ( 0xFFFFFFF )
00120e 707f     +ANDI R23 , BYTE4 ( 0xFFFFFFF )
                 	__ANDD1N 0xFFFFFFF
00120f c002      	RJMP _0x20A0013
                 _0x202001E:
001210 940e 231e 	CALL SUBOPT_0x48
                 _0x20A0013:
001212 940e 2810 	CALL __LOADLOCR4
001214 962e      	ADIW R28,14
001215 9508      	RET
                 ; .FEND
                 _put_fat:
                 ; .FSTART _put_fat
001216 940e 27e1 	CALL __PUTPARD2
001218 9724      	SBIW R28,4
001219 940e 2808 	CALL __SAVELOCR5
00121b 940e 2323 	CALL SUBOPT_0x49
00121d 940e 22be 	CALL SUBOPT_0x3D
00121f f050      	BRLO _0x202002A
001220 89a9      	LDD  R26,Y+17
001221 89ba      	LDD  R27,Y+17+1
001222 965e      	ADIW R26,30
001223 940e 27af 	CALL __GETD1P
001225 940e 2323 	CALL SUBOPT_0x49
001227 940e 2802 	CALL __CPD21
001229 f010      	BRLO _0x2020029
                 _0x202002A:
00122a e042      	LDI  R20,LOW(2)
00122b c085      	RJMP _0x202002C
                 _0x2020029:
00122c 89a9      	LDD  R26,Y+17
00122d 89ba      	LDD  R27,Y+17+1
00122e 9692      	ADIW R26,34
00122f 940e 27af 	CALL __GETD1P
                +
001231 83ed     +STD Y + 5 , R30
001232 83fe     +STD Y + 5 + 1 , R31
001233 836f     +STD Y + 5 + 2 , R22
001234 8778     +STD Y + 5 + 3 , R23
                 	__PUTD1S 5
001235 89a9      	LDD  R26,Y+17
001236 89ba      	LDD  R27,Y+17+1
001237 91ec      	LD   R30,X
001238 e0f0      	LDI  R31,0
001239 30e1      	CPI  R30,LOW(0x1)
00123a e0a0      	LDI  R26,HIGH(0x1)
00123b 07fa      	CPC  R31,R26
00123c f009      	BREQ PC+2
00123d c043      	RJMP _0x2020030
                +
00123e 850d     +LDD R16 , Y + 13
00123f 851e     +LDD R17 , Y + 13 + 1
                 	__GETWRS 16,17,13
001240 01f8      	MOVW R30,R16
001241 95f6      	LSR  R31
001242 95e7      	ROR  R30
                +
001243 0f0e     +ADD R16 , R30
001244 1f1f     +ADC R17 , R31
                 	__ADDWRR 16,17,30,31
001245 940e 2328 	CALL SUBOPT_0x4A
001247 f009      	BREQ _0x2020031
001248 c063      	RJMP _0x202002F
                 _0x2020031:
001249 940e 233e 	CALL SUBOPT_0x4B
00124b f051      	BREQ _0x2020032
00124c 01d9      	MOVW R26,R18
00124d 91ec      	LD   R30,X
00124e 70ef      	ANDI R30,LOW(0xF)
00124f 2fae      	MOV  R26,R30
001250 85e9      	LDD  R30,Y+9
001251 e0f0      	LDI  R31,0
001252 940e 2719 	CALL __LSLW4
001254 2bea      	OR   R30,R26
001255 c001      	RJMP _0x2020033
                 _0x2020032:
001256 85e9      	LDD  R30,Y+9
                 _0x2020033:
001257 01d9      	MOVW R26,R18
001258 93ec      	ST   X,R30
                +
001259 5f0f     +SUBI R16 , LOW ( - 1 )
00125a 4f1f     +SBCI R17 , HIGH ( - 1 )
                 	__ADDWRN 16,17,1
00125b 89a9      	LDD  R26,Y+17
00125c 89ba      	LDD  R27,Y+17+1
00125d 9614      	ADIW R26,4
00125e e0e1      	LDI  R30,LOW(1)
00125f 93ec      	ST   X,R30
001260 940e 2328 	CALL SUBOPT_0x4A
001262 f009      	BREQ _0x2020035
001263 c048      	RJMP _0x202002F
                 _0x2020035:
001264 940e 233e 	CALL SUBOPT_0x4B
001266 f049      	BREQ _0x2020036
001267 940e 2349 	CALL SUBOPT_0x4C
001269 e0e4      	LDI  R30,LOW(4)
00126a 940e 270d 	CALL __LSRD12
00126c 27ff      	CLR  R31
00126d 2766      	CLR  R22
00126e 2777      	CLR  R23
00126f c00e      	RJMP _0x2020037
                 _0x2020036:
001270 01d9      	MOVW R26,R18
001271 91ec      	LD   R30,X
001272 7fe0      	ANDI R30,LOW(0xF0)
001273 2e1e      	MOV  R1,R30
001274 940e 2349 	CALL SUBOPT_0x4C
001276 e0e8      	LDI  R30,LOW(8)
001277 940e 270d 	CALL __LSRD12
001279 27ff      	CLR  R31
00127a 2766      	CLR  R22
00127b 2777      	CLR  R23
00127c 70ef      	ANDI R30,LOW(0xF)
00127d 29e1      	OR   R30,R1
                 _0x2020037:
00127e 01d9      	MOVW R26,R18
00127f 93ec      	ST   X,R30
001280 c02b      	RJMP _0x202002F
                 _0x2020030:
001281 30e2      	CPI  R30,LOW(0x2)
001282 e0a0      	LDI  R26,HIGH(0x2)
001283 07fa      	CPC  R31,R26
001284 f489      	BRNE _0x2020039
001285 940e 234e 	CALL SUBOPT_0x4D
001287 940e 22f8 	CALL SUBOPT_0x43
001289 940e 2357 	CALL SUBOPT_0x4E
00128b f501      	BRNE _0x202002F
00128c 85ad      	LDD  R26,Y+13
00128d 85be      	LDD  R27,Y+13+1
00128e e0e2      	LDI  R30,LOW(2)
00128f 940e 2362 	CALL SUBOPT_0x4F
001291 85a9      	LDD  R26,Y+9
001292 85ba      	LDD  R27,Y+9+1
001293 83a0      	STD  Z+0,R26
001294 83b1      	STD  Z+1,R27
001295 c016      	RJMP _0x202002F
                 _0x2020039:
001296 30e3      	CPI  R30,LOW(0x3)
001297 e0a0      	LDI  R26,HIGH(0x3)
001298 07fa      	CPC  R31,R26
001299 f489      	BRNE _0x202003D
00129a 940e 234e 	CALL SUBOPT_0x4D
00129c 940e 2317 	CALL SUBOPT_0x47
00129e 940e 2357 	CALL SUBOPT_0x4E
0012a0 f459      	BRNE _0x202002F
0012a1 85ad      	LDD  R26,Y+13
0012a2 85be      	LDD  R27,Y+13+1
0012a3 e0e4      	LDI  R30,LOW(4)
0012a4 940e 2362 	CALL SUBOPT_0x4F
0012a6 940e 2349 	CALL SUBOPT_0x4C
0012a8 940e 27d7 	CALL __PUTDZ20
0012aa c001      	RJMP _0x202002F
                 _0x202003D:
0012ab e042      	LDI  R20,LOW(2)
                 _0x202002F:
0012ac 89a9      	LDD  R26,Y+17
0012ad 89ba      	LDD  R27,Y+17+1
0012ae 9614      	ADIW R26,4
0012af e0e1      	LDI  R30,LOW(1)
0012b0 93ec      	ST   X,R30
                 _0x202002C:
0012b1 2fe4      	MOV  R30,R20
0012b2 940e 280f 	CALL __LOADLOCR5
0012b4 9663      	ADIW R28,19
0012b5 9508      	RET
                 ; .FEND
                 _remove_chain_G101:
                 ; .FSTART _remove_chain_G101
0012b6 940e 27e1 	CALL __PUTPARD2
0012b8 9724      	SBIW R28,4
0012b9 930a      	ST   -Y,R16
0012ba 940e 236b 	CALL SUBOPT_0x50
0012bc 940e 22be 	CALL SUBOPT_0x3D
0012be f018      	BRLO _0x202003F
0012bf 940e 2370 	CALL SUBOPT_0x51
0012c1 f010      	BRLO _0x202003E
                 _0x202003F:
0012c2 e002      	LDI  R16,LOW(2)
0012c3 c04a      	RJMP _0x2020041
                 _0x202003E:
0012c4 e000      	LDI  R16,LOW(0)
                 _0x2020042:
0012c5 940e 2370 	CALL SUBOPT_0x51
0012c7 f008      	BRLO PC+2
0012c8 c045      	RJMP _0x2020044
0012c9 85e9      	LDD  R30,Y+9
0012ca 85fa      	LDD  R31,Y+9+1
0012cb 93fa      	ST   -Y,R31
0012cc 93ea      	ST   -Y,R30
                +
0012cd 81af     +LDD R26 , Y + 7
0012ce 85b8     +LDD R27 , Y + 7 + 1
0012cf 8589     +LDD R24 , Y + 7 + 2
0012d0 859a     +LDD R25 , Y + 7 + 3
                 	__GETD2S 7
0012d1 dec9      	RCALL _get_fat
0012d2 940e 2258 	CALL SUBOPT_0x2F
                +
0012d4 81e9     +LDD R30 , Y + 1
0012d5 81fa     +LDD R31 , Y + 1 + 1
0012d6 816b     +LDD R22 , Y + 1 + 2
0012d7 817c     +LDD R23 , Y + 1 + 3
                 	__GETD1S 1
0012d8 940e 27f3 	CALL __CPD10
0012da f199      	BREQ _0x2020044
0012db 940e 2262 	CALL SUBOPT_0x31
0012dd 940e 2379 	CALL SUBOPT_0x52
0012df f411      	BRNE _0x2020046
0012e0 e002      	LDI  R16,LOW(2)
0012e1 c02c      	RJMP _0x2020044
                 _0x2020046:
0012e2 940e 2262 	CALL SUBOPT_0x31
0012e4 940e 2381 	CALL SUBOPT_0x53
0012e6 f411      	BRNE _0x2020047
0012e7 e001      	LDI  R16,LOW(1)
0012e8 c025      	RJMP _0x2020044
                 _0x2020047:
0012e9 85e9      	LDD  R30,Y+9
0012ea 85fa      	LDD  R31,Y+9+1
0012eb 93fa      	ST   -Y,R31
0012ec 93ea      	ST   -Y,R30
0012ed 940e 2389 	CALL SUBOPT_0x54
0012ef 940e 27dc 	CALL __PUTPARD1
0012f1 940e 238e 	CALL SUBOPT_0x55
0012f3 df22      	RCALL _put_fat
0012f4 2f0e      	MOV  R16,R30
0012f5 3000      	CPI  R16,0
0012f6 f4b9      	BRNE _0x2020044
0012f7 85e9      	LDD  R30,Y+9
0012f8 85fa      	LDD  R31,Y+9+1
0012f9 940e 2393 	CALL SUBOPT_0x56
0012fb f049      	BREQ _0x2020049
0012fc 85a9      	LDD  R26,Y+9
0012fd 85ba      	LDD  R27,Y+9+1
0012fe 940e 2398 	CALL SUBOPT_0x57
001300 85a9      	LDD  R26,Y+9
001301 85ba      	LDD  R27,Y+9+1
001302 9615      	ADIW R26,5
001303 e0e1      	LDI  R30,LOW(1)
001304 93ec      	ST   X,R30
                 _0x2020049:
                +
001305 81e9     +LDD R30 , Y + 1
001306 81fa     +LDD R31 , Y + 1 + 1
001307 816b     +LDD R22 , Y + 1 + 2
001308 817c     +LDD R23 , Y + 1 + 3
                 	__GETD1S 1
                +
001309 83ed     +STD Y + 5 , R30
00130a 83fe     +STD Y + 5 + 1 , R31
00130b 836f     +STD Y + 5 + 2 , R22
00130c 8778     +STD Y + 5 + 3 , R23
                 	__PUTD1S 5
00130d cfb7      	RJMP _0x2020042
                 _0x2020044:
                 _0x2020041:
00130e 2fe0      	MOV  R30,R16
                 _0x20A0012:
00130f 8108      	LDD  R16,Y+0
001310 962b      	ADIW R28,11
001311 9508      	RET
                 ; .FEND
                 _create_chain_G101:
                 ; .FSTART _create_chain_G101
001312 940e 27e1 	CALL __PUTPARD2
001314 9760      	SBIW R28,16
001315 89ac      	LDD  R26,Y+20
001316 89bd      	LDD  R27,Y+20+1
001317 965e      	ADIW R26,30
001318 940e 27af 	CALL __GETD1P
00131a 940e 23a2 	CALL SUBOPT_0x58
00131c 940e 23a5 	CALL SUBOPT_0x59
00131e 940e 27f3 	CALL __CPD10
001320 f4b1      	BRNE _0x202004A
001321 89ac      	LDD  R26,Y+20
001322 89bd      	LDD  R27,Y+20+1
001323 961a      	ADIW R26,10
001324 940e 22cb 	CALL SUBOPT_0x3F
001326 940e 23aa 	CALL SUBOPT_0x5A
001328 940e 27f7 	CALL __CPD02
00132a f039      	BREQ _0x202004C
00132b 940e 23af 	CALL SUBOPT_0x5B
00132d 940e 23aa 	CALL SUBOPT_0x5A
00132f 940e 2802 	CALL __CPD21
001331 f020      	BRLO _0x202004B
                 _0x202004C:
001332 940e 22c6 	CALL SUBOPT_0x3E
001334 940e 23b2 	CALL SUBOPT_0x5C
                 _0x202004B:
001336 c01e      	RJMP _0x202004E
                 _0x202004A:
001337 940e 23b7 	CALL SUBOPT_0x5D
                +
001339 89aa     +LDD R26 , Y + 18
00133a 89bb     +LDD R27 , Y + 18 + 1
00133b 898c     +LDD R24 , Y + 18 + 2
00133c 899d     +LDD R25 , Y + 18 + 3
                 	__GETD2S 18
00133d 940e 23bc 	CALL SUBOPT_0x5E
00133f 940e 23c3 	CALL SUBOPT_0x5F
001341 940e 22be 	CALL SUBOPT_0x3D
001343 f418      	BRSH _0x202004F
001344 940e 22c6 	CALL SUBOPT_0x3E
001346 c090      	RJMP _0x20A0011
                 _0x202004F:
001347 940e 23af 	CALL SUBOPT_0x5B
001349 940e 23c3 	CALL SUBOPT_0x5F
00134b 940e 2802 	CALL __CPD21
00134d f418      	BRSH _0x2020050
00134e 940e 23c8 	CALL SUBOPT_0x60
001350 c086      	RJMP _0x20A0011
                 _0x2020050:
001351 940e 23a5 	CALL SUBOPT_0x59
001353 940e 23b2 	CALL SUBOPT_0x5C
                 _0x202004E:
001355 940e 23cd 	CALL SUBOPT_0x61
001357 940e 23d2 	CALL SUBOPT_0x62
                 _0x2020052:
001359 940e 227e 	CALL SUBOPT_0x34
                +
00135b 5fef     +SUBI R30 , LOW ( - 1 )
00135c 4fff     +SBCI R31 , HIGH ( - 1 )
00135d 4f6f     +SBCI R22 , BYTE3 ( - 1 )
00135e 4f7f     +SBCI R23 , BYTE4 ( - 1 )
                 	__SUBD1N -1
00135f 940e 23d2 	CALL SUBOPT_0x62
001361 940e 23af 	CALL SUBOPT_0x5B
001363 940e 22b9 	CALL SUBOPT_0x3C
001365 940e 2802 	CALL __CPD21
001367 f060      	BRLO _0x2020054
                +
001368 e0e2     +LDI R30 , LOW ( 0x2 )
001369 e0f0     +LDI R31 , HIGH ( 0x2 )
00136a e060     +LDI R22 , BYTE3 ( 0x2 )
00136b e070     +LDI R23 , BYTE4 ( 0x2 )
                 	__GETD1N 0x2
00136c 940e 23d2 	CALL SUBOPT_0x62
00136e 940e 23d7 	CALL SUBOPT_0x63
001370 f418      	BRSH _0x2020055
001371 940e 23dc 	CALL SUBOPT_0x64
001373 c063      	RJMP _0x20A0011
                 _0x2020055:
                 _0x2020054:
001374 940e 23b7 	CALL SUBOPT_0x5D
                +
001376 85aa     +LDD R26 , Y + 10
001377 85bb     +LDD R27 , Y + 10 + 1
001378 858c     +LDD R24 , Y + 10 + 2
001379 859d     +LDD R25 , Y + 10 + 3
                 	__GETD2S 10
00137a 940e 23bc 	CALL SUBOPT_0x5E
00137c 940e 23c8 	CALL SUBOPT_0x60
00137e 940e 27f3 	CALL __CPD10
001380 f0a1      	BREQ _0x2020053
001381 940e 23c3 	CALL SUBOPT_0x5F
001383 940e 2381 	CALL SUBOPT_0x53
001385 f029      	BREQ _0x2020058
001386 940e 23c3 	CALL SUBOPT_0x5F
001388 940e 2379 	CALL SUBOPT_0x52
00138a f419      	BRNE _0x2020057
                 _0x2020058:
00138b 940e 23c8 	CALL SUBOPT_0x60
00138d c049      	RJMP _0x20A0011
                 _0x2020057:
00138e 940e 23d7 	CALL SUBOPT_0x63
001390 f419      	BRNE _0x202005A
001391 940e 23dc 	CALL SUBOPT_0x64
001393 c043      	RJMP _0x20A0011
                 _0x202005A:
001394 cfc4      	RJMP _0x2020052
                 _0x2020053:
001395 940e 23b7 	CALL SUBOPT_0x5D
001397 940e 23e1 	CALL SUBOPT_0x65
                +
001399 efaf     +LDI R26 , LOW ( 0xFFFFFFF )
00139a efbf     +LDI R27 , HIGH ( 0xFFFFFFF )
00139b ef8f     +LDI R24 , BYTE3 ( 0xFFFFFFF )
00139c e09f     +LDI R25 , BYTE4 ( 0xFFFFFFF )
                 	__GETD2N 0xFFFFFFF
00139d de78      	RCALL _put_fat
00139e 30e0      	CPI  R30,0
00139f f019      	BREQ _0x202005B
0013a0 940e 231e 	CALL SUBOPT_0x48
0013a2 c034      	RJMP _0x20A0011
                 _0x202005B:
0013a3 940e 23a5 	CALL SUBOPT_0x59
0013a5 940e 27f3 	CALL __CPD10
0013a7 f091      	BREQ _0x202005C
0013a8 940e 23b7 	CALL SUBOPT_0x5D
                +
0013aa 89ea     +LDD R30 , Y + 18
0013ab 89fb     +LDD R31 , Y + 18 + 1
0013ac 896c     +LDD R22 , Y + 18 + 2
0013ad 897d     +LDD R23 , Y + 18 + 3
                 	__GETD1S 18
0013ae 940e 27dc 	CALL __PUTPARD1
                +
0013b0 85ae     +LDD R26 , Y + 14
0013b1 85bf     +LDD R27 , Y + 14 + 1
0013b2 8988     +LDD R24 , Y + 14 + 2
0013b3 8999     +LDD R25 , Y + 14 + 3
                 	__GETD2S 14
0013b4 de61      	RCALL _put_fat
0013b5 30e0      	CPI  R30,0
0013b6 f019      	BREQ _0x202005D
0013b7 940e 231e 	CALL SUBOPT_0x48
0013b9 c01d      	RJMP _0x20A0011
                 _0x202005D:
                 _0x202005C:
0013ba 940e 227e 	CALL SUBOPT_0x34
                +
0013bc 89ac     +LDD R26 , Y + 20
0013bd 89bd     +LDD R27 , Y + 20 + 1
0013be 961a     +ADIW R26 , 10
0013bf 940e 27ba+CALL __PUTDP1
                 	__PUTD1SNS 20,10
0013c1 89ec      	LDD  R30,Y+20
0013c2 89fd      	LDD  R31,Y+20+1
0013c3 940e 2393 	CALL SUBOPT_0x56
0013c5 f079      	BREQ _0x202005E
0013c6 89ac      	LDD  R26,Y+20
0013c7 89bd      	LDD  R27,Y+20+1
0013c8 961e      	ADIW R26,14
0013c9 940e 27b5 	CALL __GETD1P_INC
0013cb 9731      	SBIW R30,1
0013cc 4060      	SBCI R22,0
0013cd 4070      	SBCI R23,0
0013ce 940e 27bf 	CALL __PUTDP1_DEC
0013d0 89ac      	LDD  R26,Y+20
0013d1 89bd      	LDD  R27,Y+20+1
0013d2 9615      	ADIW R26,5
0013d3 e0e1      	LDI  R30,LOW(1)
0013d4 93ec      	ST   X,R30
                 _0x202005E:
0013d5 940e 227e 	CALL SUBOPT_0x34
                 _0x20A0011:
0013d7 9666      	ADIW R28,22
0013d8 9508      	RET
                 ; .FEND
                 _clust2sect:
                 ; .FSTART _clust2sect
0013d9 940e 27e1 	CALL __PUTPARD2
0013db 940e 23af 	CALL SUBOPT_0x5B
                +
0013dd 50e2     +SUBI R30 , LOW ( 2 )
0013de 40f0     +SBCI R31 , HIGH ( 2 )
0013df 4060     +SBCI R22 , BYTE3 ( 2 )
0013e0 4070     +SBCI R23 , BYTE4 ( 2 )
                 	__SUBD1N 2
0013e1 940e 23a2 	CALL SUBOPT_0x58
0013e3 81ec      	LDD  R30,Y+4
0013e4 81fd      	LDD  R31,Y+4+1
                +
0013e5 8da6     +LDD R26 , Z + 30
0013e6 8db7     +LDD R27 , Z + 30 + 1
0013e7 a180     +LDD R24 , Z + 30 + 2
0013e8 a191     +LDD R25 , Z + 30 + 3
                 	__GETD2Z 30
                +
0013e9 e0e2     +LDI R30 , LOW ( 0x2 )
0013ea e0f0     +LDI R31 , HIGH ( 0x2 )
0013eb e060     +LDI R22 , BYTE3 ( 0x2 )
0013ec e070     +LDI R23 , BYTE4 ( 0x2 )
                 	__GETD1N 0x2
0013ed 940e 23e8 	CALL SUBOPT_0x66
0013ef 940e 27cd 	CALL __GETD2S0
0013f1 940e 2802 	CALL __CPD21
0013f3 f018      	BRLO _0x202005F
0013f4 940e 23dc 	CALL SUBOPT_0x64
0013f6 c36c      	RJMP _0x20A000C
                 _0x202005F:
0013f7 81ec      	LDD  R30,Y+4
0013f8 81fd      	LDD  R31,Y+4+1
0013f9 81e2      	LDD  R30,Z+2
0013fa e0f0      	LDI  R31,0
0013fb 940e 27cd 	CALL __GETD2S0
0013fd 940e 273a 	CALL __CWD1
0013ff 940e 273f 	CALL __MULD12U
001401 937f      	PUSH R23
001402 936f      	PUSH R22
001403 93ff      	PUSH R31
001404 93ef      	PUSH R30
001405 81ac      	LDD  R26,Y+4
001406 81bd      	LDD  R27,Y+4+1
001407 969a      	ADIW R26,42
001408 940e 27af 	CALL __GETD1P
00140a 91af      	POP  R26
00140b 91bf      	POP  R27
00140c 918f      	POP  R24
00140d 919f      	POP  R25
00140e 940e 26dc 	CALL __ADDD12
001410 c352      	RJMP _0x20A000C
                 ; .FEND
                 _dir_seek_G101:
                 ; .FSTART _dir_seek_G101
001411 93ba      	ST   -Y,R27
001412 93aa      	ST   -Y,R26
001413 9724      	SBIW R28,4
001414 931a      	ST   -Y,R17
001415 930a      	ST   -Y,R16
001416 81ee      	LDD  R30,Y+6
001417 81ff      	LDD  R31,Y+6+1
001418 940e 23ed 	CALL SUBOPT_0x67
00141a 9616      	ADIW R26,6
00141b 940e 23f5 	CALL SUBOPT_0x68
00141d 940e 23fc 	CALL SUBOPT_0x69
00141f 940e 2379 	CALL SUBOPT_0x52
001421 f029      	BREQ _0x2020061
001422 940e 2401 	CALL SUBOPT_0x6A
001424 940e 2406 	CALL SUBOPT_0x6B
001426 f020      	BRLO _0x2020060
                 _0x2020061:
001427 e0e2      	LDI  R30,LOW(2)
001428 8119      	LDD  R17,Y+1
001429 8108      	LDD  R16,Y+0
00142a c15f      	RJMP _0x20A0010
                 _0x2020060:
00142b 940e 240e 	CALL SUBOPT_0x6C
00142d f429      	BRNE _0x2020064
00142e 940e 2401 	CALL SUBOPT_0x6A
001430 81a0      	LD   R26,Z
001431 30a3      	CPI  R26,LOW(0x3)
001432 f009      	BREQ _0x2020065
                 _0x2020064:
001433 c006      	RJMP _0x2020063
                 _0x2020065:
001434 940e 2401 	CALL SUBOPT_0x6A
001436 96b6      	ADIW R30,38
001437 01df      	MOVW R26,R30
001438 940e 23f5 	CALL SUBOPT_0x68
                 _0x2020063:
00143a 940e 240e 	CALL SUBOPT_0x6C
00143c f4b1      	BRNE _0x2020066
00143d 940e 2415 	CALL SUBOPT_0x6D
00143f 9638      	ADIW R30,8
001440 01df      	MOVW R26,R30
001441 940e 27ab 	CALL __GETW1P
001443 81ae      	LDD  R26,Y+6
001444 81bf      	LDD  R27,Y+6+1
001445 17ae      	CP   R26,R30
001446 07bf      	CPC  R27,R31
001447 f020      	BRLO _0x2020067
001448 e0e2      	LDI  R30,LOW(2)
001449 8119      	LDD  R17,Y+1
00144a 8108      	LDD  R16,Y+0
00144b c13e      	RJMP _0x20A0010
                 _0x2020067:
00144c 940e 2401 	CALL SUBOPT_0x6A
00144e 96b6      	ADIW R30,38
00144f 01df      	MOVW R26,R30
001450 940e 27af 	CALL __GETD1P
001452 c03b      	RJMP _0x202027B
                 _0x2020066:
001453 940e 2401 	CALL SUBOPT_0x6A
001455 81e2      	LDD  R30,Z+2
001456 e1a0      	LDI  R26,LOW(16)
001457 9fea      	MUL  R30,R26
001458 0180      	MOVW R16,R0
                 _0x2020069:
001459 81ae      	LDD  R26,Y+6
00145a 81bf      	LDD  R27,Y+6+1
00145b 17a0      	CP   R26,R16
00145c 07b1      	CPC  R27,R17
00145d f148      	BRLO _0x202006B
00145e 940e 2401 	CALL SUBOPT_0x6A
001460 93fa      	ST   -Y,R31
001461 93ea      	ST   -Y,R30
001462 940e 23aa 	CALL SUBOPT_0x5A
001464 dd36      	RCALL _get_fat
                +
001465 83ea     +STD Y + 2 , R30
001466 83fb     +STD Y + 2 + 1 , R31
001467 836c     +STD Y + 2 + 2 , R22
001468 837d     +STD Y + 2 + 3 , R23
                 	__PUTD1S 2
001469 940e 23fc 	CALL SUBOPT_0x69
00146b 940e 2381 	CALL SUBOPT_0x53
00146d f421      	BRNE _0x202006C
00146e e0e1      	LDI  R30,LOW(1)
00146f 8119      	LDD  R17,Y+1
001470 8108      	LDD  R16,Y+0
001471 c118      	RJMP _0x20A0010
                 _0x202006C:
001472 940e 23fc 	CALL SUBOPT_0x69
001474 940e 22be 	CALL SUBOPT_0x3D
001476 f028      	BRLO _0x202006E
001477 940e 2401 	CALL SUBOPT_0x6A
001479 940e 2406 	CALL SUBOPT_0x6B
00147b f020      	BRLO _0x202006D
                 _0x202006E:
00147c e0e2      	LDI  R30,LOW(2)
00147d 8119      	LDD  R17,Y+1
00147e 8108      	LDD  R16,Y+0
00147f c10a      	RJMP _0x20A0010
                 _0x202006D:
001480 81ee      	LDD  R30,Y+6
001481 81ff      	LDD  R31,Y+6+1
001482 1be0      	SUB  R30,R16
001483 0bf1      	SBC  R31,R17
001484 83ee      	STD  Y+6,R30
001485 83ff      	STD  Y+6+1,R31
001486 cfd2      	RJMP _0x2020069
                 _0x202006B:
001487 940e 2415 	CALL SUBOPT_0x6D
001489 93fa      	ST   -Y,R31
00148a 93ea      	ST   -Y,R30
00148b 940e 23aa 	CALL SUBOPT_0x5A
00148d df4b      	RCALL _clust2sect
                 _0x202027B:
00148e 01df      	MOVW R26,R30
00148f 01cb      	MOVW R24,R22
001490 81ee      	LDD  R30,Y+6
001491 81ff      	LDD  R31,Y+6+1
001492 940e 2722 	CALL __LSRW4
001494 940e 241f 	CALL SUBOPT_0x6E
001496 940e 2424 	CALL SUBOPT_0x6F
001498 940e 2401 	CALL SUBOPT_0x6A
00149a 96f2      	ADIW R30,50
00149b 01df      	MOVW R26,R30
00149c 81ee      	LDD  R30,Y+6
00149d 81ff      	LDD  R31,Y+6+1
00149e 940e 242a 	CALL SUBOPT_0x70
0014a0 8119      	LDD  R17,Y+1
0014a1 8108      	LDD  R16,Y+0
0014a2 c0e7      	RJMP _0x20A0010
                 ; .FEND
                 _dir_next_G101:
                 ; .FSTART _dir_next_G101
0014a3 93aa      	ST   -Y,R26
0014a4 9724      	SBIW R28,4
0014a5 940e 280a 	CALL __SAVELOCR3
0014a7 85a8      	LDD  R26,Y+8
0014a8 85b9      	LDD  R27,Y+8+1
0014a9 9614      	ADIW R26,4
0014aa 940e 27ab 	CALL __GETW1P
0014ac 9631      	ADIW R30,1
0014ad 018f      	MOVW R16,R30
0014ae 2e00      	MOV  R0,R16
0014af 2a01      	OR   R0,R17
0014b0 f031      	BREQ _0x2020071
0014b1 85a8      	LDD  R26,Y+8
0014b2 85b9      	LDD  R27,Y+8+1
0014b3 961e      	ADIW R26,14
0014b4 940e 2438 	CALL SUBOPT_0x71
0014b6 f411      	BRNE _0x2020070
                 _0x2020071:
0014b7 e0e4      	LDI  R30,LOW(4)
0014b8 c0cf      	RJMP _0x20A000F
                 _0x2020070:
0014b9 01f8      	MOVW R30,R16
0014ba 70ef      	ANDI R30,LOW(0xF)
0014bb f009      	BREQ PC+2
0014bc c0c1      	RJMP _0x2020073
0014bd 85a8      	LDD  R26,Y+8
0014be 85b9      	LDD  R27,Y+8+1
0014bf 940e 2398 	CALL SUBOPT_0x57
0014c1 85a8      	LDD  R26,Y+8
0014c2 85b9      	LDD  R27,Y+8+1
0014c3 961a      	ADIW R26,10
0014c4 940e 2438 	CALL SUBOPT_0x71
0014c6 f461      	BRNE _0x2020074
0014c7 940e 2401 	CALL SUBOPT_0x6A
0014c9 9638      	ADIW R30,8
0014ca 01df      	MOVW R26,R30
0014cb 940e 27ab 	CALL __GETW1P
0014cd 170e      	CP   R16,R30
0014ce 071f      	CPC  R17,R31
0014cf f010      	BRLO _0x2020075
0014d0 e0e4      	LDI  R30,LOW(4)
0014d1 c0b6      	RJMP _0x20A000F
                 _0x2020075:
0014d2 c0ab      	RJMP _0x2020076
                 _0x2020074:
0014d3 01f8      	MOVW R30,R16
0014d4 940e 2722 	CALL __LSRW4
0014d6 010f      	MOVW R0,R30
0014d7 940e 2401 	CALL SUBOPT_0x6A
0014d9 81e2      	LDD  R30,Z+2
0014da e0f0      	LDI  R31,0
0014db 9731      	SBIW R30,1
0014dc 21e0      	AND  R30,R0
0014dd 21f1      	AND  R31,R1
0014de 9730      	SBIW R30,0
0014df f009      	BREQ PC+2
0014e0 c09d      	RJMP _0x2020077
0014e1 940e 2401 	CALL SUBOPT_0x6A
0014e3 940e 243d 	CALL SUBOPT_0x72
0014e5 dcb5      	RCALL _get_fat
0014e6 940e 2446 	CALL SUBOPT_0x73
0014e8 940e 244b 	CALL SUBOPT_0x74
0014ea 940e 22be 	CALL SUBOPT_0x3D
0014ec f410      	BRSH _0x2020078
0014ed e0e2      	LDI  R30,LOW(2)
0014ee c099      	RJMP _0x20A000F
                 _0x2020078:
0014ef 940e 244b 	CALL SUBOPT_0x74
0014f1 940e 2381 	CALL SUBOPT_0x53
0014f3 f411      	BRNE _0x2020079
0014f4 e0e1      	LDI  R30,LOW(1)
0014f5 c092      	RJMP _0x20A000F
                 _0x2020079:
0014f6 940e 2401 	CALL SUBOPT_0x6A
0014f8 967e      	ADIW R30,30
0014f9 01df      	MOVW R26,R30
0014fa 940e 27af 	CALL __GETD1P
0014fc 940e 244b 	CALL SUBOPT_0x74
0014fe 940e 2802 	CALL __CPD21
001500 f408      	BRSH PC+2
001501 c06d      	RJMP _0x202007A
001502 81ef      	LDD  R30,Y+7
001503 30e0      	CPI  R30,0
001504 f411      	BRNE _0x202007B
001505 e0e4      	LDI  R30,LOW(4)
001506 c081      	RJMP _0x20A000F
                 _0x202007B:
001507 940e 2401 	CALL SUBOPT_0x6A
001509 940e 243d 	CALL SUBOPT_0x72
00150b de06      	RCALL _create_chain_G101
00150c 940e 2450 	CALL SUBOPT_0x75
00150e 940e 27f3 	CALL __CPD10
001510 f411      	BRNE _0x202007C
001511 e0e7      	LDI  R30,LOW(7)
001512 c075      	RJMP _0x20A000F
                 _0x202007C:
001513 940e 244b 	CALL SUBOPT_0x74
001515 940e 2379 	CALL SUBOPT_0x52
001517 f411      	BRNE _0x202007D
001518 e0e2      	LDI  R30,LOW(2)
001519 c06e      	RJMP _0x20A000F
                 _0x202007D:
00151a 940e 244b 	CALL SUBOPT_0x74
00151c 940e 2381 	CALL SUBOPT_0x53
00151e f411      	BRNE _0x202007E
00151f e0e1      	LDI  R30,LOW(1)
001520 c067      	RJMP _0x20A000F
                 _0x202007E:
001521 940e 2401 	CALL SUBOPT_0x6A
001523 940e 228a 	CALL SUBOPT_0x36
001525 30e0      	CPI  R30,0
001526 f011      	BREQ _0x202007F
001527 e0e1      	LDI  R30,LOW(1)
001528 c05f      	RJMP _0x20A000F
                 _0x202007F:
001529 940e 2401 	CALL SUBOPT_0x6A
00152b 940e 229a 	CALL SUBOPT_0x38
00152d 940e 2401 	CALL SUBOPT_0x6A
00152f 01df      	MOVW R26,R30
001530 96be      	ADIW R30,46
001531 93ff      	PUSH R31
001532 93ef      	PUSH R30
001533 01fd      	MOVW R30,R26
001534 940e 2456 	CALL SUBOPT_0x76
001536 91af      	POP  R26
001537 91bf      	POP  R27
001538 940e 27ba 	CALL __PUTDP1
00153a e020      	LDI  R18,LOW(0)
                 _0x2020081:
00153b 940e 2401 	CALL SUBOPT_0x6A
00153d 81e2      	LDD  R30,Z+2
00153e 172e      	CP   R18,R30
00153f f4d8      	BRSH _0x2020082
001540 940e 2401 	CALL SUBOPT_0x6A
001542 9634      	ADIW R30,4
001543 e0a1      	LDI  R26,LOW(1)
001544 83a0      	STD  Z+0,R26
001545 940e 2401 	CALL SUBOPT_0x6A
001547 940e 228a 	CALL SUBOPT_0x36
001549 30e0      	CPI  R30,0
00154a f011      	BREQ _0x2020083
00154b e0e1      	LDI  R30,LOW(1)
00154c c03b      	RJMP _0x20A000F
                 _0x2020083:
00154d 940e 2401 	CALL SUBOPT_0x6A
00154f 96be      	ADIW R30,46
001550 01df      	MOVW R26,R30
001551 940e 27b5 	CALL __GETD1P_INC
                +
001553 5fef     +SUBI R30 , LOW ( - 1 )
001554 4fff     +SBCI R31 , HIGH ( - 1 )
001555 4f6f     +SBCI R22 , BYTE3 ( - 1 )
001556 4f7f     +SBCI R23 , BYTE4 ( - 1 )
                 	__SUBD1N -1
001557 940e 27bf 	CALL __PUTDP1_DEC
001559 5f2f      	SUBI R18,-1
00155a cfe0      	RJMP _0x2020081
                 _0x2020082:
00155b 940e 2401 	CALL SUBOPT_0x6A
00155d 96be      	ADIW R30,46
00155e 93ff      	PUSH R31
00155f 93ef      	PUSH R30
001560 01df      	MOVW R26,R30
001561 940e 27af 	CALL __GETD1P
001563 01df      	MOVW R26,R30
001564 01cb      	MOVW R24,R22
001565 2fe2      	MOV  R30,R18
001566 e0f0      	LDI  R31,0
001567 940e 273a 	CALL __CWD1
001569 940e 23e8 	CALL SUBOPT_0x66
00156b 91af      	POP  R26
00156c 91bf      	POP  R27
00156d 940e 27ba 	CALL __PUTDP1
                 _0x202007A:
                +
00156f 81eb     +LDD R30 , Y + 3
001570 81fc     +LDD R31 , Y + 3 + 1
001571 816d     +LDD R22 , Y + 3 + 2
001572 817e     +LDD R23 , Y + 3 + 3
                 	__GETD1S 3
                +
001573 85a8     +LDD R26 , Y + 8
001574 85b9     +LDD R27 , Y + 8 + 1
001575 961a     +ADIW R26 , 10
001576 940e 27ba+CALL __PUTDP1
                 	__PUTD1SNS 8,10
001578 940e 2401 	CALL SUBOPT_0x6A
00157a 940e 2456 	CALL SUBOPT_0x76
00157c 940e 2424 	CALL SUBOPT_0x6F
                 _0x2020077:
                 _0x2020076:
                 _0x2020073:
00157e 01f8      	MOVW R30,R16
00157f 940e 23ed 	CALL SUBOPT_0x67
001581 940e 27ab 	CALL __GETW1P
001583 96f2      	ADIW R30,50
001584 01df      	MOVW R26,R30
001585 01f8      	MOVW R30,R16
001586 940e 242a 	CALL SUBOPT_0x70
                 _0x20A000F:
001588 940e 2811 	CALL __LOADLOCR3
                 _0x20A0010:
00158a 962a      	ADIW R28,10
00158b 9508      	RET
                 ; .FEND
                 _dir_find_G101:
                 ; .FSTART _dir_find_G101
00158c 940e 245b 	CALL SUBOPT_0x77
00158e f021      	BREQ _0x2020084
00158f 2fe0      	MOV  R30,R16
001590 940e 2810 	CALL __LOADLOCR4
001592 c1d0      	RJMP _0x20A000C
                 _0x2020084:
                 _0x2020086:
001593 940e 246a 	CALL SUBOPT_0x78
001595 f501      	BRNE _0x2020087
001596 81ac      	LDD  R26,Y+4
001597 81bd      	LDD  R27,Y+4+1
001598 9652      	ADIW R26,18
001599 912d      	LD   R18,X+
00159a 913c      	LD   R19,X
00159b 01d9      	MOVW R26,R18
00159c 911c      	LD   R17,X
00159d 3010      	CPI  R17,0
00159e f411      	BRNE _0x2020089
00159f e004      	LDI  R16,LOW(4)
0015a0 c015      	RJMP _0x2020087
                 _0x2020089:
0015a1 01f9      	MOVW R30,R18
0015a2 85e3      	LDD  R30,Z+11
0015a3 70e8      	ANDI R30,LOW(0x8)
0015a4 f431      	BRNE _0x202008B
0015a5 940e 247b 	CALL SUBOPT_0x79
0015a7 940e 20bd 	CALL _memcmp
0015a9 30e0      	CPI  R30,0
0015aa f009      	BREQ _0x202008C
                 _0x202008B:
0015ab c001      	RJMP _0x202008A
                 _0x202008C:
0015ac c009      	RJMP _0x2020087
                 _0x202008A:
0015ad 81ec      	LDD  R30,Y+4
0015ae 81fd      	LDD  R31,Y+4+1
0015af 93fa      	ST   -Y,R31
0015b0 93ea      	ST   -Y,R30
0015b1 e0a0      	LDI  R26,LOW(0)
0015b2 def0      	RCALL _dir_next_G101
0015b3 2f0e      	MOV  R16,R30
0015b4 3000      	CPI  R16,0
0015b5 f2e9      	BREQ _0x2020086
                 _0x2020087:
0015b6 2fe0      	MOV  R30,R16
0015b7 940e 2810 	CALL __LOADLOCR4
0015b9 c1a9      	RJMP _0x20A000C
                 ; .FEND
                 _dir_register_G101:
                 ; .FSTART _dir_register_G101
0015ba 940e 245b 	CALL SUBOPT_0x77
0015bc f4b1      	BRNE _0x2020099
                 _0x202009B:
0015bd 940e 246a 	CALL SUBOPT_0x78
0015bf f499      	BRNE _0x202009C
0015c0 81ec      	LDD  R30,Y+4
0015c1 81fd      	LDD  R31,Y+4+1
0015c2 89a2      	LDD  R26,Z+18
0015c3 89b3      	LDD  R27,Z+19
0015c4 911c      	LD   R17,X
0015c5 3e15      	CPI  R17,229
0015c6 f011      	BREQ _0x202009F
0015c7 3010      	CPI  R17,0
0015c8 f409      	BRNE _0x202009E
                 _0x202009F:
0015c9 c009      	RJMP _0x202009C
                 _0x202009E:
0015ca 81ec      	LDD  R30,Y+4
0015cb 81fd      	LDD  R31,Y+4+1
0015cc 93fa      	ST   -Y,R31
0015cd 93ea      	ST   -Y,R30
0015ce e0a1      	LDI  R26,LOW(1)
0015cf ded3      	RCALL _dir_next_G101
0015d0 2f0e      	MOV  R16,R30
0015d1 3000      	CPI  R16,0
0015d2 f351      	BREQ _0x202009B
                 _0x202009C:
                 _0x2020099:
0015d3 3000      	CPI  R16,0
0015d4 f529      	BRNE _0x20200A1
0015d5 940e 246a 	CALL SUBOPT_0x78
0015d7 f511      	BRNE _0x20200A2
0015d8 81ac      	LDD  R26,Y+4
0015d9 81bd      	LDD  R27,Y+4+1
0015da 9652      	ADIW R26,18
0015db 912d      	LD   R18,X+
0015dc 913c      	LD   R19,X
0015dd 933a      	ST   -Y,R19
0015de 932a      	ST   -Y,R18
0015df e0e0      	LDI  R30,LOW(0)
0015e0 93ea      	ST   -Y,R30
0015e1 e2a0      	LDI  R26,LOW(32)
0015e2 e0b0      	LDI  R27,0
0015e3 940e 20e8 	CALL _memset
0015e5 940e 247b 	CALL SUBOPT_0x79
0015e7 940e 20d6 	CALL _memcpy
0015e9 81ac      	LDD  R26,Y+4
0015ea 81bd      	LDD  R27,Y+4+1
0015eb 9654      	ADIW R26,20
0015ec 940e 27ab 	CALL __GETW1P
0015ee 85e3      	LDD  R30,Z+11
0015ef 71e8      	ANDI R30,LOW(0x18)
                +
0015f0 01d9     +MOVW R26 , R18
0015f1 961c     +ADIW R26 , 12
0015f2 93ec     +ST X , R30
                 	__PUTB1RNS 18,12
0015f3 81ac      	LDD  R26,Y+4
0015f4 81bd      	LDD  R27,Y+4+1
0015f5 940e 27ab 	CALL __GETW1P
0015f7 9634      	ADIW R30,4
0015f8 e0a1      	LDI  R26,LOW(1)
0015f9 83a0      	STD  Z+0,R26
                 _0x20200A2:
                 _0x20200A1:
0015fa 2fe0      	MOV  R30,R16
0015fb 940e 2810 	CALL __LOADLOCR4
0015fd c165      	RJMP _0x20A000C
                 ; .FEND
                 _create_name_G101:
                 ; .FSTART _create_name_G101
0015fe 93ba      	ST   -Y,R27
0015ff 93aa      	ST   -Y,R26
001600 9725      	SBIW R28,5
001601 940e 2807 	CALL __SAVELOCR6
001603 85ad      	LDD  R26,Y+13
001604 85be      	LDD  R27,Y+13+1
001605 9654      	ADIW R26,20
001606 913d      	LD   R19,X+
001607 914c      	LD   R20,X
001608 934a      	ST   -Y,R20
001609 933a      	ST   -Y,R19
00160a e2e0      	LDI  R30,LOW(32)
00160b 93ea      	ST   -Y,R30
00160c e0ab      	LDI  R26,LOW(11)
00160d e0b0      	LDI  R27,0
00160e 940e 20e8 	CALL _memset
001610 e0e0      	LDI  R30,LOW(0)
001611 87e8      	STD  Y+8,R30
001612 87e9      	STD  Y+8+1,R30
001613 2f0e      	MOV  R16,R30
001614 2f5e      	MOV  R21,R30
001615 e0e8      	LDI  R30,LOW(8)
001616 87ea      	STD  Y+10,R30
001617 85ab      	LDD  R26,Y+11
001618 85bc      	LDD  R27,Y+11+1
001619 940e 2486 	CALL SUBOPT_0x7A
00161b 940e 248b 	CALL SUBOPT_0x7B
00161d 0fae      	ADD  R26,R30
00161e 1fbf      	ADC  R27,R31
00161f 91ac      	LD   R26,X
001620 32ae      	CPI  R26,LOW(0x2E)
001621 f511      	BRNE _0x20200A5
                 _0x20200A7:
001622 940e 2490 	CALL SUBOPT_0x7C
001624 321e      	CPI  R17,46
001625 f421      	BRNE _0x20200AA
001626 85a8      	LDD  R26,Y+8
001627 85b9      	LDD  R27,Y+8+1
001628 9713      	SBIW R26,3
001629 f00c      	BRLT _0x20200A9
                 _0x20200AA:
00162a c003      	RJMP _0x20200A8
                 _0x20200A9:
00162b 940e 249c 	CALL SUBOPT_0x7D
00162d cff4      	RJMP _0x20200A7
                 _0x20200A8:
00162e 321f      	CPI  R17,47
00162f f021      	BREQ _0x20200AD
001630 351c      	CPI  R17,92
001631 f011      	BREQ _0x20200AD
001632 3211      	CPI  R17,33
001633 f408      	BRSH _0x20200AE
                 _0x20200AD:
001634 c002      	RJMP _0x20200AC
                 _0x20200AE:
001635 e0e6      	LDI  R30,LOW(6)
001636 c071      	RJMP _0x20A000D
                 _0x20200AC:
001637 940e 248b 	CALL SUBOPT_0x7B
001639 940e 24a3 	CALL SUBOPT_0x7E
00163b f410      	BRSH _0x20200AF
00163c e2e4      	LDI  R30,LOW(36)
00163d c001      	RJMP _0x20200B0
                 _0x20200AF:
00163e e2e0      	LDI  R30,LOW(32)
                 _0x20200B0:
                +
00163f 2fa3     +MOV R26 , R19
001640 2fb4     +MOV R27 , R20
001641 961b     +ADIW R26 , 11
001642 93ec     +ST X , R30
                 	__PUTB1RONS 19,20,11
001643 c063      	RJMP _0x20A000E
                 _0x20200A5:
                 _0x20200B3:
001644 940e 2490 	CALL SUBOPT_0x7C
001646 3211      	CPI  R17,33
001647 f020      	BRLO _0x20200B6
001648 321f      	CPI  R17,47
001649 f011      	BREQ _0x20200B6
00164a 351c      	CPI  R17,92
00164b f409      	BRNE _0x20200B5
                 _0x20200B6:
00164c c032      	RJMP _0x20200B4
                 _0x20200B5:
00164d 321e      	CPI  R17,46
00164e f019      	BREQ _0x20200B9
00164f 85ea      	LDD  R30,Y+10
001650 175e      	CP   R21,R30
001651 f068      	BRLO _0x20200B8
                 _0x20200B9:
001652 85aa      	LDD  R26,Y+10
001653 30a8      	CPI  R26,LOW(0x8)
001654 f411      	BRNE _0x20200BC
001655 321e      	CPI  R17,46
001656 f011      	BREQ _0x20200BB
                 _0x20200BC:
001657 e0e6      	LDI  R30,LOW(6)
001658 c04f      	RJMP _0x20A000D
                 _0x20200BB:
001659 e058      	LDI  R21,LOW(8)
00165a e0eb      	LDI  R30,LOW(11)
00165b 87ea      	STD  Y+10,R30
00165c 0f00      	LSL  R16
00165d 0f00      	LSL  R16
00165e c01f      	RJMP _0x20200B2
                 _0x20200B8:
00165f 3810      	CPI  R17,128
001660 f018      	BRLO _0x20200BE
001661 6003      	ORI  R16,LOW(3)
001662 e0e6      	LDI  R30,LOW(6)
001663 c044      	RJMP _0x20A000D
                 _0x20200BE:
001664 eae4      	LDI  R30,LOW(_k1*2)
001665 e0f8      	LDI  R31,HIGH(_k1*2)
001666 93fa      	ST   -Y,R31
001667 93ea      	ST   -Y,R30
001668 2fa1      	MOV  R26,R17
001669 da49      	RCALL _chk_chrf_G101
00166a 9730      	SBIW R30,0
00166b f011      	BREQ _0x20200C4
00166c e0e6      	LDI  R30,LOW(6)
00166d c03a      	RJMP _0x20A000D
                 _0x20200C4:
00166e 3411      	CPI  R17,65
00166f f010      	BRLO _0x20200C6
001670 351b      	CPI  R17,91
001671 f008      	BRLO _0x20200C7
                 _0x20200C6:
001672 c002      	RJMP _0x20200C5
                 _0x20200C7:
001673 6002      	ORI  R16,LOW(2)
001674 c007      	RJMP _0x20200C8
                 _0x20200C5:
001675 3611      	CPI  R17,97
001676 f010      	BRLO _0x20200CA
001677 371b      	CPI  R17,123
001678 f008      	BRLO _0x20200CB
                 _0x20200CA:
001679 c002      	RJMP _0x20200C9
                 _0x20200CB:
00167a 6001      	ORI  R16,LOW(1)
00167b 5210      	SUBI R17,LOW(32)
                 _0x20200C9:
                 _0x20200C8:
00167c 940e 249c 	CALL SUBOPT_0x7D
                 _0x20200B2:
00167e cfc5      	RJMP _0x20200B3
                 _0x20200B4:
00167f 940e 248b 	CALL SUBOPT_0x7B
001681 940e 24a3 	CALL SUBOPT_0x7E
001683 f410      	BRSH _0x20200CC
001684 e0e4      	LDI  R30,LOW(4)
001685 c001      	RJMP _0x20200CD
                 _0x20200CC:
001686 e0e0      	LDI  R30,LOW(0)
                 _0x20200CD:
001687 2f1e      	MOV  R17,R30
001688 3050      	CPI  R21,0
001689 f411      	BRNE _0x20200CF
00168a e0e6      	LDI  R30,LOW(6)
00168b c01c      	RJMP _0x20A000D
                 _0x20200CF:
                +
00168c 2fa3     +MOV R26 , R19
00168d 2fb4     +MOV R27 , R20
                 	__GETW2R 19,20
00168e 91ac      	LD   R26,X
00168f 3ea5      	CPI  R26,LOW(0xE5)
001690 f421      	BRNE _0x20200D0
                +
001691 2fa3     +MOV R26 , R19
001692 2fb4     +MOV R27 , R20
                 	__GETW2R 19,20
001693 e0e5      	LDI  R30,LOW(5)
001694 93ec      	ST   X,R30
                 _0x20200D0:
001695 85aa      	LDD  R26,Y+10
001696 30a8      	CPI  R26,LOW(0x8)
001697 f411      	BRNE _0x20200D1
001698 0f00      	LSL  R16
001699 0f00      	LSL  R16
                 _0x20200D1:
00169a 2fe0      	MOV  R30,R16
00169b 70e3      	ANDI R30,LOW(0x3)
00169c 30e1      	CPI  R30,LOW(0x1)
00169d f409      	BRNE _0x20200D2
00169e 6110      	ORI  R17,LOW(16)
                 _0x20200D2:
00169f 2fe0      	MOV  R30,R16
0016a0 70ec      	ANDI R30,LOW(0xC)
0016a1 30e4      	CPI  R30,LOW(0x4)
0016a2 f409      	BRNE _0x20200D3
0016a3 6018      	ORI  R17,LOW(8)
                 _0x20200D3:
                +
0016a4 2fe3     +MOV R30 , R19
0016a5 2ff4     +MOV R31 , R20
                 	__GETW1R 19,20
                +
0016a6 8713     +STD Z + 11 , R17
                 	__PUTBZR 17,11
                 _0x20A000E:
0016a7 e0e0      	LDI  R30,LOW(0)
                 _0x20A000D:
0016a8 940e 280e 	CALL __LOADLOCR6
0016aa 962f      	ADIW R28,15
0016ab 9508      	RET
                 ; .FEND
                 _follow_path_G101:
                 ; .FSTART _follow_path_G101
0016ac 93ba      	ST   -Y,R27
0016ad 93aa      	ST   -Y,R26
0016ae 940e 2809 	CALL __SAVELOCR4
                 _0x20200E9:
0016b0 e0e1      	LDI  R30,LOW(1)
0016b1 30e0      	CPI  R30,0
0016b2 f029      	BREQ _0x20200EC
0016b3 81ac      	LDD  R26,Y+4
0016b4 81bd      	LDD  R27,Y+4+1
0016b5 91ac      	LD   R26,X
0016b6 32a0      	CPI  R26,LOW(0x20)
0016b7 f009      	BREQ _0x20200ED
                 _0x20200EC:
0016b8 c006      	RJMP _0x20200EB
                 _0x20200ED:
0016b9 81ec      	LDD  R30,Y+4
0016ba 81fd      	LDD  R31,Y+4+1
0016bb 9631      	ADIW R30,1
0016bc 83ec      	STD  Y+4,R30
0016bd 83fd      	STD  Y+4+1,R31
0016be cff1      	RJMP _0x20200E9
                 _0x20200EB:
0016bf 81ac      	LDD  R26,Y+4
0016c0 81bd      	LDD  R27,Y+4+1
0016c1 91ac      	LD   R26,X
0016c2 32af      	CPI  R26,LOW(0x2F)
0016c3 f029      	BREQ _0x20200EF
0016c4 81ac      	LDD  R26,Y+4
0016c5 81bd      	LDD  R27,Y+4+1
0016c6 91ac      	LD   R26,X
0016c7 35ac      	CPI  R26,LOW(0x5C)
0016c8 f459      	BRNE _0x20200EE
                 _0x20200EF:
0016c9 81ec      	LDD  R30,Y+4
0016ca 81fd      	LDD  R31,Y+4+1
0016cb 9631      	ADIW R30,1
0016cc 83ec      	STD  Y+4,R30
0016cd 83fd      	STD  Y+4+1,R31
0016ce 81ae      	LDD  R26,Y+6
0016cf 81bf      	LDD  R27,Y+6+1
0016d0 9616      	ADIW R26,6
0016d1 940e 24ab 	CALL SUBOPT_0x7F
0016d3 c00a      	RJMP _0x20200F1
                 _0x20200EE:
0016d4 81ae      	LDD  R26,Y+6
0016d5 81bf      	LDD  R27,Y+6+1
0016d6 940e 27ab 	CALL __GETW1P
0016d8 9676      	ADIW R30,22
0016d9 01df      	MOVW R26,R30
0016da 940e 27af 	CALL __GETD1P
0016dc 940e 24af 	CALL SUBOPT_0x80
                 _0x20200F1:
0016de 81ac      	LDD  R26,Y+4
0016df 81bd      	LDD  R27,Y+4+1
0016e0 91ac      	LD   R26,X
0016e1 27bb      	CLR  R27
0016e2 9790      	SBIW R26,32
0016e3 f460      	BRSH _0x20200F2
0016e4 940e 24b5 	CALL SUBOPT_0x81
0016e6 e0a0      	LDI  R26,LOW(0)
0016e7 e0b0      	LDI  R27,0
0016e8 dd28      	RCALL _dir_seek_G101
0016e9 2f0e      	MOV  R16,R30
0016ea 81ae      	LDD  R26,Y+6
0016eb 81bf      	LDD  R27,Y+6+1
0016ec 9652      	ADIW R26,18
0016ed 940e 24ba 	CALL SUBOPT_0x82
0016ef c03e      	RJMP _0x20200F3
                 _0x20200F2:
                 _0x20200F5:
0016f0 940e 24b5 	CALL SUBOPT_0x81
0016f2 01de      	MOVW R26,R28
0016f3 9616      	ADIW R26,6
0016f4 df09      	RCALL _create_name_G101
0016f5 2f0e      	MOV  R16,R30
0016f6 3000      	CPI  R16,0
0016f7 f5b1      	BRNE _0x20200F6
0016f8 81ae      	LDD  R26,Y+6
0016f9 81bf      	LDD  R27,Y+6+1
0016fa de91      	RCALL _dir_find_G101
0016fb 2f0e      	MOV  R16,R30
0016fc 81ae      	LDD  R26,Y+6
0016fd 81bf      	LDD  R27,Y+6+1
0016fe 9654      	ADIW R26,20
0016ff 940e 27ab 	CALL __GETW1P
001701 85e3      	LDD  R30,Z+11
001702 70e4      	ANDI R30,LOW(0x4)
001703 2f3e      	MOV  R19,R30
001704 3000      	CPI  R16,0
001705 f039      	BREQ _0x20200F8
001706 3004      	CPI  R16,4
001707 f411      	BRNE _0x20200FA
001708 3030      	CPI  R19,0
001709 f009      	BREQ _0x20200FB
                 _0x20200FA:
00170a c001      	RJMP _0x20200F9
                 _0x20200FB:
00170b e005      	LDI  R16,LOW(5)
                 _0x20200F9:
00170c c021      	RJMP _0x20200F6
                 _0x20200F8:
00170d 3030      	CPI  R19,0
00170e f4f9      	BRNE _0x20200F6
00170f 81ae      	LDD  R26,Y+6
001710 81bf      	LDD  R27,Y+6+1
001711 9652      	ADIW R26,18
001712 911d      	LD   R17,X+
001713 912c      	LD   R18,X
                +
001714 2fe1     +MOV R30 , R17
001715 2ff2     +MOV R31 , R18
                 	__GETW1R 17,18
001716 85e3      	LDD  R30,Z+11
001717 71e0      	ANDI R30,LOW(0x10)
001718 f411      	BRNE _0x20200FD
001719 e005      	LDI  R16,LOW(5)
00171a c013      	RJMP _0x20200F6
                 _0x20200FD:
00171b 940e 24bf 	CALL SUBOPT_0x83
00171d 940e 2735 	CALL __LSLD16
00171f 937f      	PUSH R23
001720 936f      	PUSH R22
001721 93ff      	PUSH R31
001722 93ef      	PUSH R30
001723 940e 24c3 	CALL SUBOPT_0x84
001725 91af      	POP  R26
001726 91bf      	POP  R27
001727 918f      	POP  R24
001728 919f      	POP  R25
001729 940e 24c9 	CALL SUBOPT_0x85
00172b 940e 24af 	CALL SUBOPT_0x80
00172d cfc2      	RJMP _0x20200F5
                 _0x20200F6:
                 _0x20200F3:
00172e 2fe0      	MOV  R30,R16
00172f 940e 2810 	CALL __LOADLOCR4
001731 9628      	ADIW R28,8
001732 9508      	RET
                 ; .FEND
                 _check_fs_G101:
                 ; .FSTART _check_fs_G101
001733 940e 27e1 	CALL __PUTPARD2
001735 81ec      	LDD  R30,Y+4
001736 81fd      	LDD  R31,Y+4+1
001737 81a1      	LDD  R26,Z+1
001738 93aa      	ST   -Y,R26
001739 81ed      	LDD  R30,Y+5
00173a 81fe      	LDD  R31,Y+5+1
00173b 96f2      	ADIW R30,50
00173c 93fa      	ST   -Y,R31
00173d 93ea      	ST   -Y,R30
                +
00173e 81eb     +LDD R30 , Y + 3
00173f 81fc     +LDD R31 , Y + 3 + 1
001740 816d     +LDD R22 , Y + 3 + 2
001741 817e     +LDD R23 , Y + 3 + 3
                 	__GETD1S 3
001742 940e 2283 	CALL SUBOPT_0x35
001744 f011      	BREQ _0x20200FE
001745 e0e3      	LDI  R30,LOW(3)
001746 c01c      	RJMP _0x20A000C
                 _0x20200FE:
001747 81ec      	LDD  R30,Y+4
001748 81fd      	LDD  R31,Y+4+1
001749 940e 24ce 	CALL SUBOPT_0x86
00174b f011      	BREQ _0x20200FF
00174c e0e2      	LDI  R30,LOW(2)
00174d c015      	RJMP _0x20A000C
                 _0x20200FF:
00174e 81ac      	LDD  R26,Y+4
00174f 81bd      	LDD  R27,Y+4+1
001750 59a8      	SUBI R26,LOW(-104)
001751 4fbf      	SBCI R27,HIGH(-104)
001752 940e 24d8 	CALL SUBOPT_0x87
001754 f411      	BRNE _0x2020100
001755 e0e0      	LDI  R30,LOW(0)
001756 c00c      	RJMP _0x20A000C
                 _0x2020100:
001757 81ec      	LDD  R30,Y+4
001758 81fd      	LDD  R31,Y+4+1
001759 96f2      	ADIW R30,50
00175a 5aee      	SUBI R30,LOW(-82)
00175b 4fff      	SBCI R31,HIGH(-82)
00175c 01df      	MOVW R26,R30
00175d 940e 24d8 	CALL SUBOPT_0x87
00175f f411      	BRNE _0x2020101
001760 e0e0      	LDI  R30,LOW(0)
001761 c001      	RJMP _0x20A000C
                 _0x2020101:
001762 e0e1      	LDI  R30,LOW(1)
                 _0x20A000C:
001763 9626      	ADIW R28,6
001764 9508      	RET
                 ; .FEND
                 _chk_mounted:
                 ; .FSTART _chk_mounted
001765 93aa      	ST   -Y,R26
001766 9764      	SBIW R28,20
001767 940e 2808 	CALL __SAVELOCR5
001769 8dac      	LDD  R26,Y+28
00176a 8dbd      	LDD  R27,Y+28+1
00176b 940e 27ab 	CALL __GETW1P
00176d 83ef      	STD  Y+7,R30
00176e 87f8      	STD  Y+7+1,R31
00176f 81af      	LDD  R26,Y+7
001770 85b8      	LDD  R27,Y+7+1
001771 91ec      	LD   R30,X
001772 53e0      	SUBI R30,LOW(48)
001773 2f3e      	MOV  R19,R30
001774 303a      	CPI  R19,10
001775 f420      	BRSH _0x2020103
001776 9611      	ADIW R26,1
001777 91ac      	LD   R26,X
001778 33aa      	CPI  R26,LOW(0x3A)
001779 f009      	BREQ _0x2020104
                 _0x2020103:
00177a c00a      	RJMP _0x2020102
                 _0x2020104:
00177b 81ef      	LDD  R30,Y+7
00177c 85f8      	LDD  R31,Y+7+1
00177d 9632      	ADIW R30,2
00177e 83ef      	STD  Y+7,R30
00177f 87f8      	STD  Y+7+1,R31
001780 8dac      	LDD  R26,Y+28
001781 8dbd      	LDD  R27,Y+28+1
001782 93ed      	ST   X+,R30
001783 93fc      	ST   X,R31
001784 c002      	RJMP _0x2020105
                 _0x2020102:
001785 9130 0f53 	LDS  R19,_Drive_G101
                 _0x2020105:
001787 3031      	CPI  R19,1
001788 f010      	BRLO _0x2020106
001789 e0eb      	LDI  R30,LOW(11)
00178a c1cc      	RJMP _0x20A000A
                 _0x2020106:
00178b 2fe3      	MOV  R30,R19
00178c 940e 24e6 	CALL SUBOPT_0x88
00178e 940e 27ab 	CALL __GETW1P
001790 83ed      	STD  Y+5,R30
001791 83fe      	STD  Y+5+1,R31
001792 8daa      	LDD  R26,Y+26
001793 8dbb      	LDD  R27,Y+26+1
001794 93ed      	ST   X+,R30
001795 93fc      	ST   X,R31
001796 9730      	SBIW R30,0
001797 f411      	BRNE _0x2020107
001798 e0ec      	LDI  R30,LOW(12)
001799 c1bd      	RJMP _0x20A000A
                 _0x2020107:
00179a 81ad      	LDD  R26,Y+5
00179b 81be      	LDD  R27,Y+5+1
00179c 91ec      	LD   R30,X
00179d 30e0      	CPI  R30,0
00179e f089      	BREQ _0x2020108
00179f 81ed      	LDD  R30,Y+5
0017a0 81fe      	LDD  R31,Y+5+1
0017a1 81a1      	LDD  R26,Z+1
0017a2 940e 0d84 	CALL _disk_status
0017a4 2f4e      	MOV  R20,R30
0017a5 fd40      	SBRC R20,0
0017a6 c009      	RJMP _0x2020109
0017a7 8de9      	LDD  R30,Y+25
0017a8 30e0      	CPI  R30,0
0017a9 f011      	BREQ _0x202010B
0017aa fd42      	SBRC R20,2
0017ab c001      	RJMP _0x202010C
                 _0x202010B:
0017ac c002      	RJMP _0x202010A
                 _0x202010C:
0017ad e0ea      	LDI  R30,LOW(10)
0017ae c1a8      	RJMP _0x20A000A
                 _0x202010A:
0017af c1a6      	RJMP _0x20A000B
                 _0x2020109:
                 _0x2020108:
0017b0 81ad      	LDD  R26,Y+5
0017b1 81be      	LDD  R27,Y+5+1
0017b2 e0e0      	LDI  R30,LOW(0)
0017b3 93ec      	ST   X,R30
0017b4 2fe3      	MOV  R30,R19
                +
0017b5 81ad     +LDD R26 , Y + 5
0017b6 81be     +LDD R27 , Y + 5 + 1
0017b7 9611     +ADIW R26 , 1
0017b8 93ec     +ST X , R30
                 	__PUTB1SNS 5,1
0017b9 81ed      	LDD  R30,Y+5
0017ba 81fe      	LDD  R31,Y+5+1
0017bb 81a1      	LDD  R26,Z+1
0017bc 940e 0cb2 	CALL _disk_initialize
0017be 2f4e      	MOV  R20,R30
0017bf ff40      	SBRS R20,0
0017c0 c002      	RJMP _0x202010D
0017c1 e0e3      	LDI  R30,LOW(3)
0017c2 c194      	RJMP _0x20A000A
                 _0x202010D:
0017c3 8de9      	LDD  R30,Y+25
0017c4 30e0      	CPI  R30,0
0017c5 f011      	BREQ _0x202010F
0017c6 fd42      	SBRC R20,2
0017c7 c001      	RJMP _0x2020110
                 _0x202010F:
0017c8 c002      	RJMP _0x202010E
                 _0x2020110:
0017c9 e0ea      	LDI  R30,LOW(10)
0017ca c18c      	RJMP _0x20A000A
                 _0x202010E:
0017cb 940e 24ee 	CALL SUBOPT_0x89
0017cd 940e 23dc 	CALL SUBOPT_0x64
                +
0017cf 8bef     +STD Y + 23 , R30
0017d0 8ff8     +STD Y + 23 + 1 , R31
0017d1 8f69     +STD Y + 23 + 2 , R22
0017d2 8f7a     +STD Y + 23 + 3 , R23
                 	__PUTD1S 23
0017d3 01df      	MOVW R26,R30
0017d4 01cb      	MOVW R24,R22
0017d5 df5d      	RCALL _check_fs_G101
0017d6 2f0e      	MOV  R16,R30
0017d7 3001      	CPI  R16,1
0017d8 f4d9      	BRNE _0x2020111
0017d9 81ed      	LDD  R30,Y+5
0017da 81fe      	LDD  R31,Y+5+1
0017db 96f2      	ADIW R30,50
0017dc 54e2      	SUBI R30,LOW(-446)
0017dd 4ffe      	SBCI R31,HIGH(-446)
                +
0017de 2f1e     +MOV R17 , R30
0017df 2f2f     +MOV R18 , R31
                 	__PUTW1R 17,18
0017e0 81e4      	LDD  R30,Z+4
0017e1 30e0      	CPI  R30,0
0017e2 f089      	BREQ _0x2020112
                +
0017e3 2fa1     +MOV R26 , R17
0017e4 2fb2     +MOV R27 , R18
                 	__GETW2R 17,18
0017e5 9618      	ADIW R26,8
0017e6 940e 27af 	CALL __GETD1P
                +
0017e8 8bed     +STD Y + 21 , R30
0017e9 8bfe     +STD Y + 21 + 1 , R31
0017ea 8b6f     +STD Y + 21 + 2 , R22
0017eb 8f78     +STD Y + 21 + 3 , R23
                 	__PUTD1S 21
0017ec 940e 24ee 	CALL SUBOPT_0x89
                +
0017ee 89af     +LDD R26 , Y + 23
0017ef 8db8     +LDD R27 , Y + 23 + 1
0017f0 8d89     +LDD R24 , Y + 23 + 2
0017f1 8d9a     +LDD R25 , Y + 23 + 3
                 	__GETD2S 23
0017f2 df40      	RCALL _check_fs_G101
0017f3 2f0e      	MOV  R16,R30
                 _0x2020112:
                 _0x2020111:
0017f4 3003      	CPI  R16,3
0017f5 f411      	BRNE _0x2020113
0017f6 e0e1      	LDI  R30,LOW(1)
0017f7 c15f      	RJMP _0x20A000A
                 _0x2020113:
0017f8 3000      	CPI  R16,0
0017f9 f449      	BRNE _0x2020115
0017fa 81ad      	LDD  R26,Y+5
0017fb 81be      	LDD  R27,Y+5+1
0017fc 96dd      	ADIW R26,61
0017fd 940e 27ab 	CALL __GETW1P
0017ff 30e0      	CPI  R30,LOW(0x200)
001800 e0a2      	LDI  R26,HIGH(0x200)
001801 07fa      	CPC  R31,R26
001802 f011      	BREQ _0x2020114
                 _0x2020115:
001803 e0ed      	LDI  R30,LOW(13)
001804 c152      	RJMP _0x20A000A
                 _0x2020114:
001805 81ad      	LDD  R26,Y+5
001806 81be      	LDD  R27,Y+5+1
001807 5ba8      	SUBI R26,LOW(-72)
001808 4fbf      	SBCI R27,HIGH(-72)
001809 940e 2312 	CALL SUBOPT_0x46
00180b 940e 24f3 	CALL SUBOPT_0x8A
00180d 940e 24f8 	CALL SUBOPT_0x8B
00180f 940e 27f3 	CALL __CPD10
001811 f441      	BRNE _0x2020117
001812 81ad      	LDD  R26,Y+5
001813 81be      	LDD  R27,Y+5+1
001814 5aaa      	SUBI R26,LOW(-86)
001815 4fbf      	SBCI R27,HIGH(-86)
001816 940e 27af 	CALL __GETD1P
001818 940e 24f3 	CALL SUBOPT_0x8A
                 _0x2020117:
00181a 940e 24f8 	CALL SUBOPT_0x8B
                +
00181c 81ad     +LDD R26 , Y + 5
00181d 81be     +LDD R27 , Y + 5 + 1
00181e 965a     +ADIW R26 , 26
00181f 940e 27ba+CALL __PUTDP1
                 	__PUTD1SNS 5,26
001821 81ed      	LDD  R30,Y+5
001822 81fe      	LDD  R31,Y+5+1
001823 5bee      	SUBI R30,LOW(-66)
001824 4fff      	SBCI R31,HIGH(-66)
001825 81e0      	LD   R30,Z
                +
001826 81ad     +LDD R26 , Y + 5
001827 81be     +LDD R27 , Y + 5 + 1
001828 9613     +ADIW R26 , 3
001829 93ec     +ST X , R30
                 	__PUTB1SNS 5,3
00182a 81ed      	LDD  R30,Y+5
00182b 81fe      	LDD  R31,Y+5+1
00182c 81e3      	LDD  R30,Z+3
00182d e0f0      	LDI  R31,0
                +
00182e 89a9     +LDD R26 , Y + 17
00182f 89ba     +LDD R27 , Y + 17 + 1
001830 898b     +LDD R24 , Y + 17 + 2
001831 899c     +LDD R25 , Y + 17 + 3
                 	__GETD2S 17
001832 940e 273a 	CALL __CWD1
001834 940e 273f 	CALL __MULD12U
001836 940e 24f3 	CALL SUBOPT_0x8A
001838 940e 24fd 	CALL SUBOPT_0x8C
00183a 940e 2504 	CALL SUBOPT_0x8D
                +
00183c 81ad     +LDD R26 , Y + 5
00183d 81be     +LDD R27 , Y + 5 + 1
00183e 9692     +ADIW R26 , 34
00183f 940e 27ba+CALL __PUTDP1
                 	__PUTD1SNS 5,34
001841 81ed      	LDD  R30,Y+5
001842 81fe      	LDD  R31,Y+5+1
001843 ade7      	LDD  R30,Z+63
                +
001844 81ad     +LDD R26 , Y + 5
001845 81be     +LDD R27 , Y + 5 + 1
001846 9612     +ADIW R26 , 2
001847 93ec     +ST X , R30
                 	__PUTB1SNS 5,2
001848 81ad      	LDD  R26,Y+5
001849 81be      	LDD  R27,Y+5+1
00184a 5bad      	SUBI R26,LOW(-67)
00184b 4fbf      	SBCI R27,HIGH(-67)
00184c 940e 27ab 	CALL __GETW1P
                +
00184e 81ad     +LDD R26 , Y + 5
00184f 81be     +LDD R27 , Y + 5 + 1
001850 9618     +ADIW R26 , 8
001851 93ed     +ST X + , R30
001852 93fc     +ST X , R31
                 	__PUTW1SNS 5,8
001853 81ad      	LDD  R26,Y+5
001854 81be      	LDD  R27,Y+5+1
001855 5bab      	SUBI R26,LOW(-69)
001856 4fbf      	SBCI R27,HIGH(-69)
001857 940e 2312 	CALL SUBOPT_0x46
                +
001859 87ed     +STD Y + 13 , R30
00185a 87fe     +STD Y + 13 + 1 , R31
00185b 876f     +STD Y + 13 + 2 , R22
00185c 8b78     +STD Y + 13 + 3 , R23
                 	__PUTD1S 13
00185d 940e 27f3 	CALL __CPD10
00185f f451      	BRNE _0x2020118
001860 81ad      	LDD  R26,Y+5
001861 81be      	LDD  R27,Y+5+1
001862 5aae      	SUBI R26,LOW(-82)
001863 4fbf      	SBCI R27,HIGH(-82)
001864 940e 27af 	CALL __GETD1P
                +
001866 87ed     +STD Y + 13 , R30
001867 87fe     +STD Y + 13 + 1 , R31
001868 876f     +STD Y + 13 + 2 , R22
001869 8b78     +STD Y + 13 + 3 , R23
                 	__PUTD1S 13
                 _0x2020118:
00186a 940e 24fd 	CALL SUBOPT_0x8C
00186c 940e 2323 	CALL SUBOPT_0x49
00186e 2766      	CLR  R22
00186f 2777      	CLR  R23
001870 940e 23e8 	CALL SUBOPT_0x66
                +
001872 89a9     +LDD R26 , Y + 17
001873 89ba     +LDD R27 , Y + 17 + 1
001874 898b     +LDD R24 , Y + 17 + 2
001875 899c     +LDD R25 , Y + 17 + 3
                 	__GETD2S 17
001876 940e 26e6 	CALL __SUBD12
001878 937f      	PUSH R23
001879 936f      	PUSH R22
00187a 93ff      	PUSH R31
00187b 93ef      	PUSH R30
00187c 940e 2509 	CALL SUBOPT_0x8E
00187e 91af      	POP  R26
00187f 91bf      	POP  R27
001880 918f      	POP  R24
001881 919f      	POP  R25
001882 2766      	CLR  R22
001883 2777      	CLR  R23
001884 940e 26eb 	CALL __SUBD21
001886 81ed      	LDD  R30,Y+5
001887 81fe      	LDD  R31,Y+5+1
001888 81e2      	LDD  R30,Z+2
001889 e0f0      	LDI  R31,0
00188a 940e 273a 	CALL __CWD1
00188c 940e 2778 	CALL __DIVD21U
                +
00188e 5fee     +SUBI R30 , LOW ( - 2 )
00188f 4fff     +SBCI R31 , HIGH ( - 2 )
001890 4f6f     +SBCI R22 , BYTE3 ( - 2 )
001891 4f7f     +SBCI R23 , BYTE4 ( - 2 )
                 	__ADDD1N 2
                +
001892 87e9     +STD Y + 9 , R30
001893 87fa     +STD Y + 9 + 1 , R31
001894 876b     +STD Y + 9 + 2 , R22
001895 877c     +STD Y + 9 + 3 , R23
                 	__PUTD1S 9
                +
001896 81ad     +LDD R26 , Y + 5
001897 81be     +LDD R27 , Y + 5 + 1
001898 965e     +ADIW R26 , 30
001899 940e 27ba+CALL __PUTDP1
                 	__PUTD1SNS 5,30
00189b e001      	LDI  R16,LOW(1)
00189c 940e 2349 	CALL SUBOPT_0x4C
                +
00189e 3fa7     +CPI R26 , LOW ( 0xFF7 )
00189f e0ef     +LDI R30 , HIGH ( 0xFF7 )
0018a0 07be     +CPC R27 , R30
0018a1 e0e0     +LDI R30 , BYTE3 ( 0xFF7 )
0018a2 078e     +CPC R24 , R30
0018a3 e0e0     +LDI R30 , BYTE4 ( 0xFF7 )
0018a4 079e     +CPC R25 , R30
                 	__CPD2N 0xFF7
0018a5 f008      	BRLO _0x2020119
0018a6 e002      	LDI  R16,LOW(2)
                 _0x2020119:
0018a7 940e 2349 	CALL SUBOPT_0x4C
                +
0018a9 3fa7     +CPI R26 , LOW ( 0xFFF7 )
0018aa efef     +LDI R30 , HIGH ( 0xFFF7 )
0018ab 07be     +CPC R27 , R30
0018ac e0e0     +LDI R30 , BYTE3 ( 0xFFF7 )
0018ad 078e     +CPC R24 , R30
0018ae e0e0     +LDI R30 , BYTE4 ( 0xFFF7 )
0018af 079e     +CPC R25 , R30
                 	__CPD2N 0xFFF7
0018b0 f008      	BRLO _0x202011A
0018b1 e003      	LDI  R16,LOW(3)
                 _0x202011A:
0018b2 3003      	CPI  R16,3
0018b3 f439      	BRNE _0x202011B
0018b4 81ad      	LDD  R26,Y+5
0018b5 81be      	LDD  R27,Y+5+1
0018b6 5aa2      	SUBI R26,LOW(-94)
0018b7 4fbf      	SBCI R27,HIGH(-94)
0018b8 940e 27af 	CALL __GETD1P
0018ba c002      	RJMP _0x202027C
                 _0x202011B:
0018bb 940e 2511 	CALL SUBOPT_0x8F
                 _0x202027C:
                +
0018bd 81ad     +LDD R26 , Y + 5
0018be 81be     +LDD R27 , Y + 5 + 1
0018bf 9696     +ADIW R26 , 38
0018c0 940e 27ba+CALL __PUTDP1
                 	__PUTD1SNS 5,38
0018c2 940e 2511 	CALL SUBOPT_0x8F
0018c4 937f      	PUSH R23
0018c5 936f      	PUSH R22
0018c6 93ff      	PUSH R31
0018c7 93ef      	PUSH R30
0018c8 940e 2509 	CALL SUBOPT_0x8E
0018ca 91af      	POP  R26
0018cb 91bf      	POP  R27
0018cc 918f      	POP  R24
0018cd 919f      	POP  R25
0018ce 940e 241f 	CALL SUBOPT_0x6E
                +
0018d0 81ad     +LDD R26 , Y + 5
0018d1 81be     +LDD R27 , Y + 5 + 1
0018d2 969a     +ADIW R26 , 42
0018d3 940e 27ba+CALL __PUTDP1
                 	__PUTD1SNS 5,42
0018d5 81ad      	LDD  R26,Y+5
0018d6 81be      	LDD  R27,Y+5+1
0018d7 961e      	ADIW R26,14
0018d8 940e 231e 	CALL SUBOPT_0x48
0018da 940e 27ba 	CALL __PUTDP1
0018dc 81ad      	LDD  R26,Y+5
0018dd 81be      	LDD  R27,Y+5+1
0018de 9614      	ADIW R26,4
0018df e0e0      	LDI  R30,LOW(0)
0018e0 93ec      	ST   X,R30
0018e1 3003      	CPI  R16,3
0018e2 f009      	BREQ PC+2
0018e3 c05f      	RJMP _0x202011D
0018e4 81ad      	LDD  R26,Y+5
0018e5 81be      	LDD  R27,Y+5+1
0018e6 9615      	ADIW R26,5
0018e7 93ec      	ST   X,R30
0018e8 81ad      	LDD  R26,Y+5
0018e9 81be      	LDD  R27,Y+5+1
0018ea 59ae      	SUBI R26,LOW(-98)
0018eb 4fbf      	SBCI R27,HIGH(-98)
0018ec 940e 27ab 	CALL __GETW1P
0018ee 940e 2504 	CALL SUBOPT_0x8D
                +
0018f0 81ad     +LDD R26 , Y + 5
0018f1 81be     +LDD R27 , Y + 5 + 1
0018f2 9652     +ADIW R26 , 18
0018f3 940e 27ba+CALL __PUTDP1
                 	__PUTD1SNS 5,18
0018f5 81ed      	LDD  R30,Y+5
0018f6 81fe      	LDD  R31,Y+5+1
0018f7 81a1      	LDD  R26,Z+1
0018f8 93aa      	ST   -Y,R26
0018f9 81ee      	LDD  R30,Y+6
0018fa 81ff      	LDD  R31,Y+6+1
0018fb 96f2      	ADIW R30,50
0018fc 93fa      	ST   -Y,R31
0018fd 93ea      	ST   -Y,R30
0018fe 85e8      	LDD  R30,Y+8
0018ff 85f9      	LDD  R31,Y+8+1
001900 940e 22b1 	CALL SUBOPT_0x3B
001902 940e 0d8e 	CALL _disk_read
001904 30e0      	CPI  R30,0
001905 f511      	BRNE _0x202011F
001906 81ed      	LDD  R30,Y+5
001907 81fe      	LDD  R31,Y+5+1
001908 940e 24ce 	CALL SUBOPT_0x86
00190a f4e9      	BRNE _0x202011F
00190b 81ad      	LDD  R26,Y+5
00190c 81be      	LDD  R27,Y+5+1
00190d 96d2      	ADIW R26,50
00190e 940e 27af 	CALL __GETD1P
                +
001910 35e2     +CPI R30 , LOW ( 0x41615252 )
001911 e5a2     +LDI R26 , HIGH ( 0x41615252 )
001912 07fa     +CPC R31 , R26
001913 e6a1     +LDI R26 , BYTE3 ( 0x41615252 )
001914 076a     +CPC R22 , R26
001915 e4a1     +LDI R26 , BYTE4 ( 0x41615252 )
001916 077a     +CPC R23 , R26
                 	__CPD1N 0x41615252
001917 f481      	BRNE _0x202011F
001918 81ed      	LDD  R30,Y+5
001919 81fe      	LDD  R31,Y+5+1
00191a 96f2      	ADIW R30,50
00191b 51ec      	SUBI R30,LOW(-484)
00191c 4ffe      	SBCI R31,HIGH(-484)
00191d 01df      	MOVW R26,R30
00191e 940e 27af 	CALL __GETD1P
                +
001920 37e2     +CPI R30 , LOW ( 0x61417272 )
001921 e7a2     +LDI R26 , HIGH ( 0x61417272 )
001922 07fa     +CPC R31 , R26
001923 e4a1     +LDI R26 , BYTE3 ( 0x61417272 )
001924 076a     +CPC R22 , R26
001925 e6a1     +LDI R26 , BYTE4 ( 0x61417272 )
001926 077a     +CPC R23 , R26
                 	__CPD1N 0x61417272
001927 f009      	BREQ _0x2020120
                 _0x202011F:
001928 c01a      	RJMP _0x202011E
                 _0x2020120:
001929 81ed      	LDD  R30,Y+5
00192a 81fe      	LDD  R31,Y+5+1
00192b 96f2      	ADIW R30,50
00192c 51e4      	SUBI R30,LOW(-492)
00192d 4ffe      	SBCI R31,HIGH(-492)
00192e 01df      	MOVW R26,R30
00192f 940e 27af 	CALL __GETD1P
                +
001931 81ad     +LDD R26 , Y + 5
001932 81be     +LDD R27 , Y + 5 + 1
001933 961a     +ADIW R26 , 10
001934 940e 27ba+CALL __PUTDP1
                 	__PUTD1SNS 5,10
001936 81ed      	LDD  R30,Y+5
001937 81fe      	LDD  R31,Y+5+1
001938 96f2      	ADIW R30,50
001939 51e8      	SUBI R30,LOW(-488)
00193a 4ffe      	SBCI R31,HIGH(-488)
00193b 01df      	MOVW R26,R30
00193c 940e 27af 	CALL __GETD1P
                +
00193e 81ad     +LDD R26 , Y + 5
00193f 81be     +LDD R27 , Y + 5 + 1
001940 961e     +ADIW R26 , 14
001941 940e 27ba+CALL __PUTDP1
                 	__PUTD1SNS 5,14
                 _0x202011E:
                 _0x202011D:
001943 81ad      	LDD  R26,Y+5
001944 81be      	LDD  R27,Y+5+1
001945 930c      	ST   X,R16
001946 940e 2292 	CALL SUBOPT_0x37
001948 81ad      	LDD  R26,Y+5
001949 81be      	LDD  R27,Y+5+1
00194a 9656      	ADIW R26,22
00194b 940e 24ab 	CALL SUBOPT_0x7F
00194d e5a1      	LDI  R26,LOW(_Fsid_G101)
00194e e0bf      	LDI  R27,HIGH(_Fsid_G101)
00194f 940e 2218 	CALL SUBOPT_0x26
                +
001951 81ad     +LDD R26 , Y + 5
001952 81be     +LDD R27 , Y + 5 + 1
001953 9616     +ADIW R26 , 6
001954 93ed     +ST X + , R30
001955 93fc     +ST X , R31
                 	__PUTW1SNS 5,6
                 _0x20A000B:
001956 e0e0      	LDI  R30,LOW(0)
                 _0x20A000A:
001957 940e 280f 	CALL __LOADLOCR5
001959 966e      	ADIW R28,30
00195a 9508      	RET
                 ; .FEND
                 _validate_G101:
                 ; .FSTART _validate_G101
00195b 93ba      	ST   -Y,R27
00195c 93aa      	ST   -Y,R26
00195d 81ea      	LDD  R30,Y+2
00195e 81fb      	LDD  R31,Y+2+1
00195f 9730      	SBIW R30,0
001960 f071      	BREQ _0x2020122
001961 81aa      	LDD  R26,Y+2
001962 81bb      	LDD  R27,Y+2+1
001963 91ec      	LD   R30,X
001964 30e0      	CPI  R30,0
001965 f049      	BREQ _0x2020122
001966 81ea      	LDD  R30,Y+2
001967 81fb      	LDD  R31,Y+2+1
001968 81a6      	LDD  R26,Z+6
001969 81b7      	LDD  R27,Z+7
00196a 81e8      	LD   R30,Y
00196b 81f9      	LDD  R31,Y+1
00196c 17ea      	CP   R30,R26
00196d 07fb      	CPC  R31,R27
00196e f011      	BREQ _0x2020121
                 _0x2020122:
00196f e0e9      	LDI  R30,LOW(9)
001970 c00a      	RJMP _0x20A0009
                 _0x2020121:
001971 81ea      	LDD  R30,Y+2
001972 81fb      	LDD  R31,Y+2+1
001973 81a1      	LDD  R26,Z+1
001974 940e 0d84 	CALL _disk_status
001976 70e1      	ANDI R30,LOW(0x1)
001977 f011      	BREQ _0x2020124
001978 e0e3      	LDI  R30,LOW(3)
001979 c001      	RJMP _0x20A0009
                 _0x2020124:
00197a e0e0      	LDI  R30,LOW(0)
                 _0x20A0009:
00197b 9624      	ADIW R28,4
00197c 9508      	RET
                 ; .FEND
                 _f_mount:
                 ; .FSTART _f_mount
00197d 940e 2159 	CALL SUBOPT_0xA
00197f 81ac      	LDD  R26,Y+4
001980 30a1      	CPI  R26,LOW(0x1)
001981 f010      	BRLO _0x2020125
001982 e0eb      	LDI  R30,LOW(11)
001983 c020      	RJMP _0x20A0008
                 _0x2020125:
001984 81ec      	LDD  R30,Y+4
001985 940e 24e6 	CALL SUBOPT_0x88
001987 910d      	LD   R16,X+
001988 911c      	LD   R17,X
001989 2e00      	MOV  R0,R16
00198a 2a01      	OR   R0,R17
00198b f019      	BREQ _0x2020126
00198c 01d8      	MOVW R26,R16
00198d e0e0      	LDI  R30,LOW(0)
00198e 93ec      	ST   X,R30
                 _0x2020126:
00198f 81ea      	LDD  R30,Y+2
001990 81fb      	LDD  R31,Y+2+1
001991 9730      	SBIW R30,0
001992 f021      	BREQ _0x2020127
001993 81aa      	LDD  R26,Y+2
001994 81bb      	LDD  R27,Y+2+1
001995 e0e0      	LDI  R30,LOW(0)
001996 93ec      	ST   X,R30
                 _0x2020127:
001997 81ec      	LDD  R30,Y+4
001998 e4af      	LDI  R26,LOW(_FatFs_G101)
001999 e0bf      	LDI  R27,HIGH(_FatFs_G101)
00199a e0f0      	LDI  R31,0
00199b 0fee      	LSL  R30
00199c 1fff      	ROL  R31
00199d 0fea      	ADD  R30,R26
00199e 1ffb      	ADC  R31,R27
00199f 81aa      	LDD  R26,Y+2
0019a0 81bb      	LDD  R27,Y+2+1
0019a1 83a0      	STD  Z+0,R26
0019a2 83b1      	STD  Z+1,R27
0019a3 e0e0      	LDI  R30,LOW(0)
                 _0x20A0008:
0019a4 8119      	LDD  R17,Y+1
0019a5 8108      	LDD  R16,Y+0
0019a6 9625      	ADIW R28,5
0019a7 9508      	RET
                 ; .FEND
                 _f_open:
                 ; .FSTART _f_open
0019a8 93aa      	ST   -Y,R26
0019a9 97a2      	SBIW R28,34
0019aa 940e 280a 	CALL __SAVELOCR3
0019ac a5a8      	LDD  R26,Y+40
0019ad a5b9      	LDD  R27,Y+40+1
0019ae 940e 24ba 	CALL SUBOPT_0x82
0019b0 a1ed      	LDD  R30,Y+37
0019b1 71ef      	ANDI R30,LOW(0x1F)
0019b2 a3ed      	STD  Y+37,R30
0019b3 01fe      	MOVW R30,R28
0019b4 96b6      	ADIW R30,38
0019b5 93fa      	ST   -Y,R31
0019b6 93ea      	ST   -Y,R30
0019b7 01fe      	MOVW R30,R28
0019b8 9671      	ADIW R30,17
0019b9 93fa      	ST   -Y,R31
0019ba 93ea      	ST   -Y,R30
0019bb a5e9      	LDD  R30,Y+41
0019bc 71ee      	ANDI R30,LOW(0x1E)
0019bd 2fae      	MOV  R26,R30
0019be dda6      	RCALL _chk_mounted
0019bf 2f0e      	MOV  R16,R30
0019c0 3000      	CPI  R16,0
0019c1 f009      	BREQ _0x2020128
0019c2 c11c      	RJMP _0x20A0007
                 _0x2020128:
0019c3 01fe      	MOVW R30,R28
0019c4 9633      	ADIW R30,3
0019c5 a3eb      	STD  Y+35,R30
0019c6 a3fc      	STD  Y+35+1,R31
0019c7 01fe      	MOVW R30,R28
0019c8 963f      	ADIW R30,15
0019c9 93fa      	ST   -Y,R31
0019ca 93ea      	ST   -Y,R30
0019cb a5a8      	LDD  R26,Y+40
0019cc a5b9      	LDD  R27,Y+40+1
0019cd dcde      	RCALL _follow_path_G101
0019ce 2f0e      	MOV  R16,R30
0019cf a1ed      	LDD  R30,Y+37
0019d0 71ec      	ANDI R30,LOW(0x1C)
0019d1 f409      	BRNE PC+2
0019d2 c09c      	RJMP _0x2020129
0019d3 9728      	SBIW R28,8
0019d4 3000      	CPI  R16,0
0019d5 f089      	BREQ _0x202012A
0019d6 3004      	CPI  R16,4
0019d7 f421      	BRNE _0x202012B
0019d8 01de      	MOVW R26,R28
0019d9 9657      	ADIW R26,23
0019da dbdf      	RCALL _dir_register_G101
0019db 2f0e      	MOV  R16,R30
                 _0x202012B:
0019dc 3000      	CPI  R16,0
0019dd f019      	BREQ _0x202012C
0019de 2fe0      	MOV  R30,R16
0019df 9628      	ADIW R28,8
0019e0 c0fe      	RJMP _0x20A0007
                 _0x202012C:
0019e1 a5ed      	LDD  R30,Y+45
0019e2 60e8      	ORI  R30,8
0019e3 a7ed      	STD  Y+45,R30
                +
0019e4 a519     +LDD R17 , Y + 41
0019e5 a52a     +LDD R18 , Y + 41 + 1
                 	__GETWRS 17,18,41
0019e6 c06b      	RJMP _0x202012D
                 _0x202012A:
0019e7 a5ed      	LDD  R30,Y+45
0019e8 70e4      	ANDI R30,LOW(0x4)
0019e9 f019      	BREQ _0x202012E
0019ea e0e8      	LDI  R30,LOW(8)
0019eb 9628      	ADIW R28,8
0019ec c0f2      	RJMP _0x20A0007
                 _0x202012E:
                +
0019ed a519     +LDD R17 , Y + 41
0019ee a52a     +LDD R18 , Y + 41 + 1
                 	__GETWRS 17,18,41
0019ef 2e01      	MOV  R0,R17
0019f0 2a02      	OR   R0,R18
0019f1 f029      	BREQ _0x2020130
                +
0019f2 2fe1     +MOV R30 , R17
0019f3 2ff2     +MOV R31 , R18
                 	__GETW1R 17,18
0019f4 85e3      	LDD  R30,Z+11
0019f5 71e1      	ANDI R30,LOW(0x11)
0019f6 f019      	BREQ _0x202012F
                 _0x2020130:
0019f7 e0e7      	LDI  R30,LOW(7)
0019f8 9628      	ADIW R28,8
0019f9 c0e5      	RJMP _0x20A0007
                 _0x202012F:
0019fa a5ed      	LDD  R30,Y+45
0019fb 70e8      	ANDI R30,LOW(0x8)
0019fc f409      	BRNE PC+2
0019fd c054      	RJMP _0x2020132
0019fe 940e 24bf 	CALL SUBOPT_0x83
001a00 940e 2735 	CALL __LSLD16
001a02 937f      	PUSH R23
001a03 936f      	PUSH R22
001a04 93ff      	PUSH R31
001a05 93ef      	PUSH R30
001a06 940e 24c3 	CALL SUBOPT_0x84
001a08 91af      	POP  R26
001a09 91bf      	POP  R27
001a0a 918f      	POP  R24
001a0b 919f      	POP  R25
001a0c 940e 24c9 	CALL SUBOPT_0x85
001a0e 940e 23a2 	CALL SUBOPT_0x58
                +
001a10 2fe1     +MOV R30 , R17
001a11 2ff2     +MOV R31 , R18
                 	__GETW1R 17,18
001a12 9674      	ADIW R30,20
001a13 940e 2518 	CALL SUBOPT_0x90
001a15 967a      	ADIW R30,26
001a16 940e 2518 	CALL SUBOPT_0x90
001a18 967c      	ADIW R30,28
001a19 940e 238e 	CALL SUBOPT_0x55
001a1b 940e 27d7 	CALL __PUTDZ20
001a1d 89af      	LDD  R26,Y+23
001a1e 8db8      	LDD  R27,Y+23+1
001a1f 9614      	ADIW R26,4
001a20 e0e1      	LDI  R30,LOW(1)
001a21 93ec      	ST   X,R30
001a22 89af      	LDD  R26,Y+23
001a23 8db8      	LDD  R27,Y+23+1
001a24 969e      	ADIW R26,46
001a25 940e 22cb 	CALL SUBOPT_0x3F
001a27 940e 23af 	CALL SUBOPT_0x5B
001a29 940e 27f3 	CALL __CPD10
001a2b f0b9      	BREQ _0x2020133
001a2c 89ef      	LDD  R30,Y+23
001a2d 8df8      	LDD  R31,Y+23+1
001a2e 93fa      	ST   -Y,R31
001a2f 93ea      	ST   -Y,R30
001a30 940e 23fc 	CALL SUBOPT_0x69
001a32 d883      	RCALL _remove_chain_G101
001a33 2f0e      	MOV  R16,R30
001a34 3000      	CPI  R16,0
001a35 f011      	BREQ _0x2020134
001a36 9628      	ADIW R28,8
001a37 c0a7      	RJMP _0x20A0007
                 _0x2020134:
001a38 940e 23af 	CALL SUBOPT_0x5B
                +
001a3a 50e1     +SUBI R30 , LOW ( 1 )
001a3b 40f0     +SBCI R31 , HIGH ( 1 )
001a3c 4060     +SBCI R22 , BYTE3 ( 1 )
001a3d 4070     +SBCI R23 , BYTE4 ( 1 )
                 	__SUBD1N 1
                +
001a3e 89af     +LDD R26 , Y + 23
001a3f 8db8     +LDD R27 , Y + 23 + 1
001a40 961a     +ADIW R26 , 10
001a41 940e 27ba+CALL __PUTDP1
                 	__PUTD1SNS 23,10
                 _0x2020133:
001a43 89ef      	LDD  R30,Y+23
001a44 8df8      	LDD  R31,Y+23+1
001a45 93fa      	ST   -Y,R31
001a46 93ea      	ST   -Y,R30
                +
001a47 81ae     +LDD R26 , Y + 6
001a48 81bf     +LDD R27 , Y + 6 + 1
001a49 8588     +LDD R24 , Y + 6 + 2
001a4a 8599     +LDD R25 , Y + 6 + 3
                 	__GETD2S 6
001a4b 940e 10ca 	CALL _move_window_G101
001a4d 2f0e      	MOV  R16,R30
001a4e 3000      	CPI  R16,0
001a4f f011      	BREQ _0x2020135
001a50 9628      	ADIW R28,8
001a51 c08d      	RJMP _0x20A0007
                 _0x2020135:
                 _0x2020132:
                 _0x202012D:
001a52 a5ed      	LDD  R30,Y+45
001a53 70e8      	ANDI R30,LOW(0x8)
001a54 f0c1      	BREQ _0x2020136
                +
001a55 2fe1     +MOV R30 , R17
001a56 2ff2     +MOV R31 , R18
                 	__GETW1R 17,18
001a57 963b      	ADIW R30,11
001a58 e0a0      	LDI  R26,LOW(0)
001a59 83a0      	STD  Z+0,R26
001a5a 940e 1034 	CALL _get_fattime
001a5c 940e 23b2 	CALL SUBOPT_0x5C
001a5e 940e 23cd 	CALL SUBOPT_0x61
                +
001a60 2fa1     +MOV R26 , R17
001a61 2fb2     +MOV R27 , R18
001a62 961e     +ADIW R26 , 14
001a63 940e 27ba+CALL __PUTDP1
                 	__PUTD1RONS 17,18,14
001a65 89af      	LDD  R26,Y+23
001a66 8db8      	LDD  R27,Y+23+1
001a67 9614      	ADIW R26,4
001a68 e0e1      	LDI  R30,LOW(1)
001a69 93ec      	ST   X,R30
001a6a a5ed      	LDD  R30,Y+45
001a6b 62e0      	ORI  R30,0x20
001a6c a7ed      	STD  Y+45,R30
                 _0x2020136:
001a6d 9628      	ADIW R28,8
001a6e c01b      	RJMP _0x2020137
                 _0x2020129:
001a6f 3000      	CPI  R16,0
001a70 f011      	BREQ _0x2020138
001a71 2fe0      	MOV  R30,R16
001a72 c06c      	RJMP _0x20A0007
                 _0x2020138:
                +
001a73 a119     +LDD R17 , Y + 33
001a74 a12a     +LDD R18 , Y + 33 + 1
                 	__GETWRS 17,18,33
001a75 2e01      	MOV  R0,R17
001a76 2a02      	OR   R0,R18
001a77 f029      	BREQ _0x202013A
                +
001a78 2fe1     +MOV R30 , R17
001a79 2ff2     +MOV R31 , R18
                 	__GETW1R 17,18
001a7a 85e3      	LDD  R30,Z+11
001a7b 71e0      	ANDI R30,LOW(0x10)
001a7c f011      	BREQ _0x2020139
                 _0x202013A:
001a7d e0e4      	LDI  R30,LOW(4)
001a7e c060      	RJMP _0x20A0007
                 _0x2020139:
001a7f a1ed      	LDD  R30,Y+37
001a80 70e2      	ANDI R30,LOW(0x2)
001a81 f029      	BREQ _0x202013D
                +
001a82 2fe1     +MOV R30 , R17
001a83 2ff2     +MOV R31 , R18
                 	__GETW1R 17,18
001a84 85e3      	LDD  R30,Z+11
001a85 70e1      	ANDI R30,LOW(0x1)
001a86 f409      	BRNE _0x202013E
                 _0x202013D:
001a87 c002      	RJMP _0x202013C
                 _0x202013E:
001a88 e0e7      	LDI  R30,LOW(7)
001a89 c055      	RJMP _0x20A0007
                 _0x202013C:
                 _0x2020137:
001a8a 85af      	LDD  R26,Y+15
001a8b 89b8      	LDD  R27,Y+15+1
001a8c 969e      	ADIW R26,46
001a8d 940e 27af 	CALL __GETD1P
                +
001a8f a5a8     +LDD R26 , Y + 40
001a90 a5b9     +LDD R27 , Y + 40 + 1
001a91 965a     +ADIW R26 , 26
001a92 940e 27ba+CALL __PUTDP1
                 	__PUTD1SNS 40,26
001a94 a1e9      	LDD  R30,Y+33
001a95 a1fa      	LDD  R31,Y+33+1
                +
001a96 a5a8     +LDD R26 , Y + 40
001a97 a5b9     +LDD R27 , Y + 40 + 1
001a98 965e     +ADIW R26 , 30
001a99 93ed     +ST X + , R30
001a9a 93fc     +ST X , R31
                 	__PUTW1SNS 40,30
001a9b a1ed      	LDD  R30,Y+37
                +
001a9c a5a8     +LDD R26 , Y + 40
001a9d a5b9     +LDD R27 , Y + 40 + 1
001a9e 9614     +ADIW R26 , 4
001a9f 93ec     +ST X , R30
                 	__PUTB1SNS 40,4
001aa0 940e 24bf 	CALL SUBOPT_0x83
001aa2 940e 2735 	CALL __LSLD16
001aa4 937f      	PUSH R23
001aa5 936f      	PUSH R22
001aa6 93ff      	PUSH R31
001aa7 93ef      	PUSH R30
001aa8 940e 24c3 	CALL SUBOPT_0x84
001aaa 91af      	POP  R26
001aab 91bf      	POP  R27
001aac 918f      	POP  R24
001aad 919f      	POP  R25
001aae 940e 24c9 	CALL SUBOPT_0x85
                +
001ab0 a5a8     +LDD R26 , Y + 40
001ab1 a5b9     +LDD R27 , Y + 40 + 1
001ab2 961e     +ADIW R26 , 14
001ab3 940e 27ba+CALL __PUTDP1
                 	__PUTD1SNS 40,14
                +
001ab5 2fa1     +MOV R26 , R17
001ab6 2fb2     +MOV R27 , R18
                 	__GETW2R 17,18
001ab7 965c      	ADIW R26,28
001ab8 940e 27af 	CALL __GETD1P
                +
001aba a5a8     +LDD R26 , Y + 40
001abb a5b9     +LDD R27 , Y + 40 + 1
001abc 961a     +ADIW R26 , 10
001abd 940e 27ba+CALL __PUTDP1
                 	__PUTD1SNS 40,10
001abf a5a8      	LDD  R26,Y+40
001ac0 a5b9      	LDD  R27,Y+40+1
001ac1 9616      	ADIW R26,6
001ac2 940e 24ab 	CALL SUBOPT_0x7F
001ac4 a5a8      	LDD  R26,Y+40
001ac5 a5b9      	LDD  R27,Y+40+1
001ac6 9615      	ADIW R26,5
001ac7 efef      	LDI  R30,LOW(255)
001ac8 93ec      	ST   X,R30
001ac9 a5a8      	LDD  R26,Y+40
001aca a5b9      	LDD  R27,Y+40+1
001acb 9656      	ADIW R26,22
001acc 940e 24ab 	CALL SUBOPT_0x7F
001ace 85ef      	LDD  R30,Y+15
001acf 89f8      	LDD  R31,Y+15+1
001ad0 a5a8      	LDD  R26,Y+40
001ad1 a5b9      	LDD  R27,Y+40+1
001ad2 93ed      	ST   X+,R30
001ad3 93fc      	ST   X,R31
001ad4 85af      	LDD  R26,Y+15
001ad5 89b8      	LDD  R27,Y+15+1
001ad6 9616      	ADIW R26,6
001ad7 940e 27ab 	CALL __GETW1P
                +
001ad9 a5a8     +LDD R26 , Y + 40
001ada a5b9     +LDD R27 , Y + 40 + 1
001adb 9612     +ADIW R26 , 2
001adc 93ed     +ST X + , R30
001add 93fc     +ST X , R31
                 	__PUTW1SNS 40,2
001ade e0e0      	LDI  R30,LOW(0)
                 _0x20A0007:
001adf 940e 2811 	CALL __LOADLOCR3
001ae1 96aa      	ADIW R28,42
001ae2 9508      	RET
                 ; .FEND
                 _f_read:
                 ; .FSTART _f_read
001ae3 93ba      	ST   -Y,R27
001ae4 93aa      	ST   -Y,R26
001ae5 972e      	SBIW R28,14
001ae6 940e 2808 	CALL __SAVELOCR5
001ae8 89ef      	LDD  R30,Y+23
001ae9 8df8      	LDD  R31,Y+23+1
001aea 83ed      	STD  Y+5,R30
001aeb 83fe      	STD  Y+5+1,R31
001aec 89ab      	LDD  R26,Y+19
001aed 89bc      	LDD  R27,Y+19+1
001aee 940e 24ba 	CALL SUBOPT_0x82
001af0 940e 251f 	CALL SUBOPT_0x91
001af2 940e 2524 	CALL SUBOPT_0x92
001af4 940e 2529 	CALL SUBOPT_0x93
001af6 f011      	BREQ _0x202013F
001af7 2fe0      	MOV  R30,R16
001af8 c151      	RJMP _0x20A0006
                 _0x202013F:
001af9 8de9      	LDD  R30,Y+25
001afa 8dfa      	LDD  R31,Y+25+1
001afb 81a4      	LDD  R26,Z+4
001afc 78a0      	ANDI R26,LOW(0x80)
001afd f011      	BREQ _0x2020140
001afe e0e2      	LDI  R30,LOW(2)
001aff c14a      	RJMP _0x20A0006
                 _0x2020140:
001b00 8de9      	LDD  R30,Y+25
001b01 8dfa      	LDD  R31,Y+25+1
001b02 81a4      	LDD  R26,Z+4
001b03 70a1      	ANDI R26,LOW(0x1)
001b04 f411      	BRNE _0x2020141
001b05 e0e7      	LDI  R30,LOW(7)
001b06 c143      	RJMP _0x20A0006
                 _0x2020141:
001b07 8de9      	LDD  R30,Y+25
001b08 8dfa      	LDD  R31,Y+25+1
                +
001b09 85a2     +LDD R26 , Z + 10
001b0a 85b3     +LDD R27 , Z + 10 + 1
001b0b 8584     +LDD R24 , Z + 10 + 2
001b0c 8595     +LDD R25 , Z + 10 + 3
                 	__GETD2Z 10
001b0d 939f      	PUSH R25
001b0e 938f      	PUSH R24
001b0f 93bf      	PUSH R27
001b10 93af      	PUSH R26
001b11 940e 2530 	CALL SUBOPT_0x94
001b13 91ef      	POP  R30
001b14 91ff      	POP  R31
001b15 916f      	POP  R22
001b16 917f      	POP  R23
001b17 940e 26e6 	CALL __SUBD12
001b19 940e 2537 	CALL SUBOPT_0x95
001b1b 89ad      	LDD  R26,Y+21
001b1c 89be      	LDD  R27,Y+21+1
001b1d 2788      	CLR  R24
001b1e 2799      	CLR  R25
001b1f 940e 27fd 	CALL __CPD12
001b21 f420      	BRSH _0x2020142
001b22 81ef      	LDD  R30,Y+7
001b23 85f8      	LDD  R31,Y+7+1
001b24 8bed      	STD  Y+21,R30
001b25 8bfe      	STD  Y+21+1,R31
                 _0x2020142:
                 _0x2020144:
001b26 89ed      	LDD  R30,Y+21
001b27 89fe      	LDD  R31,Y+21+1
001b28 9730      	SBIW R30,0
001b29 f409      	BRNE PC+2
001b2a c11e      	RJMP _0x2020145
001b2b 940e 2530 	CALL SUBOPT_0x94
001b2d 01fd      	MOVW R30,R26
001b2e 01bc      	MOVW R22,R24
001b2f 70f1      	ANDI R31,HIGH(0x1FF)
001b30 9730      	SBIW R30,0
001b31 f009      	BREQ PC+2
001b32 c0e8      	RJMP _0x2020146
001b33 8de9      	LDD  R30,Y+25
001b34 8dfa      	LDD  R31,Y+25+1
001b35 8005      	LDD  R0,Z+5
001b36 940e 251f 	CALL SUBOPT_0x91
001b38 81e2      	LDD  R30,Z+2
001b39 160e      	CP   R0,R30
001b3a f1d8      	BRLO _0x2020147
001b3b 940e 2530 	CALL SUBOPT_0x94
001b3d 940e 27f7 	CALL __CPD02
001b3f f431      	BRNE _0x2020148
001b40 8da9      	LDD  R26,Y+25
001b41 8dba      	LDD  R27,Y+25+1
001b42 961e      	ADIW R26,14
001b43 940e 27af 	CALL __GETD1P
001b45 c008      	RJMP _0x2020149
                 _0x2020148:
001b46 940e 251f 	CALL SUBOPT_0x91
001b48 940e 2524 	CALL SUBOPT_0x92
001b4a 940e 253c 	CALL SUBOPT_0x96
001b4c 940e 119b 	CALL _get_fat
                 _0x2020149:
                +
001b4e 87ef     +STD Y + 15 , R30
001b4f 8bf8     +STD Y + 15 + 1 , R31
001b50 8b69     +STD Y + 15 + 2 , R22
001b51 8b7a     +STD Y + 15 + 3 , R23
                 	__PUTD1S 15
                +
001b52 85af     +LDD R26 , Y + 15
001b53 89b8     +LDD R27 , Y + 15 + 1
001b54 8989     +LDD R24 , Y + 15 + 2
001b55 899a     +LDD R25 , Y + 15 + 3
                 	__GETD2S 15
001b56 940e 22be 	CALL SUBOPT_0x3D
001b58 f420      	BRSH _0x202014B
001b59 940e 2541 	CALL SUBOPT_0x97
001b5b e0e2      	LDI  R30,LOW(2)
001b5c c0ed      	RJMP _0x20A0006
                 _0x202014B:
                +
001b5d 85af     +LDD R26 , Y + 15
001b5e 89b8     +LDD R27 , Y + 15 + 1
001b5f 8989     +LDD R24 , Y + 15 + 2
001b60 899a     +LDD R25 , Y + 15 + 3
                 	__GETD2S 15
001b61 940e 2381 	CALL SUBOPT_0x53
001b63 f421      	BRNE _0x202014C
001b64 940e 2541 	CALL SUBOPT_0x97
001b66 e0e1      	LDI  R30,LOW(1)
001b67 c0e2      	RJMP _0x20A0006
                 _0x202014C:
                +
001b68 85ef     +LDD R30 , Y + 15
001b69 89f8     +LDD R31 , Y + 15 + 1
001b6a 8969     +LDD R22 , Y + 15 + 2
001b6b 897a     +LDD R23 , Y + 15 + 3
                 	__GETD1S 15
                +
001b6c 8da9     +LDD R26 , Y + 25
001b6d 8dba     +LDD R27 , Y + 25 + 1
001b6e 9652     +ADIW R26 , 18
001b6f 940e 27ba+CALL __PUTDP1
                 	__PUTD1SNS 25,18
001b71 8da9      	LDD  R26,Y+25
001b72 8dba      	LDD  R27,Y+25+1
001b73 9615      	ADIW R26,5
001b74 e0e0      	LDI  R30,LOW(0)
001b75 93ec      	ST   X,R30
                 _0x2020147:
001b76 940e 251f 	CALL SUBOPT_0x91
001b78 940e 2524 	CALL SUBOPT_0x92
001b7a 940e 253c 	CALL SUBOPT_0x96
001b7c d85c      	RCALL _clust2sect
001b7d 940e 2548 	CALL SUBOPT_0x98
001b7f 940e 254d 	CALL SUBOPT_0x99
001b81 940e 27f3 	CALL __CPD10
001b83 f421      	BRNE _0x202014D
001b84 940e 2541 	CALL SUBOPT_0x97
001b86 e0e2      	LDI  R30,LOW(2)
001b87 c0c2      	RJMP _0x20A0006
                 _0x202014D:
001b88 940e 2552 	CALL SUBOPT_0x9A
001b8a 940e 2557 	CALL SUBOPT_0x9B
001b8c 940e 273a 	CALL __CWD1
001b8e 940e 26dc 	CALL __ADDD12
001b90 940e 2548 	CALL SUBOPT_0x98
001b92 89ad      	LDD  R26,Y+21
001b93 89be      	LDD  R27,Y+21+1
001b94 940e 255c 	CALL SUBOPT_0x9C
001b96 f409      	BRNE PC+2
001b97 c04c      	RJMP _0x202014E
001b98 940e 2552 	CALL SUBOPT_0x9A
001b9a 0fe3      	ADD  R30,R19
001b9b 1ff4      	ADC  R31,R20
001b9c 010f      	MOVW R0,R30
001b9d 940e 251f 	CALL SUBOPT_0x91
001b9f 81e2      	LDD  R30,Z+2
001ba0 01d0      	MOVW R26,R0
001ba1 e0f0      	LDI  R31,0
001ba2 17ea      	CP   R30,R26
001ba3 07fb      	CPC  R31,R27
001ba4 f458      	BRSH _0x202014F
001ba5 940e 251f 	CALL SUBOPT_0x91
001ba7 81e2      	LDD  R30,Z+2
001ba8 e0f0      	LDI  R31,0
001ba9 01df      	MOVW R26,R30
001baa 940e 2552 	CALL SUBOPT_0x9A
001bac 1bae      	SUB  R26,R30
001bad 0bbf      	SBC  R27,R31
                +
001bae 2f3a     +MOV R19 , R26
001baf 2f4b     +MOV R20 , R27
                 	__PUTW2R 19,20
                 _0x202014F:
001bb0 940e 251f 	CALL SUBOPT_0x91
001bb2 81e1      	LDD  R30,Z+1
001bb3 93ea      	ST   -Y,R30
001bb4 940e 24b5 	CALL SUBOPT_0x81
                +
001bb6 85ee     +LDD R30 , Y + 14
001bb7 85ff     +LDD R31 , Y + 14 + 1
001bb8 8968     +LDD R22 , Y + 14 + 2
001bb9 8979     +LDD R23 , Y + 14 + 3
                 	__GETD1S 14
001bba 940e 27dc 	CALL __PUTPARD1
001bbc 2fa3      	MOV  R26,R19
001bbd 940e 0d8e 	CALL _disk_read
001bbf 30e0      	CPI  R30,0
001bc0 f021      	BREQ _0x2020150
001bc1 940e 2541 	CALL SUBOPT_0x97
001bc3 e0e1      	LDI  R30,LOW(1)
001bc4 c085      	RJMP _0x20A0006
                 _0x2020150:
001bc5 8de9      	LDD  R30,Y+25
001bc6 8dfa      	LDD  R31,Y+25+1
001bc7 81a4      	LDD  R26,Z+4
001bc8 74a0      	ANDI R26,LOW(0x40)
001bc9 f029      	BREQ _0x2020152
001bca 940e 2565 	CALL SUBOPT_0x9D
001bcc 940e 256c 	CALL SUBOPT_0x9E
001bce f008      	BRLO _0x2020153
                 _0x2020152:
001bcf c00f      	RJMP _0x2020151
                 _0x2020153:
001bd0 940e 2565 	CALL SUBOPT_0x9D
001bd2 940e 2575 	CALL SUBOPT_0x9F
001bd4 81ad      	LDD  R26,Y+5
001bd5 81be      	LDD  R27,Y+5+1
001bd6 2788      	CLR  R24
001bd7 2799      	CLR  R25
001bd8 0fea      	ADD  R30,R26
001bd9 1ffb      	ADC  R31,R27
001bda 940e 2524 	CALL SUBOPT_0x92
001bdc 96b0      	ADIW R30,32
001bdd 940e 257e 	CALL SUBOPT_0xA0
                 _0x2020151:
001bdf 8da9      	LDD  R26,Y+25
001be0 8dba      	LDD  R27,Y+25+1
001be1 940e 2584 	CALL SUBOPT_0xA1
001be3 c051      	RJMP _0x2020143
                 _0x202014E:
001be4 8de9      	LDD  R30,Y+25
001be5 8dfa      	LDD  R31,Y+25+1
001be6 81a4      	LDD  R26,Z+4
001be7 74a0      	ANDI R26,LOW(0x40)
001be8 f089      	BREQ _0x2020154
001be9 940e 251f 	CALL SUBOPT_0x91
001beb 940e 2591 	CALL SUBOPT_0xA2
001bed 8dec      	LDD  R30,Y+28
001bee 8dfd      	LDD  R31,Y+28+1
001bef 940e 2599 	CALL SUBOPT_0xA3
001bf1 f021      	BREQ _0x2020155
001bf2 940e 2541 	CALL SUBOPT_0x97
001bf4 e0e1      	LDI  R30,LOW(1)
001bf5 c054      	RJMP _0x20A0006
                 _0x2020155:
001bf6 8da9      	LDD  R26,Y+25
001bf7 8dba      	LDD  R27,Y+25+1
001bf8 940e 25a4 	CALL SUBOPT_0xA4
                 _0x2020154:
001bfa 940e 2565 	CALL SUBOPT_0x9D
001bfc 940e 27fd 	CALL __CPD12
001bfe f079      	BREQ _0x2020156
001bff 940e 251f 	CALL SUBOPT_0x91
001c01 940e 2591 	CALL SUBOPT_0xA2
                +
001c03 85ee     +LDD R30 , Y + 14
001c04 85ff     +LDD R31 , Y + 14 + 1
001c05 8968     +LDD R22 , Y + 14 + 2
001c06 8979     +LDD R23 , Y + 14 + 3
                 	__GETD1S 14
001c07 940e 2283 	CALL SUBOPT_0x35
001c09 f021      	BREQ _0x2020157
001c0a 940e 2541 	CALL SUBOPT_0x97
001c0c e0e1      	LDI  R30,LOW(1)
001c0d c03c      	RJMP _0x20A0006
                 _0x2020157:
                 _0x2020156:
001c0e 940e 254d 	CALL SUBOPT_0x99
                +
001c10 8da9     +LDD R26 , Y + 25
001c11 8dba     +LDD R27 , Y + 25 + 1
001c12 9656     +ADIW R26 , 22
001c13 940e 27ba+CALL __PUTDP1
                 	__PUTD1SNS 25,22
001c15 8da9      	LDD  R26,Y+25
001c16 8dba      	LDD  R27,Y+25+1
001c17 9615      	ADIW R26,5
001c18 91ec      	LD   R30,X
001c19 5fef      	SUBI R30,-LOW(1)
001c1a 93ec      	ST   X,R30
                 _0x2020146:
001c1b 8da9      	LDD  R26,Y+25
001c1c 8dba      	LDD  R27,Y+25+1
001c1d 940e 25a9 	CALL SUBOPT_0xA5
001c1f 940e 25ae 	CALL SUBOPT_0xA6
001c21 89ed      	LDD  R30,Y+21
001c22 89fe      	LDD  R31,Y+21+1
001c23 17e1      	CP   R30,R17
001c24 07f2      	CPC  R31,R18
001c25 f410      	BRSH _0x2020158
                +
001c26 891d     +LDD R17 , Y + 21
001c27 892e     +LDD R18 , Y + 21 + 1
                 	__GETWRS 17,18,21
                 _0x2020158:
001c28 940e 24ee 	CALL SUBOPT_0x89
001c2a 8dab      	LDD  R26,Y+27
001c2b 8dbc      	LDD  R27,Y+27+1
001c2c 940e 25a9 	CALL SUBOPT_0xA5
001c2e 8dab      	LDD  R26,Y+27
001c2f 8dbc      	LDD  R27,Y+27+1
001c30 9690      	ADIW R26,32
001c31 0fea      	ADD  R30,R26
001c32 1ffb      	ADC  R31,R27
001c33 940e 25b5 	CALL SUBOPT_0xA7
                 _0x2020143:
001c35 940e 25bb 	CALL SUBOPT_0xA8
001c37 8de9      	LDD  R30,Y+25
001c38 8dfa      	LDD  R31,Y+25+1
001c39 940e 25c4 	CALL SUBOPT_0xA9
001c3b 01d0      	MOVW R26,R0
001c3c 940e 27ba 	CALL __PUTDP1
001c3e 89ab      	LDD  R26,Y+19
001c3f 89bc      	LDD  R27,Y+19+1
001c40 940e 25ce 	CALL SUBOPT_0xAA
001c42 89ed      	LDD  R30,Y+21
001c43 89fe      	LDD  R31,Y+21+1
001c44 1be1      	SUB  R30,R17
001c45 0bf2      	SBC  R31,R18
001c46 8bed      	STD  Y+21,R30
001c47 8bfe      	STD  Y+21+1,R31
001c48 cedd      	RJMP _0x2020144
                 _0x2020145:
001c49 e0e0      	LDI  R30,LOW(0)
                 _0x20A0006:
001c4a 940e 280f 	CALL __LOADLOCR5
001c4c 966b      	ADIW R28,27
001c4d 9508      	RET
                 ; .FEND
                 _f_write:
                 ; .FSTART _f_write
001c4e 93ba      	ST   -Y,R27
001c4f 93aa      	ST   -Y,R26
001c50 972a      	SBIW R28,10
001c51 940e 2808 	CALL __SAVELOCR5
001c53 89eb      	LDD  R30,Y+19
001c54 89fc      	LDD  R31,Y+19+1
001c55 83ed      	STD  Y+5,R30
001c56 83fe      	STD  Y+5+1,R31
001c57 85af      	LDD  R26,Y+15
001c58 89b8      	LDD  R27,Y+15+1
001c59 940e 24ba 	CALL SUBOPT_0x82
001c5b 940e 25d5 	CALL SUBOPT_0xAB
001c5d 940e 25da 	CALL SUBOPT_0xAC
001c5f 940e 2529 	CALL SUBOPT_0x93
001c61 f011      	BREQ _0x2020159
001c62 2fe0      	MOV  R30,R16
001c63 c192      	RJMP _0x20A0005
                 _0x2020159:
001c64 89ed      	LDD  R30,Y+21
001c65 89fe      	LDD  R31,Y+21+1
001c66 81a4      	LDD  R26,Z+4
001c67 78a0      	ANDI R26,LOW(0x80)
001c68 f011      	BREQ _0x202015A
001c69 e0e2      	LDI  R30,LOW(2)
001c6a c18b      	RJMP _0x20A0005
                 _0x202015A:
001c6b 89ed      	LDD  R30,Y+21
001c6c 89fe      	LDD  R31,Y+21+1
001c6d 81a4      	LDD  R26,Z+4
001c6e 70a2      	ANDI R26,LOW(0x2)
001c6f f411      	BRNE _0x202015B
001c70 e0e7      	LDI  R30,LOW(7)
001c71 c184      	RJMP _0x20A0005
                 _0x202015B:
001c72 89ed      	LDD  R30,Y+21
001c73 89fe      	LDD  R31,Y+21+1
                +
001c74 85a2     +LDD R26 , Z + 10
001c75 85b3     +LDD R27 , Z + 10 + 1
001c76 8584     +LDD R24 , Z + 10 + 2
001c77 8595     +LDD R25 , Z + 10 + 3
                 	__GETD2Z 10
001c78 89e9      	LDD  R30,Y+17
001c79 89fa      	LDD  R31,Y+17+1
001c7a 940e 241f 	CALL SUBOPT_0x6E
001c7c 937f      	PUSH R23
001c7d 936f      	PUSH R22
001c7e 93ff      	PUSH R31
001c7f 93ef      	PUSH R30
001c80 940e 25df 	CALL SUBOPT_0xAD
001c82 91af      	POP  R26
001c83 91bf      	POP  R27
001c84 918f      	POP  R24
001c85 919f      	POP  R25
001c86 940e 2802 	CALL __CPD21
001c88 f418      	BRSH _0x202015C
001c89 e0e0      	LDI  R30,LOW(0)
001c8a 8be9      	STD  Y+17,R30
001c8b 8bea      	STD  Y+17+1,R30
                 _0x202015C:
                 _0x202015E:
001c8c 89e9      	LDD  R30,Y+17
001c8d 89fa      	LDD  R31,Y+17+1
001c8e 9730      	SBIW R30,0
001c8f f409      	BRNE PC+2
001c90 c14b      	RJMP _0x202015F
001c91 940e 25e5 	CALL SUBOPT_0xAE
001c93 01fd      	MOVW R30,R26
001c94 01bc      	MOVW R22,R24
001c95 70f1      	ANDI R31,HIGH(0x1FF)
001c96 9730      	SBIW R30,0
001c97 f009      	BREQ PC+2
001c98 c10d      	RJMP _0x2020160
001c99 89ed      	LDD  R30,Y+21
001c9a 89fe      	LDD  R31,Y+21+1
001c9b 8005      	LDD  R0,Z+5
001c9c 940e 25d5 	CALL SUBOPT_0xAB
001c9e 81e2      	LDD  R30,Z+2
001c9f 160e      	CP   R0,R30
001ca0 f408      	BRSH PC+2
001ca1 c050      	RJMP _0x2020161
001ca2 89ad      	LDD  R26,Y+21
001ca3 89be      	LDD  R27,Y+21+1
001ca4 9616      	ADIW R26,6
001ca5 940e 2438 	CALL SUBOPT_0x71
001ca7 f4e1      	BRNE _0x2020162
001ca8 89ad      	LDD  R26,Y+21
001ca9 89be      	LDD  R27,Y+21+1
001caa 961e      	ADIW R26,14
001cab 940e 27af 	CALL __GETD1P
001cad 940e 2548 	CALL SUBOPT_0x98
001caf 940e 254d 	CALL SUBOPT_0x99
001cb1 940e 27f3 	CALL __CPD10
001cb3 f479      	BRNE _0x2020163
001cb4 940e 25d5 	CALL SUBOPT_0xAB
001cb6 93fa      	ST   -Y,R31
001cb7 93ea      	ST   -Y,R30
001cb8 940e 238e 	CALL SUBOPT_0x55
001cba 940e 1312 	CALL _create_chain_G101
001cbc 940e 2548 	CALL SUBOPT_0x98
                +
001cbe 89ad     +LDD R26 , Y + 21
001cbf 89be     +LDD R27 , Y + 21 + 1
001cc0 961e     +ADIW R26 , 14
001cc1 940e 27ba+CALL __PUTDP1
                 	__PUTD1SNS 21,14
                 _0x2020163:
001cc3 c00a      	RJMP _0x2020164
                 _0x2020162:
001cc4 940e 25d5 	CALL SUBOPT_0xAB
001cc6 940e 25da 	CALL SUBOPT_0xAC
001cc8 940e 253c 	CALL SUBOPT_0x96
001cca 940e 1312 	CALL _create_chain_G101
001ccc 940e 2548 	CALL SUBOPT_0x98
                 _0x2020164:
001cce 940e 254d 	CALL SUBOPT_0x99
001cd0 940e 27f3 	CALL __CPD10
001cd2 f409      	BRNE _0x2020165
001cd3 c108      	RJMP _0x202015F
                 _0x2020165:
001cd4 940e 2557 	CALL SUBOPT_0x9B
001cd6 940e 2379 	CALL SUBOPT_0x52
001cd8 f421      	BRNE _0x2020166
001cd9 940e 25ec 	CALL SUBOPT_0xAF
001cdb e0e2      	LDI  R30,LOW(2)
001cdc c119      	RJMP _0x20A0005
                 _0x2020166:
001cdd 940e 2557 	CALL SUBOPT_0x9B
001cdf 940e 2381 	CALL SUBOPT_0x53
001ce1 f421      	BRNE _0x2020167
001ce2 940e 25ec 	CALL SUBOPT_0xAF
001ce4 e0e1      	LDI  R30,LOW(1)
001ce5 c110      	RJMP _0x20A0005
                 _0x2020167:
001ce6 940e 254d 	CALL SUBOPT_0x99
                +
001ce8 89ad     +LDD R26 , Y + 21
001ce9 89be     +LDD R27 , Y + 21 + 1
001cea 9652     +ADIW R26 , 18
001ceb 940e 27ba+CALL __PUTDP1
                 	__PUTD1SNS 21,18
001ced 89ad      	LDD  R26,Y+21
001cee 89be      	LDD  R27,Y+21+1
001cef 9615      	ADIW R26,5
001cf0 e0e0      	LDI  R30,LOW(0)
001cf1 93ec      	ST   X,R30
                 _0x2020161:
001cf2 89ed      	LDD  R30,Y+21
001cf3 89fe      	LDD  R31,Y+21+1
001cf4 81a4      	LDD  R26,Z+4
001cf5 74a0      	ANDI R26,LOW(0x40)
001cf6 f089      	BREQ _0x2020168
001cf7 940e 25d5 	CALL SUBOPT_0xAB
001cf9 940e 25f3 	CALL SUBOPT_0xB0
001cfb 8de8      	LDD  R30,Y+24
001cfc 8df9      	LDD  R31,Y+24+1
001cfd 940e 2599 	CALL SUBOPT_0xA3
001cff f021      	BREQ _0x2020169
001d00 940e 25ec 	CALL SUBOPT_0xAF
001d02 e0e1      	LDI  R30,LOW(1)
001d03 c0f2      	RJMP _0x20A0005
                 _0x2020169:
001d04 89ad      	LDD  R26,Y+21
001d05 89be      	LDD  R27,Y+21+1
001d06 940e 25a4 	CALL SUBOPT_0xA4
                 _0x2020168:
001d08 940e 25d5 	CALL SUBOPT_0xAB
001d0a 940e 25da 	CALL SUBOPT_0xAC
001d0c 940e 253c 	CALL SUBOPT_0x96
001d0e 940e 13d9 	CALL _clust2sect
001d10 940e 2537 	CALL SUBOPT_0x95
001d12 940e 27f3 	CALL __CPD10
001d14 f421      	BRNE _0x202016A
001d15 940e 25ec 	CALL SUBOPT_0xAF
001d17 e0e2      	LDI  R30,LOW(2)
001d18 c0dd      	RJMP _0x20A0005
                 _0x202016A:
001d19 940e 25fb 	CALL SUBOPT_0xB1
                +
001d1b 81af     +LDD R26 , Y + 7
001d1c 85b8     +LDD R27 , Y + 7 + 1
001d1d 8589     +LDD R24 , Y + 7 + 2
001d1e 859a     +LDD R25 , Y + 7 + 3
                 	__GETD2S 7
001d1f 940e 273a 	CALL __CWD1
001d21 940e 26dc 	CALL __ADDD12
                +
001d23 83ef     +STD Y + 7 , R30
001d24 87f8     +STD Y + 7 + 1 , R31
001d25 8769     +STD Y + 7 + 2 , R22
001d26 877a     +STD Y + 7 + 3 , R23
                 	__PUTD1S 7
001d27 89a9      	LDD  R26,Y+17
001d28 89ba      	LDD  R27,Y+17+1
001d29 940e 255c 	CALL SUBOPT_0x9C
001d2b f409      	BRNE PC+2
001d2c c04e      	RJMP _0x202016B
001d2d 940e 25fb 	CALL SUBOPT_0xB1
001d2f 0fe3      	ADD  R30,R19
001d30 1ff4      	ADC  R31,R20
001d31 010f      	MOVW R0,R30
001d32 940e 25d5 	CALL SUBOPT_0xAB
001d34 81e2      	LDD  R30,Z+2
001d35 01d0      	MOVW R26,R0
001d36 e0f0      	LDI  R31,0
001d37 17ea      	CP   R30,R26
001d38 07fb      	CPC  R31,R27
001d39 f458      	BRSH _0x202016C
001d3a 940e 25d5 	CALL SUBOPT_0xAB
001d3c 81e2      	LDD  R30,Z+2
001d3d e0f0      	LDI  R31,0
001d3e 01df      	MOVW R26,R30
001d3f 940e 25fb 	CALL SUBOPT_0xB1
001d41 1bae      	SUB  R26,R30
001d42 0bbf      	SBC  R27,R31
                +
001d43 2f3a     +MOV R19 , R26
001d44 2f4b     +MOV R20 , R27
                 	__PUTW2R 19,20
                 _0x202016C:
001d45 940e 25d5 	CALL SUBOPT_0xAB
001d47 81e1      	LDD  R30,Z+1
001d48 93ea      	ST   -Y,R30
001d49 940e 24b5 	CALL SUBOPT_0x81
001d4b 940e 23e1 	CALL SUBOPT_0x65
001d4d 2fa3      	MOV  R26,R19
001d4e 940e 0df2 	CALL _disk_write
001d50 30e0      	CPI  R30,0
001d51 f021      	BREQ _0x202016D
001d52 940e 25ec 	CALL SUBOPT_0xAF
001d54 e0e1      	LDI  R30,LOW(1)
001d55 c0a0      	RJMP _0x20A0005
                 _0x202016D:
001d56 940e 2600 	CALL SUBOPT_0xB2
001d58 940e 256c 	CALL SUBOPT_0x9E
001d5a f4d8      	BRSH _0x202016E
001d5b 89ed      	LDD  R30,Y+21
001d5c 89fe      	LDD  R31,Y+21+1
001d5d 96b0      	ADIW R30,32
001d5e 940e 25da 	CALL SUBOPT_0xAC
                +
001d60 89a6     +LDD R26 , Z + 22
001d61 89b7     +LDD R27 , Z + 22 + 1
001d62 8d80     +LDD R24 , Z + 22 + 2
001d63 8d91     +LDD R25 , Z + 22 + 3
                 	__GETD2Z 22
                +
001d64 85e9     +LDD R30 , Y + 9
001d65 85fa     +LDD R31 , Y + 9 + 1
001d66 856b     +LDD R22 , Y + 9 + 2
001d67 857c     +LDD R23 , Y + 9 + 3
                 	__GETD1S 9
001d68 940e 2575 	CALL SUBOPT_0x9F
001d6a 81af      	LDD  R26,Y+7
001d6b 85b8      	LDD  R27,Y+7+1
001d6c 2788      	CLR  R24
001d6d 2799      	CLR  R25
001d6e 0fea      	ADD  R30,R26
001d6f 1ffb      	ADC  R31,R27
001d70 940e 257e 	CALL SUBOPT_0xA0
001d72 89ad      	LDD  R26,Y+21
001d73 89be      	LDD  R27,Y+21+1
001d74 940e 25a4 	CALL SUBOPT_0xA4
                 _0x202016E:
001d76 89ad      	LDD  R26,Y+21
001d77 89be      	LDD  R27,Y+21+1
001d78 940e 2584 	CALL SUBOPT_0xA1
001d7a c04d      	RJMP _0x202015D
                 _0x202016B:
001d7b 940e 2600 	CALL SUBOPT_0xB2
001d7d 940e 27fd 	CALL __CPD12
001d7f f0c9      	BREQ _0x202016F
001d80 940e 25e5 	CALL SUBOPT_0xAE
001d82 010d      	MOVW R0,R26
001d83 940e 25df 	CALL SUBOPT_0xAD
001d85 01d0      	MOVW R26,R0
001d86 940e 2802 	CALL __CPD21
001d88 f458      	BRSH _0x2020171
001d89 940e 25d5 	CALL SUBOPT_0xAB
001d8b 940e 25f3 	CALL SUBOPT_0xB0
                +
001d8d 85ea     +LDD R30 , Y + 10
001d8e 85fb     +LDD R31 , Y + 10 + 1
001d8f 856c     +LDD R22 , Y + 10 + 2
001d90 857d     +LDD R23 , Y + 10 + 3
                 	__GETD1S 10
001d91 940e 2283 	CALL SUBOPT_0x35
001d93 f409      	BRNE _0x2020172
                 _0x2020171:
001d94 c004      	RJMP _0x2020170
                 _0x2020172:
001d95 940e 25ec 	CALL SUBOPT_0xAF
001d97 e0e1      	LDI  R30,LOW(1)
001d98 c05d      	RJMP _0x20A0005
                 _0x2020170:
                 _0x202016F:
001d99 940e 2389 	CALL SUBOPT_0x54
                +
001d9b 89ad     +LDD R26 , Y + 21
001d9c 89be     +LDD R27 , Y + 21 + 1
001d9d 9656     +ADIW R26 , 22
001d9e 940e 27ba+CALL __PUTDP1
                 	__PUTD1SNS 21,22
001da0 89ad      	LDD  R26,Y+21
001da1 89be      	LDD  R27,Y+21+1
001da2 9615      	ADIW R26,5
001da3 91ec      	LD   R30,X
001da4 5fef      	SUBI R30,-LOW(1)
001da5 93ec      	ST   X,R30
                 _0x2020160:
001da6 89ad      	LDD  R26,Y+21
001da7 89be      	LDD  R27,Y+21+1
001da8 940e 25a9 	CALL SUBOPT_0xA5
001daa 940e 25ae 	CALL SUBOPT_0xA6
001dac 89e9      	LDD  R30,Y+17
001dad 89fa      	LDD  R31,Y+17+1
001dae 17e1      	CP   R30,R17
001daf 07f2      	CPC  R31,R18
001db0 f410      	BRSH _0x2020173
                +
001db1 8919     +LDD R17 , Y + 17
001db2 892a     +LDD R18 , Y + 17 + 1
                 	__GETWRS 17,18,17
                 _0x2020173:
001db3 89ad      	LDD  R26,Y+21
001db4 89be      	LDD  R27,Y+21+1
001db5 940e 25a9 	CALL SUBOPT_0xA5
001db7 89ad      	LDD  R26,Y+21
001db8 89be      	LDD  R27,Y+21+1
001db9 9690      	ADIW R26,32
001dba 0fea      	ADD  R30,R26
001dbb 1ffb      	ADC  R31,R27
001dbc 93fa      	ST   -Y,R31
001dbd 93ea      	ST   -Y,R30
001dbe 81ef      	LDD  R30,Y+7
001dbf 85f8      	LDD  R31,Y+7+1
001dc0 940e 25b5 	CALL SUBOPT_0xA7
001dc2 89ad      	LDD  R26,Y+21
001dc3 89be      	LDD  R27,Y+21+1
001dc4 9614      	ADIW R26,4
001dc5 91ec      	LD   R30,X
001dc6 64e0      	ORI  R30,0x40
001dc7 93ec      	ST   X,R30
                 _0x202015D:
001dc8 940e 25bb 	CALL SUBOPT_0xA8
001dca 89ed      	LDD  R30,Y+21
001dcb 89fe      	LDD  R31,Y+21+1
001dcc 940e 25c4 	CALL SUBOPT_0xA9
001dce 01d0      	MOVW R26,R0
001dcf 940e 27ba 	CALL __PUTDP1
001dd1 85af      	LDD  R26,Y+15
001dd2 89b8      	LDD  R27,Y+15+1
001dd3 940e 25ce 	CALL SUBOPT_0xAA
001dd5 89e9      	LDD  R30,Y+17
001dd6 89fa      	LDD  R31,Y+17+1
001dd7 1be1      	SUB  R30,R17
001dd8 0bf2      	SBC  R31,R18
001dd9 8be9      	STD  Y+17,R30
001dda 8bfa      	STD  Y+17+1,R31
001ddb ceb0      	RJMP _0x202015E
                 _0x202015F:
001ddc 940e 25e5 	CALL SUBOPT_0xAE
001dde 010d      	MOVW R0,R26
001ddf 940e 25df 	CALL SUBOPT_0xAD
001de1 01d0      	MOVW R26,R0
001de2 940e 27fd 	CALL __CPD12
001de4 f450      	BRSH _0x2020174
001de5 89ad      	LDD  R26,Y+21
001de6 89be      	LDD  R27,Y+21+1
001de7 9616      	ADIW R26,6
001de8 940e 27af 	CALL __GETD1P
                +
001dea 89ad     +LDD R26 , Y + 21
001deb 89be     +LDD R27 , Y + 21 + 1
001dec 961a     +ADIW R26 , 10
001ded 940e 27ba+CALL __PUTDP1
                 	__PUTD1SNS 21,10
                 _0x2020174:
001def 89ad      	LDD  R26,Y+21
001df0 89be      	LDD  R27,Y+21+1
001df1 9614      	ADIW R26,4
001df2 91ec      	LD   R30,X
001df3 62e0      	ORI  R30,0x20
001df4 93ec      	ST   X,R30
001df5 e0e0      	LDI  R30,LOW(0)
                 _0x20A0005:
001df6 940e 280f 	CALL __LOADLOCR5
001df8 9667      	ADIW R28,23
001df9 9508      	RET
                 ; .FEND
                 _f_sync:
                 ; .FSTART _f_sync
001dfa 93ba      	ST   -Y,R27
001dfb 93aa      	ST   -Y,R26
001dfc 9724      	SBIW R28,4
001dfd 940e 280a 	CALL __SAVELOCR3
001dff 940e 2607 	CALL SUBOPT_0xB3
001e01 93fa      	ST   -Y,R31
001e02 93ea      	ST   -Y,R30
001e03 85e9      	LDD  R30,Y+9
001e04 85fa      	LDD  R31,Y+9+1
001e05 940e 2529 	CALL SUBOPT_0x93
001e07 f009      	BREQ PC+2
001e08 c077      	RJMP _0x2020175
001e09 81ef      	LDD  R30,Y+7
001e0a 85f8      	LDD  R31,Y+7+1
001e0b 81a4      	LDD  R26,Z+4
001e0c 72a0      	ANDI R26,LOW(0x20)
001e0d f409      	BRNE PC+2
001e0e c071      	RJMP _0x2020176
001e0f 81a4      	LDD  R26,Z+4
001e10 74a0      	ANDI R26,LOW(0x40)
001e11 f0b1      	BREQ _0x2020177
001e12 940e 2607 	CALL SUBOPT_0xB3
001e14 81e1      	LDD  R30,Z+1
001e15 93ea      	ST   -Y,R30
001e16 85e8      	LDD  R30,Y+8
001e17 85f9      	LDD  R31,Y+8+1
001e18 96b0      	ADIW R30,32
001e19 93fa      	ST   -Y,R31
001e1a 93ea      	ST   -Y,R30
001e1b 85ea      	LDD  R30,Y+10
001e1c 85fb      	LDD  R31,Y+10+1
001e1d 940e 2599 	CALL SUBOPT_0xA3
001e1f f021      	BREQ _0x2020178
001e20 e0e1      	LDI  R30,LOW(1)
001e21 940e 2811 	CALL __LOADLOCR3
001e23 c0c0      	RJMP _0x20A0004
                 _0x2020178:
001e24 81af      	LDD  R26,Y+7
001e25 85b8      	LDD  R27,Y+7+1
001e26 940e 25a4 	CALL SUBOPT_0xA4
                 _0x2020177:
001e28 940e 2607 	CALL SUBOPT_0xB3
001e2a 93fa      	ST   -Y,R31
001e2b 93ea      	ST   -Y,R30
001e2c 85e9      	LDD  R30,Y+9
001e2d 85fa      	LDD  R31,Y+9+1
                +
001e2e 8da2     +LDD R26 , Z + 26
001e2f 8db3     +LDD R27 , Z + 26 + 1
001e30 8d84     +LDD R24 , Z + 26 + 2
001e31 8d95     +LDD R25 , Z + 26 + 3
                 	__GETD2Z 26
001e32 940e 10ca 	CALL _move_window_G101
001e34 2f0e      	MOV  R16,R30
001e35 3000      	CPI  R16,0
001e36 f009      	BREQ PC+2
001e37 c048      	RJMP _0x2020179
001e38 81af      	LDD  R26,Y+7
001e39 85b8      	LDD  R27,Y+7+1
001e3a 965e      	ADIW R26,30
001e3b 911d      	LD   R17,X+
001e3c 912c      	LD   R18,X
                +
001e3d 2fa1     +MOV R26 , R17
001e3e 2fb2     +MOV R27 , R18
                 	__GETW2R 17,18
001e3f 961b      	ADIW R26,11
001e40 91ec      	LD   R30,X
001e41 62e0      	ORI  R30,0x20
001e42 93ec      	ST   X,R30
001e43 81af      	LDD  R26,Y+7
001e44 85b8      	LDD  R27,Y+7+1
001e45 961a      	ADIW R26,10
001e46 940e 27af 	CALL __GETD1P
                +
001e48 2fa1     +MOV R26 , R17
001e49 2fb2     +MOV R27 , R18
001e4a 965c     +ADIW R26 , 28
001e4b 940e 27ba+CALL __PUTDP1
                 	__PUTD1RONS 17,18,28
001e4d 81af      	LDD  R26,Y+7
001e4e 85b8      	LDD  R27,Y+7+1
001e4f 961e      	ADIW R26,14
001e50 940e 27ab 	CALL __GETW1P
                +
001e52 2fa1     +MOV R26 , R17
001e53 2fb2     +MOV R27 , R18
001e54 965a     +ADIW R26 , 26
001e55 93ed     +ST X + , R30
001e56 93fc     +ST X , R31
                 	__PUTW1RONS 17,18,26
001e57 81ef      	LDD  R30,Y+7
001e58 85f8      	LDD  R31,Y+7+1
                +
001e59 85a6     +LDD R26 , Z + 14
001e5a 85b7     +LDD R27 , Z + 14 + 1
001e5b 8980     +LDD R24 , Z + 14 + 2
001e5c 8991     +LDD R25 , Z + 14 + 3
                 	__GETD2Z 14
001e5d 01fd      	MOVW R30,R26
001e5e 01bc      	MOVW R22,R24
001e5f 940e 2730 	CALL __LSRD16
                +
001e61 2fa1     +MOV R26 , R17
001e62 2fb2     +MOV R27 , R18
001e63 9654     +ADIW R26 , 20
001e64 93ed     +ST X + , R30
001e65 93fc     +ST X , R31
                 	__PUTW1RONS 17,18,20
001e66 940e 1034 	CALL _get_fattime
001e68 940e 2450 	CALL SUBOPT_0x75
                +
001e6a 2fa1     +MOV R26 , R17
001e6b 2fb2     +MOV R27 , R18
001e6c 9656     +ADIW R26 , 22
001e6d 940e 27ba+CALL __PUTDP1
                 	__PUTD1RONS 17,18,22
001e6f 81af      	LDD  R26,Y+7
001e70 85b8      	LDD  R27,Y+7+1
001e71 9614      	ADIW R26,4
001e72 91ec      	LD   R30,X
001e73 7def      	ANDI R30,0xDF
001e74 93ec      	ST   X,R30
001e75 940e 2607 	CALL SUBOPT_0xB3
001e77 9634      	ADIW R30,4
001e78 e0a1      	LDI  R26,LOW(1)
001e79 83a0      	STD  Z+0,R26
001e7a 940e 2607 	CALL SUBOPT_0xB3
001e7c 01df      	MOVW R26,R30
001e7d 940e 1131 	CALL _sync_G101
001e7f 2f0e      	MOV  R16,R30
                 _0x2020179:
                 _0x2020176:
                 _0x2020175:
001e80 2fe0      	MOV  R30,R16
001e81 940e 2811 	CALL __LOADLOCR3
001e83 c060      	RJMP _0x20A0004
                 ; .FEND
                 _f_close:
                 ; .FSTART _f_close
001e84 93ba      	ST   -Y,R27
001e85 93aa      	ST   -Y,R26
001e86 930a      	ST   -Y,R16
001e87 81a9      	LDD  R26,Y+1
001e88 81ba      	LDD  R27,Y+1+1
001e89 df70      	RCALL _f_sync
001e8a 2f0e      	MOV  R16,R30
001e8b 3000      	CPI  R16,0
001e8c f421      	BRNE _0x202017A
001e8d 81a9      	LDD  R26,Y+1
001e8e 81ba      	LDD  R27,Y+1+1
001e8f 940e 24ba 	CALL SUBOPT_0x82
                 _0x202017A:
001e91 2fe0      	MOV  R30,R16
001e92 8108      	LDD  R16,Y+0
001e93 c05a      	RJMP _0x20A0003
                 ; .FEND
                 	#ifndef __SLEEP_DEFINED__
                 	#endif
                 
                 	.CSEG
                 _getchar:
                 ; .FSTART _getchar
                 _0x2040003:
001e94 91e0 00c8 	LDS  R30,200
001e96 78e0      	ANDI R30,LOW(0x80)
001e97 f3e1      	BREQ _0x2040003
001e98 91e0 00ce 	LDS  R30,206
001e9a 9508      	RET
                 ; .FEND
                 _putchar:
                 ; .FSTART _putchar
001e9b 93aa      	ST   -Y,R26
                 _0x2040006:
001e9c 91e0 00c8 	LDS  R30,200
001e9e 72e0      	ANDI R30,LOW(0x20)
001e9f f3e1      	BREQ _0x2040006
001ea0 81e8      	LD   R30,Y
001ea1 93e0 00ce 	STS  206,R30
001ea3 9621      	ADIW R28,1
001ea4 9508      	RET
                 ; .FEND
                 _puts:
                 ; .FSTART _puts
001ea5 93ba      	ST   -Y,R27
001ea6 93aa      	ST   -Y,R26
001ea7 930a      	ST   -Y,R16
                 _0x2040009:
001ea8 81a9      	LDD  R26,Y+1
001ea9 81ba      	LDD  R27,Y+1+1
001eaa 91ed      	LD   R30,X+
001eab 83a9      	STD  Y+1,R26
001eac 83ba      	STD  Y+1+1,R27
001ead 2f0e      	MOV  R16,R30
001eae 30e0      	CPI  R30,0
001eaf f019      	BREQ _0x204000B
001eb0 2fa0      	MOV  R26,R16
001eb1 dfe9      	RCALL _putchar
001eb2 cff5      	RJMP _0x2040009
                 _0x204000B:
001eb3 e0aa      	LDI  R26,LOW(10)
001eb4 dfe6      	RCALL _putchar
001eb5 8108      	LDD  R16,Y+0
001eb6 c037      	RJMP _0x20A0003
                 ; .FEND
                 _gets:
                 ; .FSTART _gets
001eb7 93ba      	ST   -Y,R27
001eb8 93aa      	ST   -Y,R26
001eb9 940e 2808 	CALL __SAVELOCR5
                +
001ebb 810d     +LDD R16 , Y + 5
001ebc 811e     +LDD R17 , Y + 5 + 1
                 	__GETWRS 16,17,5
                +
001ebd 812f     +LDD R18 , Y + 7
001ebe 8538     +LDD R19 , Y + 7 + 1
                 	__GETWRS 18,19,7
                 _0x2040026:
001ebf 2e00      	MOV  R0,R16
001ec0 2a01      	OR   R0,R17
001ec1 f0d9      	BREQ _0x2040028
                 _0x2040029:
001ec2 dfd1      	RCALL _getchar
001ec3 2f4e      	MOV  R20,R30
001ec4 3048      	CPI  R20,8
001ec5 f451      	BRNE _0x204002A
001ec6 81ad      	LDD  R26,Y+5
001ec7 81be      	LDD  R27,Y+5+1
001ec8 170a      	CP   R16,R26
001ec9 071b      	CPC  R17,R27
001eca f420      	BRSH _0x204002B
                +
001ecb 5021     +SUBI R18 , LOW ( 1 )
001ecc 4030     +SBCI R19 , HIGH ( 1 )
                 	__SUBWRN 18,19,1
                +
001ecd 5f0f     +SUBI R16 , LOW ( - 1 )
001ece 4f1f     +SBCI R17 , HIGH ( - 1 )
                 	__ADDWRN 16,17,1
                 _0x204002B:
001ecf cff2      	RJMP _0x2040029
                 _0x204002A:
001ed0 304a      	CPI  R20,10
001ed1 f059      	BREQ _0x2040028
001ed2 933f      	PUSH R19
001ed3 932f      	PUSH R18
                +
001ed4 5f2f     +SUBI R18 , LOW ( - 1 )
001ed5 4f3f     +SBCI R19 , HIGH ( - 1 )
                 	__ADDWRN 18,19,1
001ed6 2fe4      	MOV  R30,R20
001ed7 91af      	POP  R26
001ed8 91bf      	POP  R27
001ed9 93ec      	ST   X,R30
                +
001eda 5001     +SUBI R16 , LOW ( 1 )
001edb 4010     +SBCI R17 , HIGH ( 1 )
                 	__SUBWRN 16,17,1
001edc cfe2      	RJMP _0x2040026
                 _0x2040028:
001edd 01d9      	MOVW R26,R18
001ede e0e0      	LDI  R30,LOW(0)
001edf 93ec      	ST   X,R30
001ee0 81ef      	LDD  R30,Y+7
001ee1 85f8      	LDD  R31,Y+7+1
001ee2 940e 280f 	CALL __LOADLOCR5
                 _0x20A0004:
001ee4 9629      	ADIW R28,9
001ee5 9508      	RET
                 ; .FEND
                 _put_usart_G102:
                 ; .FSTART _put_usart_G102
001ee6 93ba      	ST   -Y,R27
001ee7 93aa      	ST   -Y,R26
001ee8 81aa      	LDD  R26,Y+2
001ee9 dfb1      	RCALL _putchar
001eea 81a8      	LD   R26,Y
001eeb 81b9      	LDD  R27,Y+1
001eec 940e 2218 	CALL SUBOPT_0x26
                 _0x20A0003:
001eee 9623      	ADIW R28,3
001eef 9508      	RET
                 ; .FEND
                 _put_buff_G102:
                 ; .FSTART _put_buff_G102
001ef0 940e 2159 	CALL SUBOPT_0xA
001ef2 81aa      	LDD  R26,Y+2
001ef3 81bb      	LDD  R27,Y+2+1
001ef4 9612      	ADIW R26,2
001ef5 940e 27ab 	CALL __GETW1P
001ef7 9730      	SBIW R30,0
001ef8 f129      	BREQ _0x204002D
001ef9 81aa      	LDD  R26,Y+2
001efa 81bb      	LDD  R27,Y+2+1
001efb 9614      	ADIW R26,4
001efc 940e 27ab 	CALL __GETW1P
001efe 018f      	MOVW R16,R30
001eff 9730      	SBIW R30,0
001f00 f061      	BREQ _0x204002F
                +
001f01 3002     +CPI R16 , LOW ( 2 )
001f02 e0e0     +LDI R30 , HIGH ( 2 )
001f03 071e     +CPC R17 , R30
                 	__CPWRN 16,17,2
001f04 f080      	BRLO _0x2040030
001f05 01f8      	MOVW R30,R16
001f06 9731      	SBIW R30,1
001f07 018f      	MOVW R16,R30
                +
001f08 81aa     +LDD R26 , Y + 2
001f09 81bb     +LDD R27 , Y + 2 + 1
001f0a 9614     +ADIW R26 , 4
001f0b 93ed     +ST X + , R30
001f0c 93fc     +ST X , R31
                 	__PUTW1SNS 2,4
                 _0x204002F:
001f0d 81aa      	LDD  R26,Y+2
001f0e 81bb      	LDD  R27,Y+2+1
001f0f 9612      	ADIW R26,2
001f10 940e 2218 	CALL SUBOPT_0x26
001f12 9731      	SBIW R30,1
001f13 81ac      	LDD  R26,Y+4
001f14 83a0      	STD  Z+0,R26
                 _0x2040030:
001f15 81aa      	LDD  R26,Y+2
001f16 81bb      	LDD  R27,Y+2+1
001f17 940e 27ab 	CALL __GETW1P
001f19 23ff      	TST  R31
001f1a f012      	BRMI _0x2040031
001f1b 940e 2218 	CALL SUBOPT_0x26
                 _0x2040031:
001f1d c006      	RJMP _0x2040032
                 _0x204002D:
001f1e 81aa      	LDD  R26,Y+2
001f1f 81bb      	LDD  R27,Y+2+1
001f20 efef      	LDI  R30,LOW(65535)
001f21 efff      	LDI  R31,HIGH(65535)
001f22 93ed      	ST   X+,R30
001f23 93fc      	ST   X,R31
                 _0x2040032:
001f24 8119      	LDD  R17,Y+1
001f25 8108      	LDD  R16,Y+0
001f26 940c 20f6 	JMP  _0x20A0001
                 ; .FEND
                 __print_G102:
                 ; .FSTART __print_G102
001f28 93ba      	ST   -Y,R27
001f29 93aa      	ST   -Y,R26
001f2a 9726      	SBIW R28,6
001f2b 940e 2807 	CALL __SAVELOCR6
001f2d e000      	LDI  R16,0
001f2e 85ac      	LDD  R26,Y+12
001f2f 85bd      	LDD  R27,Y+12+1
001f30 940e 24ba 	CALL SUBOPT_0x82
                 _0x2040037:
001f32 89ea      	LDD  R30,Y+18
001f33 89fb      	LDD  R31,Y+18+1
001f34 9631      	ADIW R30,1
001f35 8bea      	STD  Y+18,R30
001f36 8bfb      	STD  Y+18+1,R31
001f37 9731      	SBIW R30,1
001f38 91e4      	LPM  R30,Z
001f39 2f3e      	MOV  R19,R30
001f3a 30e0      	CPI  R30,0
001f3b f409      	BRNE PC+2
001f3c c11f      	RJMP _0x2040039
001f3d 2fe0      	MOV  R30,R16
001f3e 30e0      	CPI  R30,0
001f3f f439      	BRNE _0x204003D
001f40 3235      	CPI  R19,37
001f41 f411      	BRNE _0x204003E
001f42 e001      	LDI  R16,LOW(1)
001f43 c002      	RJMP _0x204003F
                 _0x204003E:
001f44 940e 260c 	CALL SUBOPT_0xB4
                 _0x204003F:
001f46 c114      	RJMP _0x204003C
                 _0x204003D:
001f47 30e1      	CPI  R30,LOW(0x1)
001f48 f4a9      	BRNE _0x2040040
001f49 3235      	CPI  R19,37
001f4a f419      	BRNE _0x2040041
001f4b 940e 260c 	CALL SUBOPT_0xB4
001f4d c10c      	RJMP _0x20400F5
                 _0x2040041:
001f4e e002      	LDI  R16,LOW(2)
001f4f e050      	LDI  R21,LOW(0)
001f50 e010      	LDI  R17,LOW(0)
001f51 323d      	CPI  R19,45
001f52 f411      	BRNE _0x2040042
001f53 e011      	LDI  R17,LOW(1)
001f54 c106      	RJMP _0x204003C
                 _0x2040042:
001f55 323b      	CPI  R19,43
001f56 f411      	BRNE _0x2040043
001f57 e25b      	LDI  R21,LOW(43)
001f58 c102      	RJMP _0x204003C
                 _0x2040043:
001f59 3230      	CPI  R19,32
001f5a f411      	BRNE _0x2040044
001f5b e250      	LDI  R21,LOW(32)
001f5c c0fe      	RJMP _0x204003C
                 _0x2040044:
001f5d c002      	RJMP _0x2040045
                 _0x2040040:
001f5e 30e2      	CPI  R30,LOW(0x2)
001f5f f439      	BRNE _0x2040046
                 _0x2040045:
001f60 e040      	LDI  R20,LOW(0)
001f61 e003      	LDI  R16,LOW(3)
001f62 3330      	CPI  R19,48
001f63 f411      	BRNE _0x2040047
001f64 6810      	ORI  R17,LOW(128)
001f65 c0f5      	RJMP _0x204003C
                 _0x2040047:
001f66 c003      	RJMP _0x2040048
                 _0x2040046:
001f67 30e3      	CPI  R30,LOW(0x3)
001f68 f009      	BREQ PC+2
001f69 c0f1      	RJMP _0x204003C
                 _0x2040048:
001f6a 3330      	CPI  R19,48
001f6b f010      	BRLO _0x204004B
001f6c 333a      	CPI  R19,58
001f6d f008      	BRLO _0x204004C
                 _0x204004B:
001f6e c007      	RJMP _0x204004A
                 _0x204004C:
001f6f e0aa      	LDI  R26,LOW(10)
001f70 9f4a      	MUL  R20,R26
001f71 2d40      	MOV  R20,R0
001f72 2fe3      	MOV  R30,R19
001f73 53e0      	SUBI R30,LOW(48)
001f74 0f4e      	ADD  R20,R30
001f75 c0e5      	RJMP _0x204003C
                 _0x204004A:
001f76 2fe3      	MOV  R30,R19
001f77 36e3      	CPI  R30,LOW(0x63)
001f78 f449      	BRNE _0x2040050
001f79 940e 2613 	CALL SUBOPT_0xB5
001f7b 89e8      	LDD  R30,Y+16
001f7c 89f9      	LDD  R31,Y+16+1
001f7d 81a4      	LDD  R26,Z+4
001f7e 93aa      	ST   -Y,R26
001f7f 940e 2619 	CALL SUBOPT_0xB6
001f81 c0d8      	RJMP _0x2040051
                 _0x2040050:
001f82 37e3      	CPI  R30,LOW(0x73)
001f83 f469      	BRNE _0x2040053
001f84 940e 2613 	CALL SUBOPT_0xB5
001f86 89a8      	LDD  R26,Y+16
001f87 89b9      	LDD  R27,Y+16+1
001f88 9614      	ADIW R26,4
001f89 940e 2486 	CALL SUBOPT_0x7A
001f8b 81ae      	LDD  R26,Y+6
001f8c 81bf      	LDD  R27,Y+6+1
001f8d 940e 2109 	CALL _strlen
001f8f 2f0e      	MOV  R16,R30
001f90 c00f      	RJMP _0x2040054
                 _0x2040053:
001f91 37e0      	CPI  R30,LOW(0x70)
001f92 f489      	BRNE _0x2040056
001f93 940e 2613 	CALL SUBOPT_0xB5
001f95 89a8      	LDD  R26,Y+16
001f96 89b9      	LDD  R27,Y+16+1
001f97 9614      	ADIW R26,4
001f98 940e 2486 	CALL SUBOPT_0x7A
001f9a 81ae      	LDD  R26,Y+6
001f9b 81bf      	LDD  R27,Y+6+1
001f9c 940e 2115 	CALL _strlenf
001f9e 2f0e      	MOV  R16,R30
001f9f 6018      	ORI  R17,LOW(8)
                 _0x2040054:
001fa0 6012      	ORI  R17,LOW(2)
001fa1 771f      	ANDI R17,LOW(127)
001fa2 e020      	LDI  R18,LOW(0)
001fa3 c034      	RJMP _0x2040057
                 _0x2040056:
001fa4 36e4      	CPI  R30,LOW(0x64)
001fa5 f011      	BREQ _0x204005A
001fa6 36e9      	CPI  R30,LOW(0x69)
001fa7 f411      	BRNE _0x204005B
                 _0x204005A:
001fa8 6014      	ORI  R17,LOW(4)
001fa9 c002      	RJMP _0x204005C
                 _0x204005B:
001faa 37e5      	CPI  R30,LOW(0x75)
001fab f431      	BRNE _0x204005D
                 _0x204005C:
001fac edec      	LDI  R30,LOW(_tbl10_G102*2)
001fad e0f8      	LDI  R31,HIGH(_tbl10_G102*2)
001fae 83ee      	STD  Y+6,R30
001faf 83ff      	STD  Y+6+1,R31
001fb0 e005      	LDI  R16,LOW(5)
001fb1 c00c      	RJMP _0x204005E
                 _0x204005D:
001fb2 35e8      	CPI  R30,LOW(0x58)
001fb3 f411      	BRNE _0x2040060
001fb4 6018      	ORI  R17,LOW(8)
001fb5 c003      	RJMP _0x2040061
                 _0x2040060:
001fb6 37e8      	CPI  R30,LOW(0x78)
001fb7 f009      	BREQ PC+2
001fb8 c0a1      	RJMP _0x2040092
                 _0x2040061:
001fb9 eee6      	LDI  R30,LOW(_tbl16_G102*2)
001fba e0f8      	LDI  R31,HIGH(_tbl16_G102*2)
001fbb 83ee      	STD  Y+6,R30
001fbc 83ff      	STD  Y+6+1,R31
001fbd e004      	LDI  R16,LOW(4)
                 _0x204005E:
001fbe ff12      	SBRS R17,2
001fbf c014      	RJMP _0x2040063
001fc0 940e 2613 	CALL SUBOPT_0xB5
001fc2 940e 261f 	CALL SUBOPT_0xB7
001fc4 85ab      	LDD  R26,Y+11
001fc5 23aa      	TST  R26
001fc6 f43a      	BRPL _0x2040064
001fc7 85ea      	LDD  R30,Y+10
001fc8 85fb      	LDD  R31,Y+10+1
001fc9 940e 26f5 	CALL __ANEGW1
001fcb 87ea      	STD  Y+10,R30
001fcc 87fb      	STD  Y+10+1,R31
001fcd e25d      	LDI  R21,LOW(45)
                 _0x2040064:
001fce 3050      	CPI  R21,0
001fcf f011      	BREQ _0x2040065
001fd0 5f0f      	SUBI R16,-LOW(1)
001fd1 c001      	RJMP _0x2040066
                 _0x2040065:
001fd2 7f1b      	ANDI R17,LOW(251)
                 _0x2040066:
001fd3 c004      	RJMP _0x2040067
                 _0x2040063:
001fd4 940e 2613 	CALL SUBOPT_0xB5
001fd6 940e 261f 	CALL SUBOPT_0xB7
                 _0x2040067:
                 _0x2040057:
001fd8 fd10      	SBRC R17,0
001fd9 c011      	RJMP _0x2040068
                 _0x2040069:
001fda 1704      	CP   R16,R20
001fdb f478      	BRSH _0x204006B
001fdc ff17      	SBRS R17,7
001fdd c008      	RJMP _0x204006C
001fde ff12      	SBRS R17,2
001fdf c004      	RJMP _0x204006D
001fe0 7f1b      	ANDI R17,LOW(251)
001fe1 2f35      	MOV  R19,R21
001fe2 5001      	SUBI R16,LOW(1)
001fe3 c001      	RJMP _0x204006E
                 _0x204006D:
001fe4 e330      	LDI  R19,LOW(48)
                 _0x204006E:
001fe5 c001      	RJMP _0x204006F
                 _0x204006C:
001fe6 e230      	LDI  R19,LOW(32)
                 _0x204006F:
001fe7 940e 260c 	CALL SUBOPT_0xB4
001fe9 5041      	SUBI R20,LOW(1)
001fea cfef      	RJMP _0x2040069
                 _0x204006B:
                 _0x2040068:
001feb 2f20      	MOV  R18,R16
001fec ff11      	SBRS R17,1
001fed c017      	RJMP _0x2040070
                 _0x2040071:
001fee 3020      	CPI  R18,0
001fef f0a1      	BREQ _0x2040073
001ff0 ff13      	SBRS R17,3
001ff1 c006      	RJMP _0x2040074
001ff2 81ee      	LDD  R30,Y+6
001ff3 81ff      	LDD  R31,Y+6+1
001ff4 9135      	LPM  R19,Z+
001ff5 83ee      	STD  Y+6,R30
001ff6 83ff      	STD  Y+6+1,R31
001ff7 c005      	RJMP _0x2040075
                 _0x2040074:
001ff8 81ae      	LDD  R26,Y+6
001ff9 81bf      	LDD  R27,Y+6+1
001ffa 913d      	LD   R19,X+
001ffb 83ae      	STD  Y+6,R26
001ffc 83bf      	STD  Y+6+1,R27
                 _0x2040075:
001ffd 940e 260c 	CALL SUBOPT_0xB4
001fff 3040      	CPI  R20,0
002000 f009      	BREQ _0x2040076
002001 5041      	SUBI R20,LOW(1)
                 _0x2040076:
002002 5021      	SUBI R18,LOW(1)
002003 cfea      	RJMP _0x2040071
                 _0x2040073:
002004 c04b      	RJMP _0x2040077
                 _0x2040070:
                 _0x2040079:
002005 e330      	LDI  R19,LOW(48)
002006 81ee      	LDD  R30,Y+6
002007 81ff      	LDD  R31,Y+6+1
002008 940e 27c4 	CALL __GETW1PF
00200a 87e8      	STD  Y+8,R30
00200b 87f9      	STD  Y+8+1,R31
00200c 81ee      	LDD  R30,Y+6
00200d 81ff      	LDD  R31,Y+6+1
00200e 9632      	ADIW R30,2
00200f 83ee      	STD  Y+6,R30
002010 83ff      	STD  Y+6+1,R31
                 _0x204007B:
002011 85e8      	LDD  R30,Y+8
002012 85f9      	LDD  R31,Y+8+1
002013 85aa      	LDD  R26,Y+10
002014 85bb      	LDD  R27,Y+10+1
002015 17ae      	CP   R26,R30
002016 07bf      	CPC  R27,R31
002017 f050      	BRLO _0x204007D
002018 5f3f      	SUBI R19,-LOW(1)
002019 85a8      	LDD  R26,Y+8
00201a 85b9      	LDD  R27,Y+8+1
00201b 85ea      	LDD  R30,Y+10
00201c 85fb      	LDD  R31,Y+10+1
00201d 1bea      	SUB  R30,R26
00201e 0bfb      	SBC  R31,R27
00201f 87ea      	STD  Y+10,R30
002020 87fb      	STD  Y+10+1,R31
002021 cfef      	RJMP _0x204007B
                 _0x204007D:
002022 333a      	CPI  R19,58
002023 f028      	BRLO _0x204007E
002024 ff13      	SBRS R17,3
002025 c002      	RJMP _0x204007F
002026 5f39      	SUBI R19,-LOW(7)
002027 c001      	RJMP _0x2040080
                 _0x204007F:
002028 5d39      	SUBI R19,-LOW(39)
                 _0x2040080:
                 _0x204007E:
002029 fd14      	SBRC R17,4
00202a c01a      	RJMP _0x2040082
00202b 3331      	CPI  R19,49
00202c f420      	BRSH _0x2040084
00202d 85a8      	LDD  R26,Y+8
00202e 85b9      	LDD  R27,Y+8+1
00202f 9711      	SBIW R26,1
002030 f409      	BRNE _0x2040083
                 _0x2040084:
002031 c009      	RJMP _0x20400F6
                 _0x2040083:
002032 1742      	CP   R20,R18
002033 f010      	BRLO _0x2040088
002034 ff10      	SBRS R17,0
002035 c001      	RJMP _0x2040089
                 _0x2040088:
002036 c013      	RJMP _0x2040087
                 _0x2040089:
002037 e230      	LDI  R19,LOW(32)
002038 ff17      	SBRS R17,7
002039 c00b      	RJMP _0x204008A
00203a e330      	LDI  R19,LOW(48)
                 _0x20400F6:
00203b 6110      	ORI  R17,LOW(16)
00203c ff12      	SBRS R17,2
00203d c007      	RJMP _0x204008B
00203e 7f1b      	ANDI R17,LOW(251)
00203f 935a      	ST   -Y,R21
002040 940e 2619 	CALL SUBOPT_0xB6
002042 3040      	CPI  R20,0
002043 f009      	BREQ _0x204008C
002044 5041      	SUBI R20,LOW(1)
                 _0x204008C:
                 _0x204008B:
                 _0x204008A:
                 _0x2040082:
002045 940e 260c 	CALL SUBOPT_0xB4
002047 3040      	CPI  R20,0
002048 f009      	BREQ _0x204008D
002049 5041      	SUBI R20,LOW(1)
                 _0x204008D:
                 _0x2040087:
00204a 5021      	SUBI R18,LOW(1)
00204b 85a8      	LDD  R26,Y+8
00204c 85b9      	LDD  R27,Y+8+1
00204d 9712      	SBIW R26,2
00204e f008      	BRLO _0x204007A
00204f cfb5      	RJMP _0x2040079
                 _0x204007A:
                 _0x2040077:
002050 ff10      	SBRS R17,0
002051 c008      	RJMP _0x204008E
                 _0x204008F:
002052 3040      	CPI  R20,0
002053 f031      	BREQ _0x2040091
002054 5041      	SUBI R20,LOW(1)
002055 e2e0      	LDI  R30,LOW(32)
002056 93ea      	ST   -Y,R30
002057 940e 2619 	CALL SUBOPT_0xB6
002059 cff8      	RJMP _0x204008F
                 _0x2040091:
                 _0x204008E:
                 _0x2040092:
                 _0x2040051:
                 _0x20400F5:
00205a e000      	LDI  R16,LOW(0)
                 _0x204003C:
00205b ced6      	RJMP _0x2040037
                 _0x2040039:
00205c 85ac      	LDD  R26,Y+12
00205d 85bd      	LDD  R27,Y+12+1
00205e 940e 27ab 	CALL __GETW1P
002060 940e 280e 	CALL __LOADLOCR6
002062 9664      	ADIW R28,20
002063 9508      	RET
                 ; .FEND
                 _sprintf:
                 ; .FSTART _sprintf
002064 92ff      	PUSH R15
002065 2ef8      	MOV  R15,R24
002066 9726      	SBIW R28,6
002067 940e 2809 	CALL __SAVELOCR4
002069 01de      	MOVW R26,R28
00206a 961c      	ADIW R26,12
00206b 940e 2627 	CALL SUBOPT_0xB8
00206d 9730      	SBIW R30,0
00206e f419      	BRNE _0x2040093
00206f efef      	LDI  R30,LOW(65535)
002070 efff      	LDI  R31,HIGH(65535)
002071 c023      	RJMP _0x20A0002
                 _0x2040093:
002072 01de      	MOVW R26,R28
002073 9616      	ADIW R26,6
002074 940e 26d8 	CALL __ADDW2R15
002076 018d      	MOVW R16,R26
002077 01de      	MOVW R26,R28
002078 961c      	ADIW R26,12
002079 940e 26d8 	CALL __ADDW2R15
00207b 940e 2486 	CALL SUBOPT_0x7A
00207d e0e0      	LDI  R30,LOW(0)
00207e 87e8      	STD  Y+8,R30
00207f 87e9      	STD  Y+8+1,R30
002080 01de      	MOVW R26,R28
002081 961a      	ADIW R26,10
002082 940e 2627 	CALL SUBOPT_0xB8
002084 93fa      	ST   -Y,R31
002085 93ea      	ST   -Y,R30
002086 931a      	ST   -Y,R17
002087 930a      	ST   -Y,R16
002088 efe0      	LDI  R30,LOW(_put_buff_G102)
002089 e1fe      	LDI  R31,HIGH(_put_buff_G102)
00208a 93fa      	ST   -Y,R31
00208b 93ea      	ST   -Y,R30
00208c 01de      	MOVW R26,R28
00208d 961a      	ADIW R26,10
00208e de99      	RCALL __print_G102
00208f 019f      	MOVW R18,R30
002090 81ae      	LDD  R26,Y+6
002091 81bf      	LDD  R27,Y+6+1
002092 e0e0      	LDI  R30,LOW(0)
002093 93ec      	ST   X,R30
002094 01f9      	MOVW R30,R18
                 _0x20A0002:
002095 940e 2810 	CALL __LOADLOCR4
002097 962a      	ADIW R28,10
002098 90ff      	POP  R15
002099 9508      	RET
                 ; .FEND
                 _printf:
                 ; .FSTART _printf
00209a 92ff      	PUSH R15
00209b 2ef8      	MOV  R15,R24
00209c 9726      	SBIW R28,6
00209d 931a      	ST   -Y,R17
00209e 930a      	ST   -Y,R16
00209f 01de      	MOVW R26,R28
0020a0 9614      	ADIW R26,4
0020a1 940e 26d8 	CALL __ADDW2R15
0020a3 018d      	MOVW R16,R26
0020a4 e0e0      	LDI  R30,LOW(0)
0020a5 83ec      	STD  Y+4,R30
0020a6 83ed      	STD  Y+4+1,R30
0020a7 83ee      	STD  Y+6,R30
0020a8 83ef      	STD  Y+6+1,R30
0020a9 01de      	MOVW R26,R28
0020aa 9618      	ADIW R26,8
0020ab 940e 2627 	CALL SUBOPT_0xB8
0020ad 93fa      	ST   -Y,R31
0020ae 93ea      	ST   -Y,R30
0020af 931a      	ST   -Y,R17
0020b0 930a      	ST   -Y,R16
0020b1 eee6      	LDI  R30,LOW(_put_usart_G102)
0020b2 e1fe      	LDI  R31,HIGH(_put_usart_G102)
0020b3 93fa      	ST   -Y,R31
0020b4 93ea      	ST   -Y,R30
0020b5 01de      	MOVW R26,R28
0020b6 9618      	ADIW R26,8
0020b7 de70      	RCALL __print_G102
0020b8 8119      	LDD  R17,Y+1
0020b9 8108      	LDD  R16,Y+0
0020ba 9628      	ADIW R28,8
0020bb 90ff      	POP  R15
0020bc 9508      	RET
                 ; .FEND
                 
                 	.CSEG
                 _memcmp:
                 ; .FSTART _memcmp
0020bd 93ba      	ST   -Y,R27
0020be 93aa      	ST   -Y,R26
0020bf 2766          clr  r22
0020c0 2777          clr  r23
0020c1 9189          ld   r24,y+
0020c2 9199          ld   r25,y+
0020c3 91e9          ld   r30,y+
0020c4 91f9          ld   r31,y+
0020c5 91a9          ld   r26,y+
0020c6 91b9          ld   r27,y+
                 memcmp0:
0020c7 9600          adiw r24,0
0020c8 f029          breq memcmp1
0020c9 9701          sbiw r24,1
0020ca 916d          ld   r22,x+
0020cb 9171          ld   r23,z+
0020cc 1767          cp   r22,r23
0020cd f3c9          breq memcmp0
                 memcmp1:
0020ce 1b67          sub  r22,r23
0020cf f410          brcc memcmp2
0020d0 efef          ldi  r30,-1
0020d1 9508          ret
                 memcmp2:
0020d2 e0e0          ldi  r30,0
0020d3 f009          breq memcmp3
0020d4 95e3          inc  r30
                 memcmp3:
0020d5 9508          ret
                 ; .FEND
                 _memcpy:
                 ; .FSTART _memcpy
0020d6 93ba      	ST   -Y,R27
0020d7 93aa      	ST   -Y,R26
0020d8 8199          ldd  r25,y+1
0020d9 8188          ld   r24,y
0020da 9600          adiw r24,0
0020db f041          breq memcpy1
0020dc 81bd          ldd  r27,y+5
0020dd 81ac          ldd  r26,y+4
0020de 81fb          ldd  r31,y+3
0020df 81ea          ldd  r30,y+2
                 memcpy0:
0020e0 9161          ld   r22,z+
0020e1 936d          st   x+,r22
0020e2 9701          sbiw r24,1
0020e3 f7e1          brne memcpy0
                 memcpy1:
0020e4 81fd          ldd  r31,y+5
0020e5 81ec          ldd  r30,y+4
0020e6 9626      	ADIW R28,6
0020e7 9508      	RET
                 ; .FEND
                 _memset:
                 ; .FSTART _memset
0020e8 93ba      	ST   -Y,R27
0020e9 93aa      	ST   -Y,R26
0020ea 81b9          ldd  r27,y+1
0020eb 81a8          ld   r26,y
0020ec 9610          adiw r26,0
0020ed f031          breq memset1
0020ee 81fc          ldd  r31,y+4
0020ef 81eb          ldd  r30,y+3
0020f0 816a          ldd  r22,y+2
                 memset0:
0020f1 9361          st   z+,r22
0020f2 9711          sbiw r26,1
0020f3 f7e9          brne memset0
                 memset1:
0020f4 81eb          ldd  r30,y+3
0020f5 81fc          ldd  r31,y+4
                 _0x20A0001:
0020f6 9625      	ADIW R28,5
0020f7 9508      	RET
                 ; .FEND
                 _strcat:
                 ; .FSTART _strcat
0020f8 93ba      	ST   -Y,R27
0020f9 93aa      	ST   -Y,R26
0020fa 91e9          ld   r30,y+
0020fb 91f9          ld   r31,y+
0020fc 91a9          ld   r26,y+
0020fd 91b9          ld   r27,y+
0020fe 01cd          movw r24,r26
                 strcat0:
0020ff 916d          ld   r22,x+
002100 2366          tst  r22
002101 f7e9          brne strcat0
002102 9711          sbiw r26,1
                 strcat1:
002103 9161          ld   r22,z+
002104 936d          st   x+,r22
002105 2366          tst  r22
002106 f7e1          brne strcat1
002107 01fc          movw r30,r24
002108 9508          ret
                 ; .FEND
                 _strlen:
                 ; .FSTART _strlen
002109 93ba      	ST   -Y,R27
00210a 93aa      	ST   -Y,R26
00210b 91a9          ld   r26,y+
00210c 91b9          ld   r27,y+
00210d 27ee          clr  r30
00210e 27ff          clr  r31
                 strlen0:
00210f 916d          ld   r22,x+
002110 2366          tst  r22
002111 f011          breq strlen1
002112 9631          adiw r30,1
002113 cffb          rjmp strlen0
                 strlen1:
002114 9508          ret
                 ; .FEND
                 _strlenf:
                 ; .FSTART _strlenf
002115 93ba      	ST   -Y,R27
002116 93aa      	ST   -Y,R26
002117 27aa          clr  r26
002118 27bb          clr  r27
002119 91e9          ld   r30,y+
00211a 91f9          ld   r31,y+
                 strlenf0:
00211b 9005      	lpm  r0,z+
00211c 2000          tst  r0
00211d f011          breq strlenf1
00211e 9611          adiw r26,1
00211f cffb          rjmp strlenf0
                 strlenf1:
002120 01fd          movw r30,r26
002121 9508          ret
                 ; .FEND
                 
                 	.CSEG
                 
                 	.DSEG
                 _prtc_get_time:
000a34           	.BYTE 0x2
                 _prtc_get_date:
000a36           	.BYTE 0x2
                 _cursor:
000a38           	.BYTE 0x1
                 _time_count_all:
000a39           	.BYTE 0x2
                 _time_count_ciph:
000a3b           	.BYTE 0x2
                 _br:
000a3d           	.BYTE 0x2
                 _n:
000a3f           	.BYTE 0x2
                 _i:
000a41           	.BYTE 0x1
                 _option:
000a42           	.BYTE 0x1
                 _key_set:
000a43           	.BYTE 0x1
                 _file_name:
000a44           	.BYTE 0x32
                 _key:
000a76           	.BYTE 0x10
                 _expanded_key:
000a86           	.BYTE 0xB0
                 _aux:
000b36           	.BYTE 0x14
                 _buffer_in:
000b4a           	.BYTE 0x200
                 _buffer_out:
000d4a           	.BYTE 0x200
                 _status_G100:
000f4a           	.BYTE 0x1
                 _timer1_G100:
000f4b           	.BYTE 0x1
                 _timer2_G100:
000f4c           	.BYTE 0x1
                 _card_type_G100:
000f4d           	.BYTE 0x1
                 _flags_S100000C000:
000f4e           	.BYTE 0x1
                 _FatFs_G101:
000f4f           	.BYTE 0x2
                 _Fsid_G101:
000f51           	.BYTE 0x2
                 _Drive_G101:
000f53           	.BYTE 0x1
                 
                 	.CSEG
                 ;OPTIMIZER ADDED SUBROUTINE, CALLED 5 TIMES, CODE SIZE REDUCTION:5 WORDS
                 SUBOPT_0x0:
002122 e0a2      	LDI  R26,LOW(2)
002123 e0b0      	LDI  R27,0
002124 940c 262c 	JMP  _delay_ms
                 
                 ;OPTIMIZER ADDED SUBROUTINE, CALLED 17 TIMES, CODE SIZE REDUCTION:29 WORDS
                 SUBOPT_0x1:
002126 01de      	MOVW R26,R28
002127 9611      	ADIW R26,1
002128 0fae      	ADD  R26,R30
002129 1fbf      	ADC  R27,R31
00212a 9508      	RET
                 
                 ;OPTIMIZER ADDED SUBROUTINE, CALLED 3 TIMES, CODE SIZE REDUCTION:1 WORDS
                 SUBOPT_0x2:
00212b 940e 0645 	CALL _SendDataBitsLCD
00212d 940c 0642 	JMP  _PulseEn
                 
                 ;OPTIMIZER ADDED SUBROUTINE, CALLED 2 TIMES, CODE SIZE REDUCTION:3 WORDS
                 SUBOPT_0x3:
00212f 81e9      	LDD  R30,Y+1
002130 7fe0      	ANDI R30,LOW(0xF0)
002131 2f0e      	MOV  R16,R30
002132 9502      	SWAP R16
002133 700f      	ANDI R16,0xF
002134 2fa0      	MOV  R26,R16
002135 cff5      	RJMP SUBOPT_0x2
                 
                 ;OPTIMIZER ADDED SUBROUTINE, CALLED 2 TIMES, CODE SIZE REDUCTION:3 WORDS
                 SUBOPT_0x4:
002136 81e9      	LDD  R30,Y+1
002137 70ef      	ANDI R30,LOW(0xF)
002138 2f0e      	MOV  R16,R30
002139 2fa0      	MOV  R26,R16
00213a 940e 0645 	CALL _SendDataBitsLCD
00213c cfe5      	RJMP SUBOPT_0x0
                 
                 ;OPTIMIZER ADDED SUBROUTINE, CALLED 4 TIMES, CODE SIZE REDUCTION:3 WORDS
                 SUBOPT_0x5:
00213d 93ba      	ST   -Y,R27
00213e 93aa      	ST   -Y,R26
00213f 930a      	ST   -Y,R16
002140 e000      	LDI  R16,LOW(0)
002141 9508      	RET
                 
                 ;OPTIMIZER ADDED SUBROUTINE, CALLED 3 TIMES, CODE SIZE REDUCTION:3 WORDS
                 SUBOPT_0x6:
002142 81a9      	LDD  R26,Y+1
002143 81ba      	LDD  R27,Y+1+1
002144 e0f0      	LDI  R31,0
002145 0fea      	ADD  R30,R26
002146 1ffb      	ADC  R31,R27
002147 9508      	RET
                 
                 ;OPTIMIZER ADDED SUBROUTINE, CALLED 3 TIMES, CODE SIZE REDUCTION:5 WORDS
                 SUBOPT_0x7:
002148 81a9      	LDD  R26,Y+1
002149 81ba      	LDD  R27,Y+1+1
00214a 27ee      	CLR  R30
00214b 0fa0      	ADD  R26,R16
00214c 1fbe      	ADC  R27,R30
00214d 91ec      	LD   R30,X
00214e 9508      	RET
                 
                 ;OPTIMIZER ADDED SUBROUTINE, CALLED 6 TIMES, CODE SIZE REDUCTION:7 WORDS
                 SUBOPT_0x8:
00214f 940e 27ec 	CALL __SWAPW12
002151 1bea      	SUB  R30,R26
002152 0bfb      	SBC  R31,R27
002153 9508      	RET
                 
                 ;OPTIMIZER ADDED SUBROUTINE, CALLED 5 TIMES, CODE SIZE REDUCTION:5 WORDS
                 SUBOPT_0x9:
002154 27ee      	CLR  R30
002155 0fa0      	ADD  R26,R16
002156 1fbe      	ADC  R27,R30
002157 91ec      	LD   R30,X
002158 9508      	RET
                 
                 ;OPTIMIZER ADDED SUBROUTINE, CALLED 3 TIMES, CODE SIZE REDUCTION:1 WORDS
                 SUBOPT_0xA:
002159 93ba      	ST   -Y,R27
00215a 93aa      	ST   -Y,R26
00215b 931a      	ST   -Y,R17
00215c 930a      	ST   -Y,R16
00215d 9508      	RET
                 
                 ;OPTIMIZER ADDED SUBROUTINE, CALLED 2 TIMES, CODE SIZE REDUCTION:1 WORDS
                 SUBOPT_0xB:
00215e 81aa      	LDD  R26,Y+2
00215f 81bb      	LDD  R27,Y+2+1
002160 e0f0      	LDI  R31,0
002161 0fea      	ADD  R30,R26
002162 1ffb      	ADC  R31,R27
002163 010f      	MOVW R0,R30
002164 9508      	RET
                 
                 ;OPTIMIZER ADDED SUBROUTINE, CALLED 3 TIMES, CODE SIZE REDUCTION:1 WORDS
                 SUBOPT_0xC:
002165 0fae      	ADD  R26,R30
002166 1fbf      	ADC  R27,R31
002167 91ec      	LD   R30,X
002168 01d0      	MOVW R26,R0
002169 9508      	RET
                 
                 ;OPTIMIZER ADDED SUBROUTINE, CALLED 2 TIMES, CODE SIZE REDUCTION:1 WORDS
                 SUBOPT_0xD:
00216a e0f0      	LDI  R31,0
00216b 56e8      	SUBI R30,LOW(-_sbox*2)
00216c 4fff      	SBCI R31,HIGH(-_sbox*2)
00216d 91e4      	LPM  R30,Z
00216e 01d0      	MOVW R26,R0
00216f 93ec      	ST   X,R30
002170 9508      	RET
                 
                 ;OPTIMIZER ADDED SUBROUTINE, CALLED 3 TIMES, CODE SIZE REDUCTION:1 WORDS
                 SUBOPT_0xE:
002171 e0f0      	LDI  R31,0
002172 0fea      	ADD  R30,R26
002173 1ffb      	ADC  R31,R27
002174 010f      	MOVW R0,R30
002175 9508      	RET
                 
                 ;OPTIMIZER ADDED SUBROUTINE, CALLED 5 TIMES, CODE SIZE REDUCTION:5 WORDS
                 SUBOPT_0xF:
002176 01fe      	MOVW R30,R28
002177 9633      	ADIW R30,3
002178 93fa      	ST   -Y,R31
002179 93ea      	ST   -Y,R30
00217a 9508      	RET
                 
                 ;OPTIMIZER ADDED SUBROUTINE, CALLED 5 TIMES, CODE SIZE REDUCTION:5 WORDS
                 SUBOPT_0x10:
00217b 91ec      	LD   R30,X
00217c 25e0      	EOR  R30,R0
00217d 01db      	MOVW R26,R22
00217e 93ec      	ST   X,R30
00217f 9508      	RET
                 
                 ;OPTIMIZER ADDED SUBROUTINE, CALLED 2 TIMES, CODE SIZE REDUCTION:1 WORDS
                 SUBOPT_0x11:
002180 93ba      	ST   -Y,R27
002181 93aa      	ST   -Y,R26
002182 9760      	SBIW R28,16
002183 931a      	ST   -Y,R17
002184 930a      	ST   -Y,R16
002185 e000      	LDI  R16,LOW(0)
002186 9508      	RET
                 
                 ;OPTIMIZER ADDED SUBROUTINE, CALLED 2 TIMES, CODE SIZE REDUCTION:6 WORDS
                 SUBOPT_0x12:
002187 2fe0      	MOV  R30,R16
002188 e0f0      	LDI  R31,0
002189 01de      	MOVW R26,R28
00218a 9612      	ADIW R26,2
00218b 0fea      	ADD  R30,R26
00218c 1ffb      	ADC  R31,R27
00218d 010f      	MOVW R0,R30
00218e 89aa      	LDD  R26,Y+18
00218f 89bb      	LDD  R27,Y+18+1
002190 cfc3      	RJMP SUBOPT_0x9
                 
                 ;OPTIMIZER ADDED SUBROUTINE, CALLED 2 TIMES, CODE SIZE REDUCTION:1 WORDS
                 SUBOPT_0x13:
002191 2fe1      	MOV  R30,R17
002192 e0f0      	LDI  R31,0
002193 e0a4      	LDI  R26,LOW(4)
002194 e0b0      	LDI  R27,HIGH(4)
002195 cfb9      	RJMP SUBOPT_0x8
                 
                 ;OPTIMIZER ADDED SUBROUTINE, CALLED 4 TIMES, CODE SIZE REDUCTION:18 WORDS
                 SUBOPT_0x14:
002196 010f      	MOVW R0,R30
002197 89a9      	LDD  R26,Y+17
002198 89ba      	LDD  R27,Y+17+1
002199 0fea      	ADD  R30,R26
00219a 1ffb      	ADC  R31,R27
00219b 01bf      	MOVW R22,R30
00219c 01f0      	MOVW R30,R0
00219d cf88      	RJMP SUBOPT_0x1
                 
                 ;OPTIMIZER ADDED SUBROUTINE, CALLED 4 TIMES, CODE SIZE REDUCTION:12 WORDS
                 SUBOPT_0x15:
00219e 91ec      	LD   R30,X
00219f e0f0      	LDI  R31,0
0021a0 55ec      	SUBI R30,LOW(-_x2*2)
0021a1 4ffd      	SBCI R31,HIGH(-_x2*2)
0021a2 9004      	LPM  R0,Z
0021a3 2fe0      	MOV  R30,R16
0021a4 e0f0      	LDI  R31,0
0021a5 9508      	RET
                 
                 ;OPTIMIZER ADDED SUBROUTINE, CALLED 4 TIMES, CODE SIZE REDUCTION:15 WORDS
                 SUBOPT_0x16:
0021a6 91ec      	LD   R30,X
0021a7 e0f0      	LDI  R31,0
0021a8 55ec      	SUBI R30,LOW(-_x3*2)
0021a9 4ffc      	SBCI R31,HIGH(-_x3*2)
0021aa 91e4      	LPM  R30,Z
0021ab 260e      	EOR  R0,R30
0021ac 2fe0      	MOV  R30,R16
0021ad e0f0      	LDI  R31,0
0021ae 9508      	RET
                 
                 ;OPTIMIZER ADDED SUBROUTINE, CALLED 4 TIMES, CODE SIZE REDUCTION:3 WORDS
                 SUBOPT_0x17:
0021af 91ec      	LD   R30,X
0021b0 260e      	EOR  R0,R30
0021b1 2fe0      	MOV  R30,R16
0021b2 e0f0      	LDI  R31,0
0021b3 9508      	RET
                 
                 ;OPTIMIZER ADDED SUBROUTINE, CALLED 3 TIMES, CODE SIZE REDUCTION:5 WORDS
                 SUBOPT_0x18:
0021b4 89e9      	LDD  R30,Y+17
0021b5 89fa      	LDD  R31,Y+17+1
0021b6 93fa      	ST   -Y,R31
0021b7 93ea      	ST   -Y,R30
0021b8 cfbd      	RJMP SUBOPT_0xF
                 
                 ;OPTIMIZER ADDED SUBROUTINE, CALLED 3 TIMES, CODE SIZE REDUCTION:21 WORDS
                 SUBOPT_0x19:
0021b9 940e 06b9 	CALL __sub_array
0021bb 01de      	MOVW R26,R28
0021bc 9611      	ADIW R26,1
0021bd 940e 0776 	CALL __rotate_key
0021bf 89eb      	LDD  R30,Y+19
0021c0 89fc      	LDD  R31,Y+19+1
0021c1 93fa      	ST   -Y,R31
0021c2 93ea      	ST   -Y,R30
0021c3 01de      	MOVW R26,R28
0021c4 9613      	ADIW R26,3
0021c5 940c 0884 	JMP  __add_round_key
                 
                 ;OPTIMIZER ADDED SUBROUTINE, CALLED 2 TIMES, CODE SIZE REDUCTION:3 WORDS
                 SUBOPT_0x1A:
0021c7 89ab      	LDD  R26,Y+19
0021c8 89bc      	LDD  R27,Y+19+1
0021c9 940e 07a6 	CALL __sub_bytes
0021cb 89ab      	LDD  R26,Y+19
0021cc 89bc      	LDD  R27,Y+19+1
0021cd 940c 07b7 	JMP  __shift_rows
                 
                 ;OPTIMIZER ADDED SUBROUTINE, CALLED 2 TIMES, CODE SIZE REDUCTION:3 WORDS
                 SUBOPT_0x1B:
0021cf a5eb      	LDD  R30,Y+43
0021d0 a5fc      	LDD  R31,Y+43+1
0021d1 70ef      	ANDI R30,LOW(0xF)
0021d2 70f0      	ANDI R31,HIGH(0xF)
0021d3 e1a0      	LDI  R26,LOW(16)
0021d4 e0b0      	LDI  R27,HIGH(16)
0021d5 cf79      	RJMP SUBOPT_0x8
                 
                 ;OPTIMIZER ADDED SUBROUTINE, CALLED 2 TIMES, CODE SIZE REDUCTION:1 WORDS
                 SUBOPT_0x1C:
0021d6 93aa      	ST   -Y,R26
0021d7 93ba      	ST   -Y,R27
0021d8 93ea      	ST   -Y,R30
0021d9 93fa      	ST   -Y,R31
0021da b7ef      	IN   R30,SREG
0021db 93ea      	ST   -Y,R30
0021dc 9508      	RET
                 
                 ;OPTIMIZER ADDED SUBROUTINE, CALLED 2 TIMES, CODE SIZE REDUCTION:3 WORDS
                 SUBOPT_0x1D:
0021dd 940e 095e 	CALL _stop_timer_all
0021df 940e 096b 	CALL _stop_timer_ciph
0021e1 940e 0956 	CALL _reset_timer_all
0021e3 940c 0964 	JMP  _reset_timer_ciph
                 
                 ;OPTIMIZER ADDED SUBROUTINE, CALLED 6 TIMES, CODE SIZE REDUCTION:12 WORDS
                 SUBOPT_0x1E:
0021e5 e0e0      	LDI  R30,LOW(0)
0021e6 93ea      	ST   -Y,R30
0021e7 e0a0      	LDI  R26,LOW(0)
0021e8 940c 069a 	JMP  _MoveCursor
                 
                 ;OPTIMIZER ADDED SUBROUTINE, CALLED 7 TIMES, CODE SIZE REDUCTION:21 WORDS
                 SUBOPT_0x1F:
0021ea 940e 0678 	CALL _StringLCD
0021ec edac      	LDI  R26,LOW(1500)
0021ed e0b5      	LDI  R27,HIGH(1500)
0021ee 940c 262c 	JMP  _delay_ms
                 
                 ;OPTIMIZER ADDED SUBROUTINE, CALLED 3 TIMES, CODE SIZE REDUCTION:13 WORDS
                 SUBOPT_0x20:
0021f0 940e 1ea5 	CALL _puts
0021f2 e4e4      	LDI  R30,LOW(_file_name)
0021f3 e0fa      	LDI  R31,HIGH(_file_name)
0021f4 93fa      	ST   -Y,R31
0021f5 93ea      	ST   -Y,R30
0021f6 e6a4      	LDI  R26,LOW(100)
0021f7 e0b0      	LDI  R27,0
0021f8 940c 1eb7 	JMP  _gets
                 
                 ;OPTIMIZER ADDED SUBROUTINE, CALLED 5 TIMES, CODE SIZE REDUCTION:9 WORDS
                 SUBOPT_0x21:
0021fa 01fe      	MOVW R30,R28
0021fb 5ee0      	SUBI R30,LOW(-(544))
0021fc 4ffd      	SBCI R31,HIGH(-(544))
0021fd 93fa      	ST   -Y,R31
0021fe 93ea      	ST   -Y,R30
0021ff 9508      	RET
                 
                 ;OPTIMIZER ADDED SUBROUTINE, CALLED 5 TIMES, CODE SIZE REDUCTION:5 WORDS
                 SUBOPT_0x22:
002200 e4e4      	LDI  R30,LOW(_file_name)
002201 e0fa      	LDI  R31,HIGH(_file_name)
002202 93fa      	ST   -Y,R31
002203 93ea      	ST   -Y,R30
002204 9508      	RET
                 
                 ;OPTIMIZER ADDED SUBROUTINE, CALLED 3 TIMES, CODE SIZE REDUCTION:3 WORDS
                 SUBOPT_0x23:
002205 e1a3      	LDI  R26,LOW(19)
002206 940e 19a8 	CALL _f_open
002208 2f0e      	MOV  R16,R30
002209 3000      	CPI  R16,0
00220a 9508      	RET
                 
                 ;OPTIMIZER ADDED SUBROUTINE, CALLED 4 TIMES, CODE SIZE REDUCTION:3 WORDS
                 SUBOPT_0x24:
00220b e4ea      	LDI  R30,LOW(_buffer_in)
00220c e0fb      	LDI  R31,HIGH(_buffer_in)
00220d 93fa      	ST   -Y,R31
00220e 93ea      	ST   -Y,R30
00220f 9508      	RET
                 
                 ;OPTIMIZER ADDED SUBROUTINE, CALLED 2 TIMES, CODE SIZE REDUCTION:3 WORDS
                 SUBOPT_0x25:
002210 e0e0      	LDI  R30,LOW(256)
002211 e0f1      	LDI  R31,HIGH(256)
002212 93fa      	ST   -Y,R31
002213 93ea      	ST   -Y,R30
002214 e3ad      	LDI  R26,LOW(_br)
002215 e0ba      	LDI  R27,HIGH(_br)
002216 940c 1ae3 	JMP  _f_read
                 
                 ;OPTIMIZER ADDED SUBROUTINE, CALLED 5 TIMES, CODE SIZE REDUCTION:9 WORDS
                 SUBOPT_0x26:
002218 91ed      	LD   R30,X+
002219 91fd      	LD   R31,X+
00221a 9631      	ADIW R30,1
00221b 93fe      	ST   -X,R31
00221c 93ee      	ST   -X,R30
00221d 9508      	RET
                 
                 ;OPTIMIZER ADDED SUBROUTINE, CALLED 3 TIMES, CODE SIZE REDUCTION:19 WORDS
                 SUBOPT_0x27:
00221e 93fa      	ST   -Y,R31
00221f 93ea      	ST   -Y,R30
002220 91a0 0a3f 	LDS  R26,_n
002222 91b0 0a40 	LDS  R27,_n+1
002224 e1e0      	LDI  R30,LOW(16)
002225 940e 275f 	CALL __MULB1W2U
002227 2766      	CLR  R22
002228 2777      	CLR  R23
002229 940e 27dc 	CALL __PUTPARD1
00222b 9508      	RET
                 
                 ;OPTIMIZER ADDED SUBROUTINE, CALLED 5 TIMES, CODE SIZE REDUCTION:9 WORDS
                 SUBOPT_0x28:
00222c e0e0      	LDI  R30,LOW(0)
00222d 93ea      	ST   -Y,R30
00222e e0a1      	LDI  R26,LOW(1)
00222f 940c 069a 	JMP  _MoveCursor
                 
                 ;OPTIMIZER ADDED SUBROUTINE, CALLED 3 TIMES, CODE SIZE REDUCTION:1 WORDS
                 SUBOPT_0x29:
002231 e084      	LDI  R24,4
002232 940e 209a 	CALL _printf
002234 9626      	ADIW R28,6
002235 9508      	RET
                 
                 ;OPTIMIZER ADDED SUBROUTINE, CALLED 2 TIMES, CODE SIZE REDUCTION:11 WORDS
                 SUBOPT_0x2A:
002236 2766      	CLR  R22
002237 2777      	CLR  R23
002238 940e 2665 	CALL __CDF1
00223a 01df      	MOVW R26,R30
00223b 01cb      	MOVW R24,R22
                +
00223c e6ef     +LDI R30 , LOW ( 0x3A83126F )
00223d e1f2     +LDI R31 , HIGH ( 0x3A83126F )
00223e e863     +LDI R22 , BYTE3 ( 0x3A83126F )
00223f e37a     +LDI R23 , BYTE4 ( 0x3A83126F )
                 	__GETD1N 0x3A83126F
002240 940e 2693 	CALL __DIVF21
002242 940e 27dc 	CALL __PUTPARD1
002244 cfec      	RJMP SUBOPT_0x29
                 
                 ;OPTIMIZER ADDED SUBROUTINE, CALLED 3 TIMES, CODE SIZE REDUCTION:1 WORDS
                 SUBOPT_0x2B:
002245 940e 0697 	CALL _EraseLCD
002247 cfe4      	RJMP SUBOPT_0x28
                 
                 ;OPTIMIZER ADDED SUBROUTINE, CALLED 2 TIMES, CODE SIZE REDUCTION:1 WORDS
                 SUBOPT_0x2C:
002248 940e 1e84 	CALL _f_close
00224a efa4      	LDI  R26,LOW(500)
00224b e0b1      	LDI  R27,HIGH(500)
00224c 940c 262c 	JMP  _delay_ms
                 
                 ;OPTIMIZER ADDED SUBROUTINE, CALLED 3 TIMES, CODE SIZE REDUCTION:1 WORDS
                 SUBOPT_0x2D:
                +
00224e e7af     +LDI R26 , LOW ( 2 * _0x0 + ( 389 ) )
00224f e0ba     +LDI R27 , HIGH ( 2 * _0x0 + ( 389 ) )
                 	__POINTW2FN _0x0,389
002250 940c 0678 	JMP  _StringLCD
                 
                 ;OPTIMIZER ADDED SUBROUTINE, CALLED 3 TIMES, CODE SIZE REDUCTION:3 WORDS
                 SUBOPT_0x2E:
002252 e0f0      	LDI  R31,0
002253 940e 273a 	CALL __CWD1
002255 01df      	MOVW R26,R30
002256 01cb      	MOVW R24,R22
002257 9508      	RET
                 
                 ;OPTIMIZER ADDED SUBROUTINE, CALLED 3 TIMES, CODE SIZE REDUCTION:1 WORDS
                 SUBOPT_0x2F:
                +
002258 83e9     +STD Y + 1 , R30
002259 83fa     +STD Y + 1 + 1 , R31
00225a 836b     +STD Y + 1 + 2 , R22
00225b 837c     +STD Y + 1 + 3 , R23
                 	__PUTD1S 1
00225c 9508      	RET
                 
                 ;OPTIMIZER ADDED SUBROUTINE, CALLED 3 TIMES, CODE SIZE REDUCTION:1 WORDS
                 SUBOPT_0x30:
                +
00225d 81ed     +LDD R30 , Y + 5
00225e 81fe     +LDD R31 , Y + 5 + 1
00225f 816f     +LDD R22 , Y + 5 + 2
002260 8578     +LDD R23 , Y + 5 + 3
                 	__GETD1S 5
002261 9508      	RET
                 
                 ;OPTIMIZER ADDED SUBROUTINE, CALLED 5 TIMES, CODE SIZE REDUCTION:5 WORDS
                 SUBOPT_0x31:
                +
002262 81a9     +LDD R26 , Y + 1
002263 81ba     +LDD R27 , Y + 1 + 1
002264 818b     +LDD R24 , Y + 1 + 2
002265 819c     +LDD R25 , Y + 1 + 3
                 	__GETD2S 1
002266 9508      	RET
                 
                 ;OPTIMIZER ADDED SUBROUTINE, CALLED 2 TIMES, CODE SIZE REDUCTION:13 WORDS
                 SUBOPT_0x32:
002267 85e9      	LDD  R30,Y+9
002268 85fa      	LDD  R31,Y+9+1
002269 81a1      	LDD  R26,Z+1
00226a 93aa      	ST   -Y,R26
00226b 85ea      	LDD  R30,Y+10
00226c 85fb      	LDD  R31,Y+10+1
00226d 96f2      	ADIW R30,50
00226e 93fa      	ST   -Y,R31
00226f 93ea      	ST   -Y,R30
                +
002270 81ec     +LDD R30 , Y + 4
002271 81fd     +LDD R31 , Y + 4 + 1
002272 816e     +LDD R22 , Y + 4 + 2
002273 817f     +LDD R23 , Y + 4 + 3
                 	__GETD1S 4
002274 940e 27dc 	CALL __PUTPARD1
002276 e0a1      	LDI  R26,LOW(1)
002277 940c 0df2 	JMP  _disk_write
                 
                 ;OPTIMIZER ADDED SUBROUTINE, CALLED 3 TIMES, CODE SIZE REDUCTION:1 WORDS
                 SUBOPT_0x33:
                +
002279 a1a2     +LDD R26 , Z + 34
00227a a1b3     +LDD R27 , Z + 34 + 1
00227b a184     +LDD R24 , Z + 34 + 2
00227c a195     +LDD R25 , Z + 34 + 3
                 	__GETD2Z 34
00227d 9508      	RET
                 
                 ;OPTIMIZER ADDED SUBROUTINE, CALLED 4 TIMES, CODE SIZE REDUCTION:3 WORDS
                 SUBOPT_0x34:
                +
00227e 85e8     +LDD R30 , Y + 8
00227f 85f9     +LDD R31 , Y + 8 + 1
002280 856a     +LDD R22 , Y + 8 + 2
002281 857b     +LDD R23 , Y + 8 + 3
                 	__GETD1S 8
002282 9508      	RET
                 
                 ;OPTIMIZER ADDED SUBROUTINE, CALLED 4 TIMES, CODE SIZE REDUCTION:9 WORDS
                 SUBOPT_0x35:
002283 940e 27dc 	CALL __PUTPARD1
002285 e0a1      	LDI  R26,LOW(1)
002286 940e 0d8e 	CALL _disk_read
002288 30e0      	CPI  R30,0
002289 9508      	RET
                 
                 ;OPTIMIZER ADDED SUBROUTINE, CALLED 3 TIMES, CODE SIZE REDUCTION:9 WORDS
                 SUBOPT_0x36:
00228a 93fa      	ST   -Y,R31
00228b 93ea      	ST   -Y,R30
                +
00228c e0a0     +LDI R26 , LOW ( 0x0 )
00228d e0b0     +LDI R27 , HIGH ( 0x0 )
00228e e080     +LDI R24 , BYTE3 ( 0x0 )
00228f e090     +LDI R25 , BYTE4 ( 0x0 )
                 	__GETD2N 0x0
002290 940c 10ca 	JMP  _move_window_G101
                 
                 ;OPTIMIZER ADDED SUBROUTINE, CALLED 2 TIMES, CODE SIZE REDUCTION:2 WORDS
                 SUBOPT_0x37:
002292 969e      	ADIW R26,46
                +
002293 e0e0     +LDI R30 , LOW ( 0x0 )
002294 e0f0     +LDI R31 , HIGH ( 0x0 )
002295 e060     +LDI R22 , BYTE3 ( 0x0 )
002296 e070     +LDI R23 , BYTE4 ( 0x0 )
                 	__GETD1N 0x0
002297 940e 27ba 	CALL __PUTDP1
002299 9508      	RET
                 
                 ;OPTIMIZER ADDED SUBROUTINE, CALLED 2 TIMES, CODE SIZE REDUCTION:4 WORDS
                 SUBOPT_0x38:
00229a 96f2      	ADIW R30,50
00229b 93fa      	ST   -Y,R31
00229c 93ea      	ST   -Y,R30
00229d e0e0      	LDI  R30,LOW(0)
00229e 93ea      	ST   -Y,R30
00229f e0a0      	LDI  R26,LOW(512)
0022a0 e0b2      	LDI  R27,HIGH(512)
0022a1 940c 20e8 	JMP  _memset
                 
                 ;OPTIMIZER ADDED SUBROUTINE, CALLED 2 TIMES, CODE SIZE REDUCTION:2 WORDS
                 SUBOPT_0x39:
0022a3 940e 27d7 	CALL __PUTDZ20
0022a5 81e9      	LDD  R30,Y+1
0022a6 81fa      	LDD  R31,Y+1+1
0022a7 96f2      	ADIW R30,50
0022a8 9508      	RET
                 
                 ;OPTIMIZER ADDED SUBROUTINE, CALLED 2 TIMES, CODE SIZE REDUCTION:2 WORDS
                 SUBOPT_0x3A:
0022a9 940e 27af 	CALL __GETD1P
0022ab 01d0      	MOVW R26,R0
0022ac 940e 27ba 	CALL __PUTDP1
0022ae 81e9      	LDD  R30,Y+1
0022af 81fa      	LDD  R31,Y+1+1
0022b0 9508      	RET
                 
                 ;OPTIMIZER ADDED SUBROUTINE, CALLED 2 TIMES, CODE SIZE REDUCTION:2 WORDS
                 SUBOPT_0x3B:
                +
0022b1 89a2     +LDD R26 , Z + 18
0022b2 89b3     +LDD R27 , Z + 18 + 1
0022b3 8984     +LDD R24 , Z + 18 + 2
0022b4 8995     +LDD R25 , Z + 18 + 3
                 	__GETD2Z 18
0022b5 940e 27e1 	CALL __PUTPARD2
0022b7 e0a1      	LDI  R26,LOW(1)
0022b8 9508      	RET
                 
                 ;OPTIMIZER ADDED SUBROUTINE, CALLED 5 TIMES, CODE SIZE REDUCTION:5 WORDS
                 SUBOPT_0x3C:
                +
0022b9 85a8     +LDD R26 , Y + 8
0022ba 85b9     +LDD R27 , Y + 8 + 1
0022bb 858a     +LDD R24 , Y + 8 + 2
0022bc 859b     +LDD R25 , Y + 8 + 3
                 	__GETD2S 8
0022bd 9508      	RET
                 
                 ;OPTIMIZER ADDED SUBROUTINE, CALLED 7 TIMES, CODE SIZE REDUCTION:27 WORDS
                 SUBOPT_0x3D:
                +
0022be 30a2     +CPI R26 , LOW ( 0x2 )
0022bf e0e0     +LDI R30 , HIGH ( 0x2 )
0022c0 07be     +CPC R27 , R30
0022c1 e0e0     +LDI R30 , BYTE3 ( 0x2 )
0022c2 078e     +CPC R24 , R30
0022c3 e0e0     +LDI R30 , BYTE4 ( 0x2 )
0022c4 079e     +CPC R25 , R30
                 	__CPD2N 0x2
0022c5 9508      	RET
                 
                 ;OPTIMIZER ADDED SUBROUTINE, CALLED 3 TIMES, CODE SIZE REDUCTION:1 WORDS
                 SUBOPT_0x3E:
                +
0022c6 e0e1     +LDI R30 , LOW ( 0x1 )
0022c7 e0f0     +LDI R31 , HIGH ( 0x1 )
0022c8 e060     +LDI R22 , BYTE3 ( 0x1 )
0022c9 e070     +LDI R23 , BYTE4 ( 0x1 )
                 	__GETD1N 0x1
0022ca 9508      	RET
                 
                 ;OPTIMIZER ADDED SUBROUTINE, CALLED 3 TIMES, CODE SIZE REDUCTION:5 WORDS
                 SUBOPT_0x3F:
0022cb 940e 27af 	CALL __GETD1P
                +
0022cd 83ec     +STD Y + 4 , R30
0022ce 83fd     +STD Y + 4 + 1 , R31
0022cf 836e     +STD Y + 4 + 2 , R22
0022d0 837f     +STD Y + 4 + 3 , R23
                 	__PUTD1S 4
0022d1 9508      	RET
                 
                 ;OPTIMIZER ADDED SUBROUTINE, CALLED 2 TIMES, CODE SIZE REDUCTION:15 WORDS
                 SUBOPT_0x40:
0022d2 85ec      	LDD  R30,Y+12
0022d3 85fd      	LDD  R31,Y+12+1
0022d4 93fa      	ST   -Y,R31
0022d5 93ea      	ST   -Y,R30
0022d6 01d9      	MOVW R26,R18
0022d7 e0e0      	LDI  R30,LOW(512)
0022d8 e0f2      	LDI  R31,HIGH(512)
0022d9 940e 2765 	CALL __DIVW21U
                +
0022db 81ae     +LDD R26 , Y + 6
0022dc 81bf     +LDD R27 , Y + 6 + 1
0022dd 8588     +LDD R24 , Y + 6 + 2
0022de 8599     +LDD R25 , Y + 6 + 3
                 	__GETD2S 6
0022df 2766      	CLR  R22
0022e0 2777      	CLR  R23
0022e1 940e 26e1 	CALL __ADDD21
0022e3 940e 10ca 	CALL _move_window_G101
0022e5 30e0      	CPI  R30,0
0022e6 9508      	RET
                 
                 ;OPTIMIZER ADDED SUBROUTINE, CALLED 2 TIMES, CODE SIZE REDUCTION:2 WORDS
                 SUBOPT_0x41:
0022e7 85ac      	LDD  R26,Y+12
0022e8 85bd      	LDD  R27,Y+12+1
0022e9 96d2      	ADIW R26,50
0022ea 01f9      	MOVW R30,R18
0022eb 70f1      	ANDI R31,HIGH(0x1FF)
0022ec 0fae      	ADD  R26,R30
0022ed 1fbf      	ADC  R27,R31
0022ee 9508      	RET
                 
                 ;OPTIMIZER ADDED SUBROUTINE, CALLED 2 TIMES, CODE SIZE REDUCTION:3 WORDS
                 SUBOPT_0x42:
0022ef 85ec      	LDD  R30,Y+12
0022f0 85fd      	LDD  R31,Y+12+1
0022f1 93fa      	ST   -Y,R31
0022f2 93ea      	ST   -Y,R30
                +
0022f3 85aa     +LDD R26 , Y + 10
0022f4 85bb     +LDD R27 , Y + 10 + 1
0022f5 858c     +LDD R24 , Y + 10 + 2
0022f6 859d     +LDD R25 , Y + 10 + 3
                 	__GETD2S 10
0022f7 9508      	RET
                 
                 ;OPTIMIZER ADDED SUBROUTINE, CALLED 2 TIMES, CODE SIZE REDUCTION:1 WORDS
                 SUBOPT_0x43:
                +
0022f8 e0e0     +LDI R30 , LOW ( 0x100 )
0022f9 e0f1     +LDI R31 , HIGH ( 0x100 )
0022fa e060     +LDI R22 , BYTE3 ( 0x100 )
0022fb e070     +LDI R23 , BYTE4 ( 0x100 )
                 	__GETD1N 0x100
0022fc 940e 2778 	CALL __DIVD21U
0022fe 9508      	RET
                 
                 ;OPTIMIZER ADDED SUBROUTINE, CALLED 2 TIMES, CODE SIZE REDUCTION:4 WORDS
                 SUBOPT_0x44:
                +
0022ff 81ae     +LDD R26 , Y + 6
002300 81bf     +LDD R27 , Y + 6 + 1
002301 8588     +LDD R24 , Y + 6 + 2
002302 8599     +LDD R25 , Y + 6 + 3
                 	__GETD2S 6
002303 940e 26e1 	CALL __ADDD21
002305 940e 10ca 	CALL _move_window_G101
002307 30e0      	CPI  R30,0
002308 9508      	RET
                 
                 ;OPTIMIZER ADDED SUBROUTINE, CALLED 2 TIMES, CODE SIZE REDUCTION:3 WORDS
                 SUBOPT_0x45:
002309 940e 275f 	CALL __MULB1W2U
00230b 70f1      	ANDI R31,HIGH(0x1FF)
00230c 85ac      	LDD  R26,Y+12
00230d 85bd      	LDD  R27,Y+12+1
00230e 96d2      	ADIW R26,50
00230f 0fae      	ADD  R26,R30
002310 1fbf      	ADC  R27,R31
002311 9508      	RET
                 
                 ;OPTIMIZER ADDED SUBROUTINE, CALLED 6 TIMES, CODE SIZE REDUCTION:7 WORDS
                 SUBOPT_0x46:
002312 940e 27ab 	CALL __GETW1P
002314 2766      	CLR  R22
002315 2777      	CLR  R23
002316 9508      	RET
                 
                 ;OPTIMIZER ADDED SUBROUTINE, CALLED 2 TIMES, CODE SIZE REDUCTION:1 WORDS
                 SUBOPT_0x47:
                +
002317 e8e0     +LDI R30 , LOW ( 0x80 )
002318 e0f0     +LDI R31 , HIGH ( 0x80 )
002319 e060     +LDI R22 , BYTE3 ( 0x80 )
00231a e070     +LDI R23 , BYTE4 ( 0x80 )
                 	__GETD1N 0x80
00231b 940e 2778 	CALL __DIVD21U
00231d 9508      	RET
                 
                 ;OPTIMIZER ADDED SUBROUTINE, CALLED 4 TIMES, CODE SIZE REDUCTION:3 WORDS
                 SUBOPT_0x48:
                +
00231e efef     +LDI R30 , LOW ( 0xFFFFFFFF )
00231f efff     +LDI R31 , HIGH ( 0xFFFFFFFF )
002320 ef6f     +LDI R22 , BYTE3 ( 0xFFFFFFFF )
002321 ef7f     +LDI R23 , BYTE4 ( 0xFFFFFFFF )
                 	__GETD1N 0xFFFFFFFF
002322 9508      	RET
                 
                 ;OPTIMIZER ADDED SUBROUTINE, CALLED 3 TIMES, CODE SIZE REDUCTION:1 WORDS
                 SUBOPT_0x49:
                +
002323 85ad     +LDD R26 , Y + 13
002324 85be     +LDD R27 , Y + 13 + 1
002325 858f     +LDD R24 , Y + 13 + 2
002326 8998     +LDD R25 , Y + 13 + 3
                 	__GETD2S 13
002327 9508      	RET
                 
                 ;OPTIMIZER ADDED SUBROUTINE, CALLED 2 TIMES, CODE SIZE REDUCTION:16 WORDS
                 SUBOPT_0x4A:
002328 89e9      	LDD  R30,Y+17
002329 89fa      	LDD  R31,Y+17+1
00232a 93fa      	ST   -Y,R31
00232b 93ea      	ST   -Y,R30
00232c 01d8      	MOVW R26,R16
00232d e0e0      	LDI  R30,LOW(512)
00232e e0f2      	LDI  R31,HIGH(512)
00232f 940e 2765 	CALL __DIVW21U
                +
002331 81af     +LDD R26 , Y + 7
002332 85b8     +LDD R27 , Y + 7 + 1
002333 8589     +LDD R24 , Y + 7 + 2
002334 859a     +LDD R25 , Y + 7 + 3
                 	__GETD2S 7
002335 2766      	CLR  R22
002336 2777      	CLR  R23
002337 940e 26e1 	CALL __ADDD21
002339 940e 10ca 	CALL _move_window_G101
00233b 2f4e      	MOV  R20,R30
00233c 3040      	CPI  R20,0
00233d 9508      	RET
                 
                 ;OPTIMIZER ADDED SUBROUTINE, CALLED 2 TIMES, CODE SIZE REDUCTION:5 WORDS
                 SUBOPT_0x4B:
00233e 89a9      	LDD  R26,Y+17
00233f 89ba      	LDD  R27,Y+17+1
002340 96d2      	ADIW R26,50
002341 01f8      	MOVW R30,R16
002342 70f1      	ANDI R31,HIGH(0x1FF)
002343 0fea      	ADD  R30,R26
002344 1ffb      	ADC  R31,R27
002345 019f      	MOVW R18,R30
002346 85ed      	LDD  R30,Y+13
002347 70e1      	ANDI R30,LOW(0x1)
002348 9508      	RET
                 
                 ;OPTIMIZER ADDED SUBROUTINE, CALLED 5 TIMES, CODE SIZE REDUCTION:5 WORDS
                 SUBOPT_0x4C:
                +
002349 85a9     +LDD R26 , Y + 9
00234a 85ba     +LDD R27 , Y + 9 + 1
00234b 858b     +LDD R24 , Y + 9 + 2
00234c 859c     +LDD R25 , Y + 9 + 3
                 	__GETD2S 9
00234d 9508      	RET
                 
                 ;OPTIMIZER ADDED SUBROUTINE, CALLED 2 TIMES, CODE SIZE REDUCTION:3 WORDS
                 SUBOPT_0x4D:
00234e 89e9      	LDD  R30,Y+17
00234f 89fa      	LDD  R31,Y+17+1
002350 93fa      	ST   -Y,R31
002351 93ea      	ST   -Y,R30
                +
002352 85af     +LDD R26 , Y + 15
002353 89b8     +LDD R27 , Y + 15 + 1
002354 8989     +LDD R24 , Y + 15 + 2
002355 899a     +LDD R25 , Y + 15 + 3
                 	__GETD2S 15
002356 9508      	RET
                 
                 ;OPTIMIZER ADDED SUBROUTINE, CALLED 2 TIMES, CODE SIZE REDUCTION:5 WORDS
                 SUBOPT_0x4E:
                +
002357 81af     +LDD R26 , Y + 7
002358 85b8     +LDD R27 , Y + 7 + 1
002359 8589     +LDD R24 , Y + 7 + 2
00235a 859a     +LDD R25 , Y + 7 + 3
                 	__GETD2S 7
00235b 940e 26e1 	CALL __ADDD21
00235d 940e 10ca 	CALL _move_window_G101
00235f 2f4e      	MOV  R20,R30
002360 3040      	CPI  R20,0
002361 9508      	RET
                 
                 ;OPTIMIZER ADDED SUBROUTINE, CALLED 2 TIMES, CODE SIZE REDUCTION:3 WORDS
                 SUBOPT_0x4F:
002362 940e 275f 	CALL __MULB1W2U
002364 70f1      	ANDI R31,HIGH(0x1FF)
002365 89a9      	LDD  R26,Y+17
002366 89ba      	LDD  R27,Y+17+1
002367 96d2      	ADIW R26,50
002368 0fea      	ADD  R30,R26
002369 1ffb      	ADC  R31,R27
00236a 9508      	RET
                 
                 ;OPTIMIZER ADDED SUBROUTINE, CALLED 5 TIMES, CODE SIZE REDUCTION:5 WORDS
                 SUBOPT_0x50:
                +
00236b 81ad     +LDD R26 , Y + 5
00236c 81be     +LDD R27 , Y + 5 + 1
00236d 818f     +LDD R24 , Y + 5 + 2
00236e 8598     +LDD R25 , Y + 5 + 3
                 	__GETD2S 5
00236f 9508      	RET
                 
                 ;OPTIMIZER ADDED SUBROUTINE, CALLED 2 TIMES, CODE SIZE REDUCTION:4 WORDS
                 SUBOPT_0x51:
002370 85a9      	LDD  R26,Y+9
002371 85ba      	LDD  R27,Y+9+1
002372 965e      	ADIW R26,30
002373 940e 27af 	CALL __GETD1P
002375 dff5      	RCALL SUBOPT_0x50
002376 940e 2802 	CALL __CPD21
002378 9508      	RET
                 
                 ;OPTIMIZER ADDED SUBROUTINE, CALLED 5 TIMES, CODE SIZE REDUCTION:17 WORDS
                 SUBOPT_0x52:
                +
002379 30a1     +CPI R26 , LOW ( 0x1 )
00237a e0e0     +LDI R30 , HIGH ( 0x1 )
00237b 07be     +CPC R27 , R30
00237c e0e0     +LDI R30 , BYTE3 ( 0x1 )
00237d 078e     +CPC R24 , R30
00237e e0e0     +LDI R30 , BYTE4 ( 0x1 )
00237f 079e     +CPC R25 , R30
                 	__CPD2N 0x1
002380 9508      	RET
                 
                 ;OPTIMIZER ADDED SUBROUTINE, CALLED 9 TIMES, CODE SIZE REDUCTION:37 WORDS
                 SUBOPT_0x53:
                +
002381 3faf     +CPI R26 , LOW ( 0xFFFFFFFF )
002382 efef     +LDI R30 , HIGH ( 0xFFFFFFFF )
002383 07be     +CPC R27 , R30
002384 efef     +LDI R30 , BYTE3 ( 0xFFFFFFFF )
002385 078e     +CPC R24 , R30
002386 efef     +LDI R30 , BYTE4 ( 0xFFFFFFFF )
002387 079e     +CPC R25 , R30
                 	__CPD2N 0xFFFFFFFF
002388 9508      	RET
                 
                 ;OPTIMIZER ADDED SUBROUTINE, CALLED 6 TIMES, CODE SIZE REDUCTION:7 WORDS
                 SUBOPT_0x54:
                +
002389 81ef     +LDD R30 , Y + 7
00238a 85f8     +LDD R31 , Y + 7 + 1
00238b 8569     +LDD R22 , Y + 7 + 2
00238c 857a     +LDD R23 , Y + 7 + 3
                 	__GETD1S 7
00238d 9508      	RET
                 
                 ;OPTIMIZER ADDED SUBROUTINE, CALLED 3 TIMES, CODE SIZE REDUCTION:1 WORDS
                 SUBOPT_0x55:
                +
00238e e0a0     +LDI R26 , LOW ( 0x0 )
00238f e0b0     +LDI R27 , HIGH ( 0x0 )
002390 e080     +LDI R24 , BYTE3 ( 0x0 )
002391 e090     +LDI R25 , BYTE4 ( 0x0 )
                 	__GETD2N 0x0
002392 9508      	RET
                 
                 ;OPTIMIZER ADDED SUBROUTINE, CALLED 2 TIMES, CODE SIZE REDUCTION:1 WORDS
                 SUBOPT_0x56:
                +
002393 85a6     +LDD R26 , Z + 14
002394 85b7     +LDD R27 , Z + 14 + 1
002395 8980     +LDD R24 , Z + 14 + 2
002396 8991     +LDD R25 , Z + 14 + 3
                 	__GETD2Z 14
002397 cfe9      	RJMP SUBOPT_0x53
                 
                 ;OPTIMIZER ADDED SUBROUTINE, CALLED 2 TIMES, CODE SIZE REDUCTION:4 WORDS
                 SUBOPT_0x57:
002398 961e      	ADIW R26,14
002399 940e 27b5 	CALL __GETD1P_INC
                +
00239b 5fef     +SUBI R30 , LOW ( - 1 )
00239c 4fff     +SBCI R31 , HIGH ( - 1 )
00239d 4f6f     +SBCI R22 , BYTE3 ( - 1 )
00239e 4f7f     +SBCI R23 , BYTE4 ( - 1 )
                 	__SUBD1N -1
00239f 940e 27bf 	CALL __PUTDP1_DEC
0023a1 9508      	RET
                 
                 ;OPTIMIZER ADDED SUBROUTINE, CALLED 3 TIMES, CODE SIZE REDUCTION:1 WORDS
                 SUBOPT_0x58:
0023a2 940e 27d2 	CALL __PUTD1S0
0023a4 9508      	RET
                 
                 ;OPTIMIZER ADDED SUBROUTINE, CALLED 3 TIMES, CODE SIZE REDUCTION:1 WORDS
                 SUBOPT_0x59:
                +
0023a5 89e8     +LDD R30 , Y + 16
0023a6 89f9     +LDD R31 , Y + 16 + 1
0023a7 896a     +LDD R22 , Y + 16 + 2
0023a8 897b     +LDD R23 , Y + 16 + 3
                 	__GETD1S 16
0023a9 9508      	RET
                 
                 ;OPTIMIZER ADDED SUBROUTINE, CALLED 4 TIMES, CODE SIZE REDUCTION:3 WORDS
                 SUBOPT_0x5A:
                +
0023aa 81ac     +LDD R26 , Y + 4
0023ab 81bd     +LDD R27 , Y + 4 + 1
0023ac 818e     +LDD R24 , Y + 4 + 2
0023ad 819f     +LDD R25 , Y + 4 + 3
                 	__GETD2S 4
0023ae 9508      	RET
                 
                 ;OPTIMIZER ADDED SUBROUTINE, CALLED 6 TIMES, CODE SIZE REDUCTION:7 WORDS
                 SUBOPT_0x5B:
0023af 940e 27c8 	CALL __GETD1S0
0023b1 9508      	RET
                 
                 ;OPTIMIZER ADDED SUBROUTINE, CALLED 3 TIMES, CODE SIZE REDUCTION:1 WORDS
                 SUBOPT_0x5C:
                +
0023b2 83ec     +STD Y + 4 , R30
0023b3 83fd     +STD Y + 4 + 1 , R31
0023b4 836e     +STD Y + 4 + 2 , R22
0023b5 837f     +STD Y + 4 + 3 , R23
                 	__PUTD1S 4
0023b6 9508      	RET
                 
                 ;OPTIMIZER ADDED SUBROUTINE, CALLED 4 TIMES, CODE SIZE REDUCTION:3 WORDS
                 SUBOPT_0x5D:
0023b7 89ec      	LDD  R30,Y+20
0023b8 89fd      	LDD  R31,Y+20+1
0023b9 93fa      	ST   -Y,R31
0023ba 93ea      	ST   -Y,R30
0023bb 9508      	RET
                 
                 ;OPTIMIZER ADDED SUBROUTINE, CALLED 2 TIMES, CODE SIZE REDUCTION:1 WORDS
                 SUBOPT_0x5E:
0023bc 940e 119b 	CALL _get_fat
                +
0023be 87ec     +STD Y + 12 , R30
0023bf 87fd     +STD Y + 12 + 1 , R31
0023c0 876e     +STD Y + 12 + 2 , R22
0023c1 877f     +STD Y + 12 + 3 , R23
                 	__PUTD1S 12
0023c2 9508      	RET
                 
                 ;OPTIMIZER ADDED SUBROUTINE, CALLED 4 TIMES, CODE SIZE REDUCTION:3 WORDS
                 SUBOPT_0x5F:
                +
0023c3 85ac     +LDD R26 , Y + 12
0023c4 85bd     +LDD R27 , Y + 12 + 1
0023c5 858e     +LDD R24 , Y + 12 + 2
0023c6 859f     +LDD R25 , Y + 12 + 3
                 	__GETD2S 12
0023c7 9508      	RET
                 
                 ;OPTIMIZER ADDED SUBROUTINE, CALLED 3 TIMES, CODE SIZE REDUCTION:1 WORDS
                 SUBOPT_0x60:
                +
0023c8 85ec     +LDD R30 , Y + 12
0023c9 85fd     +LDD R31 , Y + 12 + 1
0023ca 856e     +LDD R22 , Y + 12 + 2
0023cb 857f     +LDD R23 , Y + 12 + 3
                 	__GETD1S 12
0023cc 9508      	RET
                 
                 ;OPTIMIZER ADDED SUBROUTINE, CALLED 4 TIMES, CODE SIZE REDUCTION:3 WORDS
                 SUBOPT_0x61:
                +
0023cd 81ec     +LDD R30 , Y + 4
0023ce 81fd     +LDD R31 , Y + 4 + 1
0023cf 816e     +LDD R22 , Y + 4 + 2
0023d0 817f     +LDD R23 , Y + 4 + 3
                 	__GETD1S 4
0023d1 9508      	RET
                 
                 ;OPTIMIZER ADDED SUBROUTINE, CALLED 3 TIMES, CODE SIZE REDUCTION:1 WORDS
                 SUBOPT_0x62:
                +
0023d2 87e8     +STD Y + 8 , R30
0023d3 87f9     +STD Y + 8 + 1 , R31
0023d4 876a     +STD Y + 8 + 2 , R22
0023d5 877b     +STD Y + 8 + 3 , R23
                 	__PUTD1S 8
0023d6 9508      	RET
                 
                 ;OPTIMIZER ADDED SUBROUTINE, CALLED 2 TIMES, CODE SIZE REDUCTION:1 WORDS
                 SUBOPT_0x63:
0023d7 dff5      	RCALL SUBOPT_0x61
0023d8 dee0      	RCALL SUBOPT_0x3C
0023d9 940e 27fd 	CALL __CPD12
0023db 9508      	RET
                 
                 ;OPTIMIZER ADDED SUBROUTINE, CALLED 8 TIMES, CODE SIZE REDUCTION:11 WORDS
                 SUBOPT_0x64:
                +
0023dc e0e0     +LDI R30 , LOW ( 0x0 )
0023dd e0f0     +LDI R31 , HIGH ( 0x0 )
0023de e060     +LDI R22 , BYTE3 ( 0x0 )
0023df e070     +LDI R23 , BYTE4 ( 0x0 )
                 	__GETD1N 0x0
0023e0 9508      	RET
                 
                 ;OPTIMIZER ADDED SUBROUTINE, CALLED 2 TIMES, CODE SIZE REDUCTION:1 WORDS
                 SUBOPT_0x65:
                +
0023e1 85ea     +LDD R30 , Y + 10
0023e2 85fb     +LDD R31 , Y + 10 + 1
0023e3 856c     +LDD R22 , Y + 10 + 2
0023e4 857d     +LDD R23 , Y + 10 + 3
                 	__GETD1S 10
0023e5 940e 27dc 	CALL __PUTPARD1
0023e7 9508      	RET
                 
                 ;OPTIMIZER ADDED SUBROUTINE, CALLED 3 TIMES, CODE SIZE REDUCTION:1 WORDS
                 SUBOPT_0x66:
0023e8 940e 27e6 	CALL __SWAPD12
0023ea 940e 26e6 	CALL __SUBD12
0023ec 9508      	RET
                 
                 ;OPTIMIZER ADDED SUBROUTINE, CALLED 2 TIMES, CODE SIZE REDUCTION:2 WORDS
                 SUBOPT_0x67:
                +
0023ed 85a8     +LDD R26 , Y + 8
0023ee 85b9     +LDD R27 , Y + 8 + 1
0023ef 9614     +ADIW R26 , 4
0023f0 93ed     +ST X + , R30
0023f1 93fc     +ST X , R31
                 	__PUTW1SNS 8,4
0023f2 85a8      	LDD  R26,Y+8
0023f3 85b9      	LDD  R27,Y+8+1
0023f4 9508      	RET
                 
                 ;OPTIMIZER ADDED SUBROUTINE, CALLED 2 TIMES, CODE SIZE REDUCTION:1 WORDS
                 SUBOPT_0x68:
0023f5 940e 27af 	CALL __GETD1P
                +
0023f7 83ea     +STD Y + 2 , R30
0023f8 83fb     +STD Y + 2 + 1 , R31
0023f9 836c     +STD Y + 2 + 2 , R22
0023fa 837d     +STD Y + 2 + 3 , R23
                 	__PUTD1S 2
0023fb 9508      	RET
                 
                 ;OPTIMIZER ADDED SUBROUTINE, CALLED 6 TIMES, CODE SIZE REDUCTION:7 WORDS
                 SUBOPT_0x69:
                +
0023fc 81aa     +LDD R26 , Y + 2
0023fd 81bb     +LDD R27 , Y + 2 + 1
0023fe 818c     +LDD R24 , Y + 2 + 2
0023ff 819d     +LDD R25 , Y + 2 + 3
                 	__GETD2S 2
002400 9508      	RET
                 
                 ;OPTIMIZER ADDED SUBROUTINE, CALLED 24 TIMES, CODE SIZE REDUCTION:43 WORDS
                 SUBOPT_0x6A:
002401 85a8      	LDD  R26,Y+8
002402 85b9      	LDD  R27,Y+8+1
002403 940e 27ab 	CALL __GETW1P
002405 9508      	RET
                 
                 ;OPTIMIZER ADDED SUBROUTINE, CALLED 2 TIMES, CODE SIZE REDUCTION:3 WORDS
                 SUBOPT_0x6B:
002406 967e      	ADIW R30,30
002407 01df      	MOVW R26,R30
002408 940e 27af 	CALL __GETD1P
00240a dff1      	RCALL SUBOPT_0x69
00240b 940e 2802 	CALL __CPD21
00240d 9508      	RET
                 
                 ;OPTIMIZER ADDED SUBROUTINE, CALLED 2 TIMES, CODE SIZE REDUCTION:1 WORDS
                 SUBOPT_0x6C:
                +
00240e 81ea     +LDD R30 , Y + 2
00240f 81fb     +LDD R31 , Y + 2 + 1
002410 816c     +LDD R22 , Y + 2 + 2
002411 817d     +LDD R23 , Y + 2 + 3
                 	__GETD1S 2
002412 940e 27f3 	CALL __CPD10
002414 9508      	RET
                 
                 ;OPTIMIZER ADDED SUBROUTINE, CALLED 2 TIMES, CODE SIZE REDUCTION:7 WORDS
                 SUBOPT_0x6D:
                +
002415 81ea     +LDD R30 , Y + 2
002416 81fb     +LDD R31 , Y + 2 + 1
002417 816c     +LDD R22 , Y + 2 + 2
002418 817d     +LDD R23 , Y + 2 + 3
                 	__GETD1S 2
                +
002419 85a8     +LDD R26 , Y + 8
00241a 85b9     +LDD R27 , Y + 8 + 1
00241b 961a     +ADIW R26 , 10
00241c 940e 27ba+CALL __PUTDP1
                 	__PUTD1SNS 8,10
00241e cfe2      	RJMP SUBOPT_0x6A
                 
                 ;OPTIMIZER ADDED SUBROUTINE, CALLED 7 TIMES, CODE SIZE REDUCTION:9 WORDS
                 SUBOPT_0x6E:
00241f 2766      	CLR  R22
002420 2777      	CLR  R23
002421 940e 26dc 	CALL __ADDD12
002423 9508      	RET
                 
                 ;OPTIMIZER ADDED SUBROUTINE, CALLED 2 TIMES, CODE SIZE REDUCTION:1 WORDS
                 SUBOPT_0x6F:
                +
002424 85a8     +LDD R26 , Y + 8
002425 85b9     +LDD R27 , Y + 8 + 1
002426 961e     +ADIW R26 , 14
002427 940e 27ba+CALL __PUTDP1
                 	__PUTD1SNS 8,14
002429 9508      	RET
                 
                 ;OPTIMIZER ADDED SUBROUTINE, CALLED 2 TIMES, CODE SIZE REDUCTION:8 WORDS
                 SUBOPT_0x70:
00242a 70ef      	ANDI R30,LOW(0xF)
00242b 70f0      	ANDI R31,HIGH(0xF)
00242c 0fee      	LSL  R30
00242d 940e 2719 	CALL __LSLW4
00242f 0fea      	ADD  R30,R26
002430 1ffb      	ADC  R31,R27
                +
002431 85a8     +LDD R26 , Y + 8
002432 85b9     +LDD R27 , Y + 8 + 1
002433 9652     +ADIW R26 , 18
002434 93ed     +ST X + , R30
002435 93fc     +ST X , R31
                 	__PUTW1SNS 8,18
002436 e0e0      	LDI  R30,LOW(0)
002437 9508      	RET
                 
                 ;OPTIMIZER ADDED SUBROUTINE, CALLED 3 TIMES, CODE SIZE REDUCTION:1 WORDS
                 SUBOPT_0x71:
002438 940e 27af 	CALL __GETD1P
00243a 940e 27f3 	CALL __CPD10
00243c 9508      	RET
                 
                 ;OPTIMIZER ADDED SUBROUTINE, CALLED 2 TIMES, CODE SIZE REDUCTION:3 WORDS
                 SUBOPT_0x72:
00243d 93fa      	ST   -Y,R31
00243e 93ea      	ST   -Y,R30
00243f 85ea      	LDD  R30,Y+10
002440 85fb      	LDD  R31,Y+10+1
                +
002441 85a2     +LDD R26 , Z + 10
002442 85b3     +LDD R27 , Z + 10 + 1
002443 8584     +LDD R24 , Z + 10 + 2
002444 8595     +LDD R25 , Z + 10 + 3
                 	__GETD2Z 10
002445 9508      	RET
                 
                 ;OPTIMIZER ADDED SUBROUTINE, CALLED 3 TIMES, CODE SIZE REDUCTION:1 WORDS
                 SUBOPT_0x73:
                +
002446 83eb     +STD Y + 3 , R30
002447 83fc     +STD Y + 3 + 1 , R31
002448 836d     +STD Y + 3 + 2 , R22
002449 837e     +STD Y + 3 + 3 , R23
                 	__PUTD1S 3
00244a 9508      	RET
                 
                 ;OPTIMIZER ADDED SUBROUTINE, CALLED 5 TIMES, CODE SIZE REDUCTION:5 WORDS
                 SUBOPT_0x74:
                +
00244b 81ab     +LDD R26 , Y + 3
00244c 81bc     +LDD R27 , Y + 3 + 1
00244d 818d     +LDD R24 , Y + 3 + 2
00244e 819e     +LDD R25 , Y + 3 + 3
                 	__GETD2S 3
00244f 9508      	RET
                 
                 ;OPTIMIZER ADDED SUBROUTINE, CALLED 2 TIMES, CODE SIZE REDUCTION:1 WORDS
                 SUBOPT_0x75:
002450 dff5      	RCALL SUBOPT_0x73
                +
002451 81eb     +LDD R30 , Y + 3
002452 81fc     +LDD R31 , Y + 3 + 1
002453 816d     +LDD R22 , Y + 3 + 2
002454 817e     +LDD R23 , Y + 3 + 3
                 	__GETD1S 3
002455 9508      	RET
                 
                 ;OPTIMIZER ADDED SUBROUTINE, CALLED 2 TIMES, CODE SIZE REDUCTION:1 WORDS
                 SUBOPT_0x76:
002456 93fa      	ST   -Y,R31
002457 93ea      	ST   -Y,R30
002458 df12      	RCALL SUBOPT_0x50
002459 940c 13d9 	JMP  _clust2sect
                 
                 ;OPTIMIZER ADDED SUBROUTINE, CALLED 2 TIMES, CODE SIZE REDUCTION:9 WORDS
                 SUBOPT_0x77:
00245b 93ba      	ST   -Y,R27
00245c 93aa      	ST   -Y,R26
00245d 940e 2809 	CALL __SAVELOCR4
00245f 81ec      	LDD  R30,Y+4
002460 81fd      	LDD  R31,Y+4+1
002461 93fa      	ST   -Y,R31
002462 93ea      	ST   -Y,R30
002463 e0a0      	LDI  R26,LOW(0)
002464 e0b0      	LDI  R27,0
002465 940e 1411 	CALL _dir_seek_G101
002467 2f0e      	MOV  R16,R30
002468 3000      	CPI  R16,0
002469 9508      	RET
                 
                 ;OPTIMIZER ADDED SUBROUTINE, CALLED 3 TIMES, CODE SIZE REDUCTION:25 WORDS
                 SUBOPT_0x78:
00246a 81ac      	LDD  R26,Y+4
00246b 81bd      	LDD  R27,Y+4+1
00246c 940e 27ab 	CALL __GETW1P
00246e 93fa      	ST   -Y,R31
00246f 93ea      	ST   -Y,R30
002470 81ee      	LDD  R30,Y+6
002471 81ff      	LDD  R31,Y+6+1
                +
002472 85a6     +LDD R26 , Z + 14
002473 85b7     +LDD R27 , Z + 14 + 1
002474 8980     +LDD R24 , Z + 14 + 2
002475 8991     +LDD R25 , Z + 14 + 3
                 	__GETD2Z 14
002476 940e 10ca 	CALL _move_window_G101
002478 2f0e      	MOV  R16,R30
002479 3000      	CPI  R16,0
00247a 9508      	RET
                 
                 ;OPTIMIZER ADDED SUBROUTINE, CALLED 2 TIMES, CODE SIZE REDUCTION:5 WORDS
                 SUBOPT_0x79:
00247b 933a      	ST   -Y,R19
00247c 932a      	ST   -Y,R18
00247d 81ee      	LDD  R30,Y+6
00247e 81ff      	LDD  R31,Y+6+1
00247f 89a4      	LDD  R26,Z+20
002480 89b5      	LDD  R27,Z+21
002481 93ba      	ST   -Y,R27
002482 93aa      	ST   -Y,R26
002483 e0ab      	LDI  R26,LOW(11)
002484 e0b0      	LDI  R27,0
002485 9508      	RET
                 
                 ;OPTIMIZER ADDED SUBROUTINE, CALLED 4 TIMES, CODE SIZE REDUCTION:3 WORDS
                 SUBOPT_0x7A:
002486 940e 27ab 	CALL __GETW1P
002488 83ee      	STD  Y+6,R30
002489 83ff      	STD  Y+6+1,R31
00248a 9508      	RET
                 
                 ;OPTIMIZER ADDED SUBROUTINE, CALLED 3 TIMES, CODE SIZE REDUCTION:1 WORDS
                 SUBOPT_0x7B:
00248b 85e8      	LDD  R30,Y+8
00248c 85f9      	LDD  R31,Y+8+1
00248d 81ae      	LDD  R26,Y+6
00248e 81bf      	LDD  R27,Y+6+1
00248f 9508      	RET
                 
                 ;OPTIMIZER ADDED SUBROUTINE, CALLED 2 TIMES, CODE SIZE REDUCTION:6 WORDS
                 SUBOPT_0x7C:
002490 85e8      	LDD  R30,Y+8
002491 85f9      	LDD  R31,Y+8+1
002492 9631      	ADIW R30,1
002493 87e8      	STD  Y+8,R30
002494 87f9      	STD  Y+8+1,R31
002495 9731      	SBIW R30,1
002496 81ae      	LDD  R26,Y+6
002497 81bf      	LDD  R27,Y+6+1
002498 0fae      	ADD  R26,R30
002499 1fbf      	ADC  R27,R31
00249a 911c      	LD   R17,X
00249b 9508      	RET
                 
                 ;OPTIMIZER ADDED SUBROUTINE, CALLED 3 TIMES, CODE SIZE REDUCTION:5 WORDS
                 SUBOPT_0x7D:
00249c 2fe5      	MOV  R30,R21
00249d 5f5f      	SUBI R21,-1
00249e e0f0      	LDI  R31,0
00249f 0fe3      	ADD  R30,R19
0024a0 1ff4      	ADC  R31,R20
0024a1 8310      	ST   Z,R17
0024a2 9508      	RET
                 
                 ;OPTIMIZER ADDED SUBROUTINE, CALLED 2 TIMES, CODE SIZE REDUCTION:2 WORDS
                 SUBOPT_0x7E:
0024a3 0fea      	ADD  R30,R26
0024a4 1ffb      	ADC  R31,R27
0024a5 85ab      	LDD  R26,Y+11
0024a6 85bc      	LDD  R27,Y+11+1
0024a7 93ed      	ST   X+,R30
0024a8 93fc      	ST   X,R31
0024a9 3211      	CPI  R17,33
0024aa 9508      	RET
                 
                 ;OPTIMIZER ADDED SUBROUTINE, CALLED 4 TIMES, CODE SIZE REDUCTION:3 WORDS
                 SUBOPT_0x7F:
0024ab df30      	RCALL SUBOPT_0x64
0024ac 940e 27ba 	CALL __PUTDP1
0024ae 9508      	RET
                 
                 ;OPTIMIZER ADDED SUBROUTINE, CALLED 2 TIMES, CODE SIZE REDUCTION:1 WORDS
                 SUBOPT_0x80:
                +
0024af 81ae     +LDD R26 , Y + 6
0024b0 81bf     +LDD R27 , Y + 6 + 1
0024b1 9616     +ADIW R26 , 6
0024b2 940e 27ba+CALL __PUTDP1
                 	__PUTD1SNS 6,6
0024b4 9508      	RET
                 
                 ;OPTIMIZER ADDED SUBROUTINE, CALLED 4 TIMES, CODE SIZE REDUCTION:3 WORDS
                 SUBOPT_0x81:
0024b5 81ee      	LDD  R30,Y+6
0024b6 81ff      	LDD  R31,Y+6+1
0024b7 93fa      	ST   -Y,R31
0024b8 93ea      	ST   -Y,R30
0024b9 9508      	RET
                 
                 ;OPTIMIZER ADDED SUBROUTINE, CALLED 6 TIMES, CODE SIZE REDUCTION:7 WORDS
                 SUBOPT_0x82:
0024ba e0e0      	LDI  R30,LOW(0)
0024bb e0f0      	LDI  R31,HIGH(0)
0024bc 93ed      	ST   X+,R30
0024bd 93fc      	ST   X,R31
0024be 9508      	RET
                 
                 ;OPTIMIZER ADDED SUBROUTINE, CALLED 3 TIMES, CODE SIZE REDUCTION:3 WORDS
                 SUBOPT_0x83:
                +
0024bf 2fa1     +MOV R26 , R17
0024c0 2fb2     +MOV R27 , R18
                 	__GETW2R 17,18
0024c1 9654      	ADIW R26,20
0024c2 ce4f      	RJMP SUBOPT_0x46
                 
                 ;OPTIMIZER ADDED SUBROUTINE, CALLED 3 TIMES, CODE SIZE REDUCTION:3 WORDS
                 SUBOPT_0x84:
                +
0024c3 2fa1     +MOV R26 , R17
0024c4 2fb2     +MOV R27 , R18
                 	__GETW2R 17,18
0024c5 965a      	ADIW R26,26
0024c6 940e 27ab 	CALL __GETW1P
0024c8 9508      	RET
                 
                 ;OPTIMIZER ADDED SUBROUTINE, CALLED 3 TIMES, CODE SIZE REDUCTION:1 WORDS
                 SUBOPT_0x85:
0024c9 2766      	CLR  R22
0024ca 2777      	CLR  R23
0024cb 940e 26f0 	CALL __ORD12
0024cd 9508      	RET
                 
                 ;OPTIMIZER ADDED SUBROUTINE, CALLED 2 TIMES, CODE SIZE REDUCTION:4 WORDS
                 SUBOPT_0x86:
0024ce 96f2      	ADIW R30,50
0024cf 50e2      	SUBI R30,LOW(-510)
0024d0 4ffe      	SBCI R31,HIGH(-510)
0024d1 01df      	MOVW R26,R30
0024d2 940e 27ab 	CALL __GETW1P
0024d4 35e5      	CPI  R30,LOW(0xAA55)
0024d5 eaaa      	LDI  R26,HIGH(0xAA55)
0024d6 07fa      	CPC  R31,R26
0024d7 9508      	RET
                 
                 ;OPTIMIZER ADDED SUBROUTINE, CALLED 2 TIMES, CODE SIZE REDUCTION:8 WORDS
                 SUBOPT_0x87:
0024d8 940e 27af 	CALL __GETD1P
                +
0024da 7fef     +ANDI R30 , LOW ( 0xFFFFFF )
0024db 7fff     +ANDI R31 , HIGH ( 0xFFFFFF )
0024dc 7f6f     +ANDI R22 , BYTE3 ( 0xFFFFFF )
0024dd 7070     +ANDI R23 , BYTE4 ( 0xFFFFFF )
                 	__ANDD1N 0xFFFFFF
                +
0024de 34e6     +CPI R30 , LOW ( 0x544146 )
0024df e4a1     +LDI R26 , HIGH ( 0x544146 )
0024e0 07fa     +CPC R31 , R26
0024e1 e5a4     +LDI R26 , BYTE3 ( 0x544146 )
0024e2 076a     +CPC R22 , R26
0024e3 e0a0     +LDI R26 , BYTE4 ( 0x544146 )
0024e4 077a     +CPC R23 , R26
                 	__CPD1N 0x544146
0024e5 9508      	RET
                 
                 ;OPTIMIZER ADDED SUBROUTINE, CALLED 2 TIMES, CODE SIZE REDUCTION:2 WORDS
                 SUBOPT_0x88:
0024e6 e4af      	LDI  R26,LOW(_FatFs_G101)
0024e7 e0bf      	LDI  R27,HIGH(_FatFs_G101)
0024e8 e0f0      	LDI  R31,0
0024e9 0fee      	LSL  R30
0024ea 1fff      	ROL  R31
0024eb 0fae      	ADD  R26,R30
0024ec 1fbf      	ADC  R27,R31
0024ed 9508      	RET
                 
                 ;OPTIMIZER ADDED SUBROUTINE, CALLED 3 TIMES, CODE SIZE REDUCTION:1 WORDS
                 SUBOPT_0x89:
0024ee 81ed      	LDD  R30,Y+5
0024ef 81fe      	LDD  R31,Y+5+1
0024f0 93fa      	ST   -Y,R31
0024f1 93ea      	ST   -Y,R30
0024f2 9508      	RET
                 
                 ;OPTIMIZER ADDED SUBROUTINE, CALLED 3 TIMES, CODE SIZE REDUCTION:1 WORDS
                 SUBOPT_0x8A:
                +
0024f3 8be9     +STD Y + 17 , R30
0024f4 8bfa     +STD Y + 17 + 1 , R31
0024f5 8b6b     +STD Y + 17 + 2 , R22
0024f6 8b7c     +STD Y + 17 + 3 , R23
                 	__PUTD1S 17
0024f7 9508      	RET
                 
                 ;OPTIMIZER ADDED SUBROUTINE, CALLED 4 TIMES, CODE SIZE REDUCTION:3 WORDS
                 SUBOPT_0x8B:
                +
0024f8 89e9     +LDD R30 , Y + 17
0024f9 89fa     +LDD R31 , Y + 17 + 1
0024fa 896b     +LDD R22 , Y + 17 + 2
0024fb 897c     +LDD R23 , Y + 17 + 3
                 	__GETD1S 17
0024fc 9508      	RET
                 
                 ;OPTIMIZER ADDED SUBROUTINE, CALLED 2 TIMES, CODE SIZE REDUCTION:1 WORDS
                 SUBOPT_0x8C:
0024fd 81ad      	LDD  R26,Y+5
0024fe 81be      	LDD  R27,Y+5+1
0024ff 5ca0      	SUBI R26,LOW(-64)
002500 4fbf      	SBCI R27,HIGH(-64)
002501 940e 27ab 	CALL __GETW1P
002503 9508      	RET
                 
                 ;OPTIMIZER ADDED SUBROUTINE, CALLED 2 TIMES, CODE SIZE REDUCTION:1 WORDS
                 SUBOPT_0x8D:
                +
002504 89ad     +LDD R26 , Y + 21
002505 89be     +LDD R27 , Y + 21 + 1
002506 898f     +LDD R24 , Y + 21 + 2
002507 8d98     +LDD R25 , Y + 21 + 3
                 	__GETD2S 21
002508 cf16      	RJMP SUBOPT_0x6E
                 
                 ;OPTIMIZER ADDED SUBROUTINE, CALLED 2 TIMES, CODE SIZE REDUCTION:2 WORDS
                 SUBOPT_0x8E:
002509 81ed      	LDD  R30,Y+5
00250a 81fe      	LDD  R31,Y+5+1
00250b 85a0      	LDD  R26,Z+8
00250c 85b1      	LDD  R27,Z+9
00250d 01fd      	MOVW R30,R26
00250e 940e 2722 	CALL __LSRW4
002510 9508      	RET
                 
                 ;OPTIMIZER ADDED SUBROUTINE, CALLED 2 TIMES, CODE SIZE REDUCTION:3 WORDS
                 SUBOPT_0x8F:
002511 81ed      	LDD  R30,Y+5
002512 81fe      	LDD  R31,Y+5+1
002513 dd65      	RCALL SUBOPT_0x33
002514 dfe3      	RCALL SUBOPT_0x8B
002515 940e 26dc 	CALL __ADDD12
002517 9508      	RET
                 
                 ;OPTIMIZER ADDED SUBROUTINE, CALLED 2 TIMES, CODE SIZE REDUCTION:1 WORDS
                 SUBOPT_0x90:
002518 e0a0      	LDI  R26,LOW(0)
002519 e0b0      	LDI  R27,HIGH(0)
00251a 83a0      	STD  Z+0,R26
00251b 83b1      	STD  Z+1,R27
                +
00251c 2fe1     +MOV R30 , R17
00251d 2ff2     +MOV R31 , R18
                 	__GETW1R 17,18
00251e 9508      	RET
                 
                 ;OPTIMIZER ADDED SUBROUTINE, CALLED 9 TIMES, CODE SIZE REDUCTION:13 WORDS
                 SUBOPT_0x91:
00251f 8da9      	LDD  R26,Y+25
002520 8dba      	LDD  R27,Y+25+1
002521 940e 27ab 	CALL __GETW1P
002523 9508      	RET
                 
                 ;OPTIMIZER ADDED SUBROUTINE, CALLED 4 TIMES, CODE SIZE REDUCTION:3 WORDS
                 SUBOPT_0x92:
002524 93fa      	ST   -Y,R31
002525 93ea      	ST   -Y,R30
002526 8deb      	LDD  R30,Y+27
002527 8dfc      	LDD  R31,Y+27+1
002528 9508      	RET
                 
                 ;OPTIMIZER ADDED SUBROUTINE, CALLED 3 TIMES, CODE SIZE REDUCTION:5 WORDS
                 SUBOPT_0x93:
002529 81a2      	LDD  R26,Z+2
00252a 81b3      	LDD  R27,Z+3
00252b 940e 195b 	CALL _validate_G101
00252d 2f0e      	MOV  R16,R30
00252e 3000      	CPI  R16,0
00252f 9508      	RET
                 
                 ;OPTIMIZER ADDED SUBROUTINE, CALLED 3 TIMES, CODE SIZE REDUCTION:5 WORDS
                 SUBOPT_0x94:
002530 8de9      	LDD  R30,Y+25
002531 8dfa      	LDD  R31,Y+25+1
                +
002532 81a6     +LDD R26 , Z + 6
002533 81b7     +LDD R27 , Z + 6 + 1
002534 8580     +LDD R24 , Z + 6 + 2
002535 8591     +LDD R25 , Z + 6 + 3
                 	__GETD2Z 6
002536 9508      	RET
                 
                 ;OPTIMIZER ADDED SUBROUTINE, CALLED 2 TIMES, CODE SIZE REDUCTION:1 WORDS
                 SUBOPT_0x95:
                +
002537 83ef     +STD Y + 7 , R30
002538 87f8     +STD Y + 7 + 1 , R31
002539 8769     +STD Y + 7 + 2 , R22
00253a 877a     +STD Y + 7 + 3 , R23
                 	__PUTD1S 7
00253b ce4d      	RJMP SUBOPT_0x54
                 
                 ;OPTIMIZER ADDED SUBROUTINE, CALLED 4 TIMES, CODE SIZE REDUCTION:3 WORDS
                 SUBOPT_0x96:
                +
00253c 89a2     +LDD R26 , Z + 18
00253d 89b3     +LDD R27 , Z + 18 + 1
00253e 8984     +LDD R24 , Z + 18 + 2
00253f 8995     +LDD R25 , Z + 18 + 3
                 	__GETD2Z 18
002540 9508      	RET
                 
                 ;OPTIMIZER ADDED SUBROUTINE, CALLED 6 TIMES, CODE SIZE REDUCTION:17 WORDS
                 SUBOPT_0x97:
002541 8da9      	LDD  R26,Y+25
002542 8dba      	LDD  R27,Y+25+1
002543 9614      	ADIW R26,4
002544 91ec      	LD   R30,X
002545 68e0      	ORI  R30,0x80
002546 93ec      	ST   X,R30
002547 9508      	RET
                 
                 ;OPTIMIZER ADDED SUBROUTINE, CALLED 5 TIMES, CODE SIZE REDUCTION:5 WORDS
                 SUBOPT_0x98:
                +
002548 87eb     +STD Y + 11 , R30
002549 87fc     +STD Y + 11 + 1 , R31
00254a 876d     +STD Y + 11 + 2 , R22
00254b 877e     +STD Y + 11 + 3 , R23
                 	__PUTD1S 11
00254c 9508      	RET
                 
                 ;OPTIMIZER ADDED SUBROUTINE, CALLED 8 TIMES, CODE SIZE REDUCTION:11 WORDS
                 SUBOPT_0x99:
                +
00254d 85eb     +LDD R30 , Y + 11
00254e 85fc     +LDD R31 , Y + 11 + 1
00254f 856d     +LDD R22 , Y + 11 + 2
002550 857e     +LDD R23 , Y + 11 + 3
                 	__GETD1S 11
002551 9508      	RET
                 
                 ;OPTIMIZER ADDED SUBROUTINE, CALLED 3 TIMES, CODE SIZE REDUCTION:1 WORDS
                 SUBOPT_0x9A:
002552 8de9      	LDD  R30,Y+25
002553 8dfa      	LDD  R31,Y+25+1
002554 81e5      	LDD  R30,Z+5
002555 e0f0      	LDI  R31,0
002556 9508      	RET
                 
                 ;OPTIMIZER ADDED SUBROUTINE, CALLED 3 TIMES, CODE SIZE REDUCTION:1 WORDS
                 SUBOPT_0x9B:
                +
002557 85ab     +LDD R26 , Y + 11
002558 85bc     +LDD R27 , Y + 11 + 1
002559 858d     +LDD R24 , Y + 11 + 2
00255a 859e     +LDD R25 , Y + 11 + 3
                 	__GETD2S 11
00255b 9508      	RET
                 
                 ;OPTIMIZER ADDED SUBROUTINE, CALLED 2 TIMES, CODE SIZE REDUCTION:3 WORDS
                 SUBOPT_0x9C:
00255c e0e0      	LDI  R30,LOW(512)
00255d e0f2      	LDI  R31,HIGH(512)
00255e 940e 2765 	CALL __DIVW21U
                +
002560 2f3e     +MOV R19 , R30
002561 2f4f     +MOV R20 , R31
                 	__PUTW1R 19,20
002562 2e03      	MOV  R0,R19
002563 2a04      	OR   R0,R20
002564 9508      	RET
                 
                 ;OPTIMIZER ADDED SUBROUTINE, CALLED 3 TIMES, CODE SIZE REDUCTION:9 WORDS
                 SUBOPT_0x9D:
002565 8de9      	LDD  R30,Y+25
002566 8dfa      	LDD  R31,Y+25+1
                +
002567 89a6     +LDD R26 , Z + 22
002568 89b7     +LDD R27 , Z + 22 + 1
002569 8d80     +LDD R24 , Z + 22 + 2
00256a 8d91     +LDD R25 , Z + 22 + 3
                 	__GETD2Z 22
00256b cfe1      	RJMP SUBOPT_0x99
                 
                 ;OPTIMIZER ADDED SUBROUTINE, CALLED 2 TIMES, CODE SIZE REDUCTION:3 WORDS
                 SUBOPT_0x9E:
00256c 940e 26eb 	CALL __SUBD21
                +
00256e 2fe3     +MOV R30 , R19
00256f 2ff4     +MOV R31 , R20
                 	__GETW1R 19,20
002570 2766      	CLR  R22
002571 2777      	CLR  R23
002572 940e 2802 	CALL __CPD21
002574 9508      	RET
                 
                 ;OPTIMIZER ADDED SUBROUTINE, CALLED 2 TIMES, CODE SIZE REDUCTION:3 WORDS
                 SUBOPT_0x9F:
002575 940e 26eb 	CALL __SUBD21
                +
002577 e0e0     +LDI R30 , LOW ( 0x200 )
002578 e0f2     +LDI R31 , HIGH ( 0x200 )
002579 e060     +LDI R22 , BYTE3 ( 0x200 )
00257a e070     +LDI R23 , BYTE4 ( 0x200 )
                 	__GETD1N 0x200
00257b 940e 273f 	CALL __MULD12U
00257d 9508      	RET
                 
                 ;OPTIMIZER ADDED SUBROUTINE, CALLED 2 TIMES, CODE SIZE REDUCTION:1 WORDS
                 SUBOPT_0xA0:
00257e 93fa      	ST   -Y,R31
00257f 93ea      	ST   -Y,R30
002580 e0a0      	LDI  R26,LOW(512)
002581 e0b2      	LDI  R27,HIGH(512)
002582 940c 20d6 	JMP  _memcpy
                 
                 ;OPTIMIZER ADDED SUBROUTINE, CALLED 2 TIMES, CODE SIZE REDUCTION:7 WORDS
                 SUBOPT_0xA1:
002584 9615      	ADIW R26,5
002585 91ec      	LD   R30,X
002586 0fe3      	ADD  R30,R19
002587 93ec      	ST   X,R30
                +
002588 2fe3     +MOV R30 , R19
002589 2ff4     +MOV R31 , R20
                 	__GETW1R 19,20
00258a 0fee      	LSL  R30
00258b 1fff      	ROL  R31
00258c 2ffe      	MOV  R31,R30
00258d e0e0      	LDI  R30,0
                +
00258e 2f1e     +MOV R17 , R30
00258f 2f2f     +MOV R18 , R31
                 	__PUTW1R 17,18
002590 9508      	RET
                 
                 ;OPTIMIZER ADDED SUBROUTINE, CALLED 2 TIMES, CODE SIZE REDUCTION:2 WORDS
                 SUBOPT_0xA2:
002591 81e1      	LDD  R30,Z+1
002592 93ea      	ST   -Y,R30
002593 8dea      	LDD  R30,Y+26
002594 8dfb      	LDD  R31,Y+26+1
002595 96b0      	ADIW R30,32
002596 93fa      	ST   -Y,R31
002597 93ea      	ST   -Y,R30
002598 9508      	RET
                 
                 ;OPTIMIZER ADDED SUBROUTINE, CALLED 3 TIMES, CODE SIZE REDUCTION:13 WORDS
                 SUBOPT_0xA3:
                +
002599 89a6     +LDD R26 , Z + 22
00259a 89b7     +LDD R27 , Z + 22 + 1
00259b 8d80     +LDD R24 , Z + 22 + 2
00259c 8d91     +LDD R25 , Z + 22 + 3
                 	__GETD2Z 22
00259d 940e 27e1 	CALL __PUTPARD2
00259f e0a1      	LDI  R26,LOW(1)
0025a0 940e 0df2 	CALL _disk_write
0025a2 30e0      	CPI  R30,0
0025a3 9508      	RET
                 
                 ;OPTIMIZER ADDED SUBROUTINE, CALLED 4 TIMES, CODE SIZE REDUCTION:3 WORDS
                 SUBOPT_0xA4:
0025a4 9614      	ADIW R26,4
0025a5 91ec      	LD   R30,X
0025a6 7bef      	ANDI R30,0xBF
0025a7 93ec      	ST   X,R30
0025a8 9508      	RET
                 
                 ;OPTIMIZER ADDED SUBROUTINE, CALLED 4 TIMES, CODE SIZE REDUCTION:3 WORDS
                 SUBOPT_0xA5:
0025a9 9616      	ADIW R26,6
0025aa 940e 27ab 	CALL __GETW1P
0025ac 70f1      	ANDI R31,HIGH(0x1FF)
0025ad 9508      	RET
                 
                 ;OPTIMIZER ADDED SUBROUTINE, CALLED 2 TIMES, CODE SIZE REDUCTION:1 WORDS
                 SUBOPT_0xA6:
0025ae e0a0      	LDI  R26,LOW(512)
0025af e0b2      	LDI  R27,HIGH(512)
0025b0 1bae      	SUB  R26,R30
0025b1 0bbf      	SBC  R27,R31
                +
0025b2 2f1a     +MOV R17 , R26
0025b3 2f2b     +MOV R18 , R27
                 	__PUTW2R 17,18
0025b4 9508      	RET
                 
                 ;OPTIMIZER ADDED SUBROUTINE, CALLED 2 TIMES, CODE SIZE REDUCTION:1 WORDS
                 SUBOPT_0xA7:
0025b5 93fa      	ST   -Y,R31
0025b6 93ea      	ST   -Y,R30
                +
0025b7 2fa1     +MOV R26 , R17
0025b8 2fb2     +MOV R27 , R18
                 	__GETW2R 17,18
0025b9 940c 20d6 	JMP  _memcpy
                 
                 ;OPTIMIZER ADDED SUBROUTINE, CALLED 2 TIMES, CODE SIZE REDUCTION:3 WORDS
                 SUBOPT_0xA8:
                +
0025bb 2fe1     +MOV R30 , R17
0025bc 2ff2     +MOV R31 , R18
                 	__GETW1R 17,18
0025bd 81ad      	LDD  R26,Y+5
0025be 81be      	LDD  R27,Y+5+1
0025bf 0fea      	ADD  R30,R26
0025c0 1ffb      	ADC  R31,R27
0025c1 83ed      	STD  Y+5,R30
0025c2 83fe      	STD  Y+5+1,R31
0025c3 9508      	RET
                 
                 ;OPTIMIZER ADDED SUBROUTINE, CALLED 2 TIMES, CODE SIZE REDUCTION:6 WORDS
                 SUBOPT_0xA9:
0025c4 9636      	ADIW R30,6
0025c5 010f      	MOVW R0,R30
0025c6 01df      	MOVW R26,R30
0025c7 940e 27af 	CALL __GETD1P
0025c9 01df      	MOVW R26,R30
0025ca 01cb      	MOVW R24,R22
                +
0025cb 2fe1     +MOV R30 , R17
0025cc 2ff2     +MOV R31 , R18
                 	__GETW1R 17,18
0025cd ce51      	RJMP SUBOPT_0x6E
                 
                 ;OPTIMIZER ADDED SUBROUTINE, CALLED 2 TIMES, CODE SIZE REDUCTION:1 WORDS
                 SUBOPT_0xAA:
0025ce 91ed      	LD   R30,X+
0025cf 91fd      	LD   R31,X+
0025d0 0fe1      	ADD  R30,R17
0025d1 1ff2      	ADC  R31,R18
0025d2 93fe      	ST   -X,R31
0025d3 93ee      	ST   -X,R30
0025d4 9508      	RET
                 
                 ;OPTIMIZER ADDED SUBROUTINE, CALLED 10 TIMES, CODE SIZE REDUCTION:15 WORDS
                 SUBOPT_0xAB:
0025d5 89ad      	LDD  R26,Y+21
0025d6 89be      	LDD  R27,Y+21+1
0025d7 940e 27ab 	CALL __GETW1P
0025d9 9508      	RET
                 
                 ;OPTIMIZER ADDED SUBROUTINE, CALLED 4 TIMES, CODE SIZE REDUCTION:3 WORDS
                 SUBOPT_0xAC:
0025da 93fa      	ST   -Y,R31
0025db 93ea      	ST   -Y,R30
0025dc 89ef      	LDD  R30,Y+23
0025dd 8df8      	LDD  R31,Y+23+1
0025de 9508      	RET
                 
                 ;OPTIMIZER ADDED SUBROUTINE, CALLED 3 TIMES, CODE SIZE REDUCTION:3 WORDS
                 SUBOPT_0xAD:
0025df 89ad      	LDD  R26,Y+21
0025e0 89be      	LDD  R27,Y+21+1
0025e1 961a      	ADIW R26,10
0025e2 940e 27af 	CALL __GETD1P
0025e4 9508      	RET
                 
                 ;OPTIMIZER ADDED SUBROUTINE, CALLED 3 TIMES, CODE SIZE REDUCTION:5 WORDS
                 SUBOPT_0xAE:
0025e5 89ed      	LDD  R30,Y+21
0025e6 89fe      	LDD  R31,Y+21+1
                +
0025e7 81a6     +LDD R26 , Z + 6
0025e8 81b7     +LDD R27 , Z + 6 + 1
0025e9 8580     +LDD R24 , Z + 6 + 2
0025ea 8591     +LDD R25 , Z + 6 + 3
                 	__GETD2Z 6
0025eb 9508      	RET
                 
                 ;OPTIMIZER ADDED SUBROUTINE, CALLED 6 TIMES, CODE SIZE REDUCTION:17 WORDS
                 SUBOPT_0xAF:
0025ec 89ad      	LDD  R26,Y+21
0025ed 89be      	LDD  R27,Y+21+1
0025ee 9614      	ADIW R26,4
0025ef 91ec      	LD   R30,X
0025f0 68e0      	ORI  R30,0x80
0025f1 93ec      	ST   X,R30
0025f2 9508      	RET
                 
                 ;OPTIMIZER ADDED SUBROUTINE, CALLED 2 TIMES, CODE SIZE REDUCTION:2 WORDS
                 SUBOPT_0xB0:
0025f3 81e1      	LDD  R30,Z+1
0025f4 93ea      	ST   -Y,R30
0025f5 89ee      	LDD  R30,Y+22
0025f6 89ff      	LDD  R31,Y+22+1
0025f7 96b0      	ADIW R30,32
0025f8 93fa      	ST   -Y,R31
0025f9 93ea      	ST   -Y,R30
0025fa 9508      	RET
                 
                 ;OPTIMIZER ADDED SUBROUTINE, CALLED 3 TIMES, CODE SIZE REDUCTION:1 WORDS
                 SUBOPT_0xB1:
0025fb 89ed      	LDD  R30,Y+21
0025fc 89fe      	LDD  R31,Y+21+1
0025fd 81e5      	LDD  R30,Z+5
0025fe e0f0      	LDI  R31,0
0025ff 9508      	RET
                 
                 ;OPTIMIZER ADDED SUBROUTINE, CALLED 2 TIMES, CODE SIZE REDUCTION:3 WORDS
                 SUBOPT_0xB2:
002600 89ed      	LDD  R30,Y+21
002601 89fe      	LDD  R31,Y+21+1
                +
002602 89a6     +LDD R26 , Z + 22
002603 89b7     +LDD R27 , Z + 22 + 1
002604 8d80     +LDD R24 , Z + 22 + 2
002605 8d91     +LDD R25 , Z + 22 + 3
                 	__GETD2Z 22
002606 cd82      	RJMP SUBOPT_0x54
                 
                 ;OPTIMIZER ADDED SUBROUTINE, CALLED 5 TIMES, CODE SIZE REDUCTION:5 WORDS
                 SUBOPT_0xB3:
002607 81af      	LDD  R26,Y+7
002608 85b8      	LDD  R27,Y+7+1
002609 940e 27ab 	CALL __GETW1P
00260b 9508      	RET
                 
                 ;OPTIMIZER ADDED SUBROUTINE, CALLED 5 TIMES, CODE SIZE REDUCTION:13 WORDS
                 SUBOPT_0xB4:
00260c 933a      	ST   -Y,R19
00260d 85ad      	LDD  R26,Y+13
00260e 85be      	LDD  R27,Y+13+1
00260f 85ef      	LDD  R30,Y+15
002610 89f8      	LDD  R31,Y+15+1
002611 9509      	ICALL
002612 9508      	RET
                 
                 ;OPTIMIZER ADDED SUBROUTINE, CALLED 5 TIMES, CODE SIZE REDUCTION:9 WORDS
                 SUBOPT_0xB5:
002613 89e8      	LDD  R30,Y+16
002614 89f9      	LDD  R31,Y+16+1
002615 9734      	SBIW R30,4
002616 8be8      	STD  Y+16,R30
002617 8bf9      	STD  Y+16+1,R31
002618 9508      	RET
                 
                 ;OPTIMIZER ADDED SUBROUTINE, CALLED 3 TIMES, CODE SIZE REDUCTION:3 WORDS
                 SUBOPT_0xB6:
002619 85ad      	LDD  R26,Y+13
00261a 85be      	LDD  R27,Y+13+1
00261b 85ef      	LDD  R30,Y+15
00261c 89f8      	LDD  R31,Y+15+1
00261d 9509      	ICALL
00261e 9508      	RET
                 
                 ;OPTIMIZER ADDED SUBROUTINE, CALLED 2 TIMES, CODE SIZE REDUCTION:2 WORDS
                 SUBOPT_0xB7:
00261f 89a8      	LDD  R26,Y+16
002620 89b9      	LDD  R27,Y+16+1
002621 9614      	ADIW R26,4
002622 940e 27ab 	CALL __GETW1P
002624 87ea      	STD  Y+10,R30
002625 87fb      	STD  Y+10+1,R31
002626 9508      	RET
                 
                 ;OPTIMIZER ADDED SUBROUTINE, CALLED 3 TIMES, CODE SIZE REDUCTION:1 WORDS
                 SUBOPT_0xB8:
002627 940e 26d8 	CALL __ADDW2R15
002629 940e 27ab 	CALL __GETW1P
00262b 9508      	RET
                 
                 
                 	.CSEG
                 _delay_ms:
00262c 9610      	adiw r26,0
00262d f039      	breq __delay_ms1
                 __delay_ms0:
                +
00262e ea80     +LDI R24 , LOW ( 0xFA0 )
00262f e09f     +LDI R25 , HIGH ( 0xFA0 )
                +__DELAY_USW_LOOP :
002630 9701     +SBIW R24 , 1
002631 f7f1     +BRNE __DELAY_USW_LOOP
                 	__DELAY_USW 0xFA0
002632 95a8      	wdr
002633 9711      	sbiw r26,1
002634 f7c9      	brne __delay_ms0
                 __delay_ms1:
002635 9508      	ret
                 
                 __ROUND_REPACK:
002636 2355      	TST  R21
002637 f442      	BRPL __REPACK
002638 3850      	CPI  R21,0x80
002639 f411      	BRNE __ROUND_REPACK0
00263a ffe0      	SBRS R30,0
00263b c004      	RJMP __REPACK
                 __ROUND_REPACK0:
00263c 9631      	ADIW R30,1
00263d 1f69      	ADC  R22,R25
00263e 1f79      	ADC  R23,R25
00263f f06b      	BRVS __REPACK1
                 
                 __REPACK:
002640 e850      	LDI  R21,0x80
002641 2757      	EOR  R21,R23
002642 f411      	BRNE __REPACK0
002643 935f      	PUSH R21
002644 c03c      	RJMP __ZERORES
                 __REPACK0:
002645 3f5f      	CPI  R21,0xFF
002646 f031      	BREQ __REPACK1
002647 0f66      	LSL  R22
002648 0c00      	LSL  R0
002649 9557      	ROR  R21
00264a 9567      	ROR  R22
00264b 2f75      	MOV  R23,R21
00264c 9508      	RET
                 __REPACK1:
00264d 935f      	PUSH R21
00264e 2000      	TST  R0
00264f f00a      	BRMI __REPACK2
002650 c03c      	RJMP __MAXRES
                 __REPACK2:
002651 c035      	RJMP __MINRES
                 
                 __UNPACK:
002652 e850      	LDI  R21,0x80
002653 2e19      	MOV  R1,R25
002654 2215      	AND  R1,R21
002655 0f88      	LSL  R24
002656 1f99      	ROL  R25
002657 2795      	EOR  R25,R21
002658 0f55      	LSL  R21
002659 9587      	ROR  R24
                 
                 __UNPACK1:
00265a e850      	LDI  R21,0x80
00265b 2e07      	MOV  R0,R23
00265c 2205      	AND  R0,R21
00265d 0f66      	LSL  R22
00265e 1f77      	ROL  R23
00265f 2775      	EOR  R23,R21
002660 0f55      	LSL  R21
002661 9567      	ROR  R22
002662 9508      	RET
                 
                 __CDF1U:
002663 9468      	SET
002664 c001      	RJMP __CDF1U0
                 __CDF1:
002665 94e8      	CLT
                 __CDF1U0:
002666 9730      	SBIW R30,0
002667 4060      	SBCI R22,0
002668 4070      	SBCI R23,0
002669 f0b1      	BREQ __CDF10
00266a 2400      	CLR  R0
00266b f026      	BRTS __CDF11
00266c 2377      	TST  R23
00266d f412      	BRPL __CDF11
00266e 9400      	COM  R0
00266f d089      	RCALL __ANEGD1
                 __CDF11:
002670 2e17      	MOV  R1,R23
002671 e17e      	LDI  R23,30
002672 2011      	TST  R1
                 __CDF12:
002673 f032      	BRMI __CDF13
002674 957a      	DEC  R23
002675 0fee      	LSL  R30
002676 1fff      	ROL  R31
002677 1f66      	ROL  R22
002678 1c11      	ROL  R1
002679 cff9      	RJMP __CDF12
                 __CDF13:
00267a 2fef      	MOV  R30,R31
00267b 2ff6      	MOV  R31,R22
00267c 2d61      	MOV  R22,R1
00267d 935f      	PUSH R21
00267e dfc1      	RCALL __REPACK
00267f 915f      	POP  R21
                 __CDF10:
002680 9508      	RET
                 
                 __ZERORES:
002681 27ee      	CLR  R30
002682 27ff      	CLR  R31
002683 2766      	CLR  R22
002684 2777      	CLR  R23
002685 915f      	POP  R21
002686 9508      	RET
                 
                 __MINRES:
002687 efef      	SER  R30
002688 efff      	SER  R31
002689 e76f      	LDI  R22,0x7F
00268a ef7f      	SER  R23
00268b 915f      	POP  R21
00268c 9508      	RET
                 
                 __MAXRES:
00268d efef      	SER  R30
00268e efff      	SER  R31
00268f e76f      	LDI  R22,0x7F
002690 e77f      	LDI  R23,0x7F
002691 915f      	POP  R21
002692 9508      	RET
                 
                 __DIVF21:
002693 935f      	PUSH R21
002694 dfbd      	RCALL __UNPACK
002695 3870      	CPI  R23,0x80
002696 f421      	BRNE __DIVF210
002697 2011      	TST  R1
                 __DIVF211:
002698 f40a      	BRPL __DIVF219
002699 cfed      	RJMP __MINRES
                 __DIVF219:
00269a cff2      	RJMP __MAXRES
                 __DIVF210:
00269b 3890      	CPI  R25,0x80
00269c f409      	BRNE __DIVF218
                 __DIVF217:
00269d cfe3      	RJMP __ZERORES
                 __DIVF218:
00269e 2401      	EOR  R0,R1
00269f 9408      	SEC
0026a0 0b97      	SBC  R25,R23
0026a1 f41b      	BRVC __DIVF216
0026a2 f3d4      	BRLT __DIVF217
0026a3 2000      	TST  R0
0026a4 cff3      	RJMP __DIVF211
                 __DIVF216:
0026a5 2f79      	MOV  R23,R25
0026a6 931f      	PUSH R17
0026a7 932f      	PUSH R18
0026a8 933f      	PUSH R19
0026a9 934f      	PUSH R20
0026aa 2411      	CLR  R1
0026ab 2711      	CLR  R17
0026ac 2722      	CLR  R18
0026ad 2733      	CLR  R19
0026ae 2744      	CLR  R20
0026af 2755      	CLR  R21
0026b0 e290      	LDI  R25,32
                 __DIVF212:
0026b1 17ae      	CP   R26,R30
0026b2 07bf      	CPC  R27,R31
0026b3 0786      	CPC  R24,R22
0026b4 0741      	CPC  R20,R17
0026b5 f030      	BRLO __DIVF213
0026b6 1bae      	SUB  R26,R30
0026b7 0bbf      	SBC  R27,R31
0026b8 0b86      	SBC  R24,R22
0026b9 0b41      	SBC  R20,R17
0026ba 9408      	SEC
0026bb c001      	RJMP __DIVF214
                 __DIVF213:
0026bc 9488      	CLC
                 __DIVF214:
0026bd 1f55      	ROL  R21
0026be 1f22      	ROL  R18
0026bf 1f33      	ROL  R19
0026c0 1c11      	ROL  R1
0026c1 1faa      	ROL  R26
0026c2 1fbb      	ROL  R27
0026c3 1f88      	ROL  R24
0026c4 1f44      	ROL  R20
0026c5 959a      	DEC  R25
0026c6 f751      	BRNE __DIVF212
0026c7 01f9      	MOVW R30,R18
0026c8 2d61      	MOV  R22,R1
0026c9 914f      	POP  R20
0026ca 913f      	POP  R19
0026cb 912f      	POP  R18
0026cc 911f      	POP  R17
0026cd 2366      	TST  R22
0026ce f032      	BRMI __DIVF215
0026cf 0f55      	LSL  R21
0026d0 1fee      	ROL  R30
0026d1 1fff      	ROL  R31
0026d2 1f66      	ROL  R22
0026d3 957a      	DEC  R23
0026d4 f243      	BRVS __DIVF217
                 __DIVF215:
0026d5 df60      	RCALL __ROUND_REPACK
0026d6 915f      	POP  R21
0026d7 9508      	RET
                 
                 __ADDW2R15:
0026d8 2400      	CLR  R0
0026d9 0daf      	ADD  R26,R15
0026da 1db0      	ADC  R27,R0
0026db 9508      	RET
                 
                 __ADDD12:
0026dc 0fea      	ADD  R30,R26
0026dd 1ffb      	ADC  R31,R27
0026de 1f68      	ADC  R22,R24
0026df 1f79      	ADC  R23,R25
0026e0 9508      	RET
                 
                 __ADDD21:
0026e1 0fae      	ADD  R26,R30
0026e2 1fbf      	ADC  R27,R31
0026e3 1f86      	ADC  R24,R22
0026e4 1f97      	ADC  R25,R23
0026e5 9508      	RET
                 
                 __SUBD12:
0026e6 1bea      	SUB  R30,R26
0026e7 0bfb      	SBC  R31,R27
0026e8 0b68      	SBC  R22,R24
0026e9 0b79      	SBC  R23,R25
0026ea 9508      	RET
                 
                 __SUBD21:
0026eb 1bae      	SUB  R26,R30
0026ec 0bbf      	SBC  R27,R31
0026ed 0b86      	SBC  R24,R22
0026ee 0b97      	SBC  R25,R23
0026ef 9508      	RET
                 
                 __ORD12:
0026f0 2bea      	OR   R30,R26
0026f1 2bfb      	OR   R31,R27
0026f2 2b68      	OR   R22,R24
0026f3 2b79      	OR   R23,R25
0026f4 9508      	RET
                 
                 __ANEGW1:
0026f5 95f1      	NEG  R31
0026f6 95e1      	NEG  R30
0026f7 40f0      	SBCI R31,0
0026f8 9508      	RET
                 
                 __ANEGD1:
0026f9 95f0      	COM  R31
0026fa 9560      	COM  R22
0026fb 9570      	COM  R23
0026fc 95e1      	NEG  R30
0026fd 4fff      	SBCI R31,-1
0026fe 4f6f      	SBCI R22,-1
0026ff 4f7f      	SBCI R23,-1
002700 9508      	RET
                 
                 __LSLD12:
002701 23ee      	TST  R30
002702 2e0e      	MOV  R0,R30
002703 01fd      	MOVW R30,R26
002704 01bc      	MOVW R22,R24
002705 f031      	BREQ __LSLD12R
                 __LSLD12L:
002706 0fee      	LSL  R30
002707 1fff      	ROL  R31
002708 1f66      	ROL  R22
002709 1f77      	ROL  R23
00270a 940a      	DEC  R0
00270b f7d1      	BRNE __LSLD12L
                 __LSLD12R:
00270c 9508      	RET
                 
                 __LSRD12:
00270d 23ee      	TST  R30
00270e 2e0e      	MOV  R0,R30
00270f 01fd      	MOVW R30,R26
002710 01bc      	MOVW R22,R24
002711 f031      	BREQ __LSRD12R
                 __LSRD12L:
002712 9576      	LSR  R23
002713 9567      	ROR  R22
002714 95f7      	ROR  R31
002715 95e7      	ROR  R30
002716 940a      	DEC  R0
002717 f7d1      	BRNE __LSRD12L
                 __LSRD12R:
002718 9508      	RET
                 
                 __LSLW4:
002719 0fee      	LSL  R30
00271a 1fff      	ROL  R31
                 __LSLW3:
00271b 0fee      	LSL  R30
00271c 1fff      	ROL  R31
                 __LSLW2:
00271d 0fee      	LSL  R30
00271e 1fff      	ROL  R31
00271f 0fee      	LSL  R30
002720 1fff      	ROL  R31
002721 9508      	RET
                 
                 __LSRW4:
002722 95f6      	LSR  R31
002723 95e7      	ROR  R30
                 __LSRW3:
002724 95f6      	LSR  R31
002725 95e7      	ROR  R30
                 __LSRW2:
002726 95f6      	LSR  R31
002727 95e7      	ROR  R30
002728 95f6      	LSR  R31
002729 95e7      	ROR  R30
00272a 9508      	RET
                 
                 __LSLD1:
00272b 0fee      	LSL  R30
00272c 1fff      	ROL  R31
00272d 1f66      	ROL  R22
00272e 1f77      	ROL  R23
00272f 9508      	RET
                 
                 __LSRD16:
002730 2fe6      	MOV  R30,R22
002731 2ff7      	MOV  R31,R23
002732 e060      	LDI  R22,0
002733 e070      	LDI  R23,0
002734 9508      	RET
                 
                 __LSLD16:
002735 2f6e      	MOV  R22,R30
002736 2f7f      	MOV  R23,R31
002737 e0e0      	LDI  R30,0
002738 e0f0      	LDI  R31,0
002739 9508      	RET
                 
                 __CWD1:
00273a 2f6f      	MOV  R22,R31
00273b 0f66      	ADD  R22,R22
00273c 0b66      	SBC  R22,R22
00273d 2f76      	MOV  R23,R22
00273e 9508      	RET
                 
                 __MULD12U:
00273f 9f7a      	MUL  R23,R26
002740 2d70      	MOV  R23,R0
002741 9f6b      	MUL  R22,R27
002742 0d70      	ADD  R23,R0
002743 9ff8      	MUL  R31,R24
002744 0d70      	ADD  R23,R0
002745 9fe9      	MUL  R30,R25
002746 0d70      	ADD  R23,R0
002747 9f6a      	MUL  R22,R26
002748 2d60      	MOV  R22,R0
002749 0d71      	ADD  R23,R1
00274a 9ffb      	MUL  R31,R27
00274b 0d60      	ADD  R22,R0
00274c 1d71      	ADC  R23,R1
00274d 9fe8      	MUL  R30,R24
00274e 0d60      	ADD  R22,R0
00274f 1d71      	ADC  R23,R1
002750 2788      	CLR  R24
002751 9ffa      	MUL  R31,R26
002752 2df0      	MOV  R31,R0
002753 0d61      	ADD  R22,R1
002754 1f78      	ADC  R23,R24
002755 9feb      	MUL  R30,R27
002756 0df0      	ADD  R31,R0
002757 1d61      	ADC  R22,R1
002758 1f78      	ADC  R23,R24
002759 9fea      	MUL  R30,R26
00275a 2de0      	MOV  R30,R0
00275b 0df1      	ADD  R31,R1
00275c 1f68      	ADC  R22,R24
00275d 1f78      	ADC  R23,R24
00275e 9508      	RET
                 
                 __MULB1W2U:
00275f 2f6e      	MOV  R22,R30
002760 9f6a      	MUL  R22,R26
002761 01f0      	MOVW R30,R0
002762 9f6b      	MUL  R22,R27
002763 0df0      	ADD  R31,R0
002764 9508      	RET
                 
                 __DIVW21U:
002765 2400      	CLR  R0
002766 2411      	CLR  R1
002767 e190      	LDI  R25,16
                 __DIVW21U1:
002768 0faa      	LSL  R26
002769 1fbb      	ROL  R27
00276a 1c00      	ROL  R0
00276b 1c11      	ROL  R1
00276c 1a0e      	SUB  R0,R30
00276d 0a1f      	SBC  R1,R31
00276e f418      	BRCC __DIVW21U2
00276f 0e0e      	ADD  R0,R30
002770 1e1f      	ADC  R1,R31
002771 c001      	RJMP __DIVW21U3
                 __DIVW21U2:
002772 60a1      	SBR  R26,1
                 __DIVW21U3:
002773 959a      	DEC  R25
002774 f799      	BRNE __DIVW21U1
002775 01fd      	MOVW R30,R26
002776 01d0      	MOVW R26,R0
002777 9508      	RET
                 
                 __DIVD21U:
002778 933f      	PUSH R19
002779 934f      	PUSH R20
00277a 935f      	PUSH R21
00277b 2400      	CLR  R0
00277c 2411      	CLR  R1
00277d 2744      	CLR  R20
00277e 2755      	CLR  R21
00277f e230      	LDI  R19,32
                 __DIVD21U1:
002780 0faa      	LSL  R26
002781 1fbb      	ROL  R27
002782 1f88      	ROL  R24
002783 1f99      	ROL  R25
002784 1c00      	ROL  R0
002785 1c11      	ROL  R1
002786 1f44      	ROL  R20
002787 1f55      	ROL  R21
002788 1a0e      	SUB  R0,R30
002789 0a1f      	SBC  R1,R31
00278a 0b46      	SBC  R20,R22
00278b 0b57      	SBC  R21,R23
00278c f428      	BRCC __DIVD21U2
00278d 0e0e      	ADD  R0,R30
00278e 1e1f      	ADC  R1,R31
00278f 1f46      	ADC  R20,R22
002790 1f57      	ADC  R21,R23
002791 c001      	RJMP __DIVD21U3
                 __DIVD21U2:
002792 60a1      	SBR  R26,1
                 __DIVD21U3:
002793 953a      	DEC  R19
002794 f759      	BRNE __DIVD21U1
002795 01fd      	MOVW R30,R26
002796 01bc      	MOVW R22,R24
002797 01d0      	MOVW R26,R0
002798 01ca      	MOVW R24,R20
002799 915f      	POP  R21
00279a 914f      	POP  R20
00279b 913f      	POP  R19
00279c 9508      	RET
                 
                 __MODW21:
00279d 94e8      	CLT
00279e ffb7      	SBRS R27,7
00279f c004      	RJMP __MODW211
0027a0 95a0      	COM  R26
0027a1 95b0      	COM  R27
0027a2 9611      	ADIW R26,1
0027a3 9468      	SET
                 __MODW211:
0027a4 fdf7      	SBRC R31,7
0027a5 df4f      	RCALL __ANEGW1
0027a6 dfbe      	RCALL __DIVW21U
0027a7 01fd      	MOVW R30,R26
0027a8 f40e      	BRTC __MODW212
0027a9 df4b      	RCALL __ANEGW1
                 __MODW212:
0027aa 9508      	RET
                 
                 __GETW1P:
0027ab 91ed      	LD   R30,X+
0027ac 91fc      	LD   R31,X
0027ad 9711      	SBIW R26,1
0027ae 9508      	RET
                 
                 __GETD1P:
0027af 91ed      	LD   R30,X+
0027b0 91fd      	LD   R31,X+
0027b1 916d      	LD   R22,X+
0027b2 917c      	LD   R23,X
0027b3 9713      	SBIW R26,3
0027b4 9508      	RET
                 
                 __GETD1P_INC:
0027b5 91ed      	LD   R30,X+
0027b6 91fd      	LD   R31,X+
0027b7 916d      	LD   R22,X+
0027b8 917d      	LD   R23,X+
0027b9 9508      	RET
                 
                 __PUTDP1:
0027ba 93ed      	ST   X+,R30
0027bb 93fd      	ST   X+,R31
0027bc 936d      	ST   X+,R22
0027bd 937c      	ST   X,R23
0027be 9508      	RET
                 
                 __PUTDP1_DEC:
0027bf 937e      	ST   -X,R23
0027c0 936e      	ST   -X,R22
0027c1 93fe      	ST   -X,R31
0027c2 93ee      	ST   -X,R30
0027c3 9508      	RET
                 
                 __GETW1PF:
0027c4 9005      	LPM  R0,Z+
0027c5 91f4      	LPM  R31,Z
0027c6 2de0      	MOV  R30,R0
0027c7 9508      	RET
                 
                 __GETD1S0:
0027c8 81e8      	LD   R30,Y
0027c9 81f9      	LDD  R31,Y+1
0027ca 816a      	LDD  R22,Y+2
0027cb 817b      	LDD  R23,Y+3
0027cc 9508      	RET
                 
                 __GETD2S0:
0027cd 81a8      	LD   R26,Y
0027ce 81b9      	LDD  R27,Y+1
0027cf 818a      	LDD  R24,Y+2
0027d0 819b      	LDD  R25,Y+3
0027d1 9508      	RET
                 
                 __PUTD1S0:
0027d2 83e8      	ST   Y,R30
0027d3 83f9      	STD  Y+1,R31
0027d4 836a      	STD  Y+2,R22
0027d5 837b      	STD  Y+3,R23
0027d6 9508      	RET
                 
                 __PUTDZ20:
0027d7 83a0      	ST   Z,R26
0027d8 83b1      	STD  Z+1,R27
0027d9 8382      	STD  Z+2,R24
0027da 8393      	STD  Z+3,R25
0027db 9508      	RET
                 
                 __PUTPARD1:
0027dc 937a      	ST   -Y,R23
0027dd 936a      	ST   -Y,R22
0027de 93fa      	ST   -Y,R31
0027df 93ea      	ST   -Y,R30
0027e0 9508      	RET
                 
                 __PUTPARD2:
0027e1 939a      	ST   -Y,R25
0027e2 938a      	ST   -Y,R24
0027e3 93ba      	ST   -Y,R27
0027e4 93aa      	ST   -Y,R26
0027e5 9508      	RET
                 
                 __SWAPD12:
0027e6 2e18      	MOV  R1,R24
0027e7 2f86      	MOV  R24,R22
0027e8 2d61      	MOV  R22,R1
0027e9 2e19      	MOV  R1,R25
0027ea 2f97      	MOV  R25,R23
0027eb 2d71      	MOV  R23,R1
                 
                 __SWAPW12:
0027ec 2e1b      	MOV  R1,R27
0027ed 2fbf      	MOV  R27,R31
0027ee 2df1      	MOV  R31,R1
                 
                 __SWAPB12:
0027ef 2e1a      	MOV  R1,R26
0027f0 2fae      	MOV  R26,R30
0027f1 2de1      	MOV  R30,R1
0027f2 9508      	RET
                 
                 __CPD10:
0027f3 9730      	SBIW R30,0
0027f4 4060      	SBCI R22,0
0027f5 4070      	SBCI R23,0
0027f6 9508      	RET
                 
                 __CPD02:
0027f7 2400      	CLR  R0
0027f8 160a      	CP   R0,R26
0027f9 060b      	CPC  R0,R27
0027fa 0608      	CPC  R0,R24
0027fb 0609      	CPC  R0,R25
0027fc 9508      	RET
                 
                 __CPD12:
0027fd 17ea      	CP   R30,R26
0027fe 07fb      	CPC  R31,R27
0027ff 0768      	CPC  R22,R24
002800 0779      	CPC  R23,R25
002801 9508      	RET
                 
                 __CPD21:
002802 17ae      	CP   R26,R30
002803 07bf      	CPC  R27,R31
002804 0786      	CPC  R24,R22
002805 0797      	CPC  R25,R23
002806 9508      	RET
                 
                 __SAVELOCR6:
002807 935a      	ST   -Y,R21
                 __SAVELOCR5:
002808 934a      	ST   -Y,R20
                 __SAVELOCR4:
002809 933a      	ST   -Y,R19
                 __SAVELOCR3:
00280a 932a      	ST   -Y,R18
                 __SAVELOCR2:
00280b 931a      	ST   -Y,R17
00280c 930a      	ST   -Y,R16
00280d 9508      	RET
                 
                 __LOADLOCR6:
00280e 815d      	LDD  R21,Y+5
                 __LOADLOCR5:
00280f 814c      	LDD  R20,Y+4
                 __LOADLOCR4:
002810 813b      	LDD  R19,Y+3
                 __LOADLOCR3:
002811 812a      	LDD  R18,Y+2
                 __LOADLOCR2:
002812 8119      	LDD  R17,Y+1
002813 8108      	LD   R16,Y
002814 9508      	RET
                 
                 __INITLOCB:
                 __INITLOCW:
002815 0fac      	ADD  R26,R28
002816 1fbd      	ADC  R27,R29
                 __INITLOC0:
002817 9005      	LPM  R0,Z+
002818 920d      	ST   X+,R0
002819 958a      	DEC  R24
00281a f7e1      	BRNE __INITLOC0
00281b 9508      	RET
                 
                 ;END OF CODE MARKER
                 __END_OF_CODE:


RESOURCE USE INFORMATION
------------------------

Notice:
The register and instruction counts are symbol table hit counts,
and hence implicitly used resources are not counted, eg, the
'lpm' instruction without operands implicitly uses r0 and z,
none of which are counted.

x,y,z are separate entities in the symbol table and are
counted separately from r26..r31 here.

.dseg memory usage only counts static data declared with .byte

AT90USB1286 register use summary:
r0 : 119 r1 :  39 r2 :   0 r3 :   0 r4 :   0 r5 :   0 r6 :   0 r7 :   0 
r8 :   0 r9 :   0 r10:   0 r11:   0 r12:   0 r13:   0 r14:   0 r15:   9 
r16: 331 r17: 189 r18: 129 r19:  89 r20:  62 r21:  48 r22: 218 r23: 171 
r24: 171 r25: 130 r26:1105 r27: 602 r28: 124 r29:   3 r30:1941 r31: 690 
x  : 196 y  :1763 z  : 178 
Registers used: 22 out of 35 (62.9%)

AT90USB1286 instruction use summary:
.lds  :   0 .lds.l:   0 .sts  :   0 .sts.l:   0 adc   :  76 add   :  76 
adiw  : 296 and   :   4 andi  : 104 asr   :   1 bclr  :   0 bld   :   0 
brbc  :   0 brbs  :   0 brcc  :   3 brcs  :   0 break :   0 breq  : 185 
brge  :   2 brhc  :   0 brhs  :   0 brid  :   0 brie  :   0 brlo  :  42 
brlt  :   2 brmi  :   4 brne  : 187 brpl  :   4 brsh  :  46 brtc  :   1 
brts  :   1 brvc  :   1 brvs  :   2 bset  :   0 bst   :   0 call  : 959 
cbi   :  13 cbr   :   0 clc   :   1 clh   :   0 cli   :   1 cln   :   0 
clr   : 102 cls   :   0 clt   :   2 clv   :   0 clz   :   0 com   :   6 
cp    :  30 cpc   :  67 cpi   : 247 cpse  :   0 dec   :   9 des   :   0 
elpm  :   0 eor   :  11 fmul  :   0 fmuls :   0 fmulsu:   0 icall :   4 
ijmp  :   0 in    :  44 inc   :   1 jmp   :  58 ld    : 144 ldd   :1302 
ldi   : 814 lds   :  63 lpm   :  29 lsl   :  30 lsr   :  16 mov   : 254 
movw  : 206 mul   :  18 muls  :   2 mulsu :   0 neg   :   3 nop   :   0 
or    :  14 ori   :  24 out   :  54 pop   :  80 push  :  79 rcall : 115 
ret   : 253 reti  :   2 rjmp  : 423 rol   :  41 ror   :  14 sbc   :  26 
sbci  :  84 sbi   :  16 sbic  :   1 sbis  :   1 sbiw  :  72 sbr   :   2 
sbrc  :   6 sbrs  :  43 sec   :   2 seh   :   0 sei   :   1 sen   :   0 
ser   :   5 ses   :   0 set   :   2 sev   :   0 sez   :   0 sleep :   0 
spm   :   0 st    : 480 std   : 191 sts   :  48 sub   :  17 subi  : 122 
swap  :   6 tst   :  15 wdr   :   1 
Instructions used: 79 out of 117 (67.5%)

AT90USB1286 memory use summary [bytes]:
Segment   Begin    End      Code   Data   Used    Size   Use%
---------------------------------------------------------------
[.cseg] 0x000000 0x005038  17664   2872  20536  131072  15.7%
[.dseg] 0x000100 0x000f54      0   1620   1620    8192  19.8%
[.eseg] 0x000000 0x000000      0      0      0    4096   0.0%

Assembly complete, 0 errors, 5 warnings
